
stm_code.elf:     file format elf32-littlearm

Sections:
Idx Name          Size      VMA       LMA       File off  Algn
  0 .isr_vector   000000bc  08000000  08000000  00010000  2**0
                  CONTENTS, ALLOC, LOAD, READONLY, DATA
  1 .text         0000437c  080000bc  080000bc  000100bc  2**2
                  CONTENTS, ALLOC, LOAD, READONLY, CODE
  2 .rodata       00000104  08004438  08004438  00014438  2**2
                  CONTENTS, ALLOC, LOAD, READONLY, DATA
  3 .ARM.extab    00000000  0800453c  0800453c  0002005c  2**0
                  CONTENTS
  4 .ARM          00000008  0800453c  0800453c  0001453c  2**2
                  CONTENTS, ALLOC, LOAD, READONLY, DATA
  5 .preinit_array 00000000  08004544  08004544  0002005c  2**0
                  CONTENTS, ALLOC, LOAD, DATA
  6 .init_array   00000004  08004544  08004544  00014544  2**2
                  CONTENTS, ALLOC, LOAD, DATA
  7 .fini_array   00000004  08004548  08004548  00014548  2**2
                  CONTENTS, ALLOC, LOAD, DATA
  8 .data         0000005c  20000000  0800454c  00020000  2**2
                  CONTENTS, ALLOC, LOAD, DATA
  9 .bss          00000264  2000005c  080045a8  0002005c  2**2
                  ALLOC
 10 ._user_heap_stack 00000600  200002c0  080045a8  000202c0  2**0
                  ALLOC
 11 .ARM.attributes 00000028  00000000  00000000  0002005c  2**0
                  CONTENTS, READONLY
 12 .comment      00000043  00000000  00000000  00020084  2**0
                  CONTENTS, READONLY
 13 .debug_info   000106ca  00000000  00000000  000200c7  2**0
                  CONTENTS, READONLY, DEBUGGING, OCTETS
 14 .debug_abbrev 000025db  00000000  00000000  00030791  2**0
                  CONTENTS, READONLY, DEBUGGING, OCTETS
 15 .debug_aranges 00000f00  00000000  00000000  00032d70  2**3
                  CONTENTS, READONLY, DEBUGGING, OCTETS
 16 .debug_rnglists 00000bb9  00000000  00000000  00033c70  2**0
                  CONTENTS, READONLY, DEBUGGING, OCTETS
 17 .debug_macro  0001d5b2  00000000  00000000  00034829  2**0
                  CONTENTS, READONLY, DEBUGGING, OCTETS
 18 .debug_line   0001334e  00000000  00000000  00051ddb  2**0
                  CONTENTS, READONLY, DEBUGGING, OCTETS
 19 .debug_str    000bbde1  00000000  00000000  00065129  2**0
                  CONTENTS, READONLY, DEBUGGING, OCTETS
 20 .debug_frame  0000388c  00000000  00000000  00120f0c  2**2
                  CONTENTS, READONLY, DEBUGGING, OCTETS
 21 .debug_line_str 0000004f  00000000  00000000  00124798  2**0
                  CONTENTS, READONLY, DEBUGGING, OCTETS

Disassembly of section .text:

080000bc <__do_global_dtors_aux>:
 80000bc:	b510      	push	{r4, lr}
 80000be:	4c06      	ldr	r4, [pc, #24]	; (80000d8 <__do_global_dtors_aux+0x1c>)
 80000c0:	7823      	ldrb	r3, [r4, #0]
 80000c2:	2b00      	cmp	r3, #0
 80000c4:	d107      	bne.n	80000d6 <__do_global_dtors_aux+0x1a>
 80000c6:	4b05      	ldr	r3, [pc, #20]	; (80000dc <__do_global_dtors_aux+0x20>)
 80000c8:	2b00      	cmp	r3, #0
 80000ca:	d002      	beq.n	80000d2 <__do_global_dtors_aux+0x16>
 80000cc:	4804      	ldr	r0, [pc, #16]	; (80000e0 <__do_global_dtors_aux+0x24>)
 80000ce:	e000      	b.n	80000d2 <__do_global_dtors_aux+0x16>
 80000d0:	bf00      	nop
 80000d2:	2301      	movs	r3, #1
 80000d4:	7023      	strb	r3, [r4, #0]
 80000d6:	bd10      	pop	{r4, pc}
 80000d8:	2000005c 	.word	0x2000005c
 80000dc:	00000000 	.word	0x00000000
 80000e0:	08004420 	.word	0x08004420

080000e4 <frame_dummy>:
 80000e4:	4b04      	ldr	r3, [pc, #16]	; (80000f8 <frame_dummy+0x14>)
 80000e6:	b510      	push	{r4, lr}
 80000e8:	2b00      	cmp	r3, #0
 80000ea:	d003      	beq.n	80000f4 <frame_dummy+0x10>
 80000ec:	4903      	ldr	r1, [pc, #12]	; (80000fc <frame_dummy+0x18>)
 80000ee:	4804      	ldr	r0, [pc, #16]	; (8000100 <frame_dummy+0x1c>)
 80000f0:	e000      	b.n	80000f4 <frame_dummy+0x10>
 80000f2:	bf00      	nop
 80000f4:	bd10      	pop	{r4, pc}
 80000f6:	46c0      	nop			; (mov r8, r8)
 80000f8:	00000000 	.word	0x00000000
 80000fc:	20000060 	.word	0x20000060
 8000100:	08004420 	.word	0x08004420

08000104 <__udivsi3>:
 8000104:	2200      	movs	r2, #0
 8000106:	0843      	lsrs	r3, r0, #1
 8000108:	428b      	cmp	r3, r1
 800010a:	d374      	bcc.n	80001f6 <__udivsi3+0xf2>
 800010c:	0903      	lsrs	r3, r0, #4
 800010e:	428b      	cmp	r3, r1
 8000110:	d35f      	bcc.n	80001d2 <__udivsi3+0xce>
 8000112:	0a03      	lsrs	r3, r0, #8
 8000114:	428b      	cmp	r3, r1
 8000116:	d344      	bcc.n	80001a2 <__udivsi3+0x9e>
 8000118:	0b03      	lsrs	r3, r0, #12
 800011a:	428b      	cmp	r3, r1
 800011c:	d328      	bcc.n	8000170 <__udivsi3+0x6c>
 800011e:	0c03      	lsrs	r3, r0, #16
 8000120:	428b      	cmp	r3, r1
 8000122:	d30d      	bcc.n	8000140 <__udivsi3+0x3c>
 8000124:	22ff      	movs	r2, #255	; 0xff
 8000126:	0209      	lsls	r1, r1, #8
 8000128:	ba12      	rev	r2, r2
 800012a:	0c03      	lsrs	r3, r0, #16
 800012c:	428b      	cmp	r3, r1
 800012e:	d302      	bcc.n	8000136 <__udivsi3+0x32>
 8000130:	1212      	asrs	r2, r2, #8
 8000132:	0209      	lsls	r1, r1, #8
 8000134:	d065      	beq.n	8000202 <__udivsi3+0xfe>
 8000136:	0b03      	lsrs	r3, r0, #12
 8000138:	428b      	cmp	r3, r1
 800013a:	d319      	bcc.n	8000170 <__udivsi3+0x6c>
 800013c:	e000      	b.n	8000140 <__udivsi3+0x3c>
 800013e:	0a09      	lsrs	r1, r1, #8
 8000140:	0bc3      	lsrs	r3, r0, #15
 8000142:	428b      	cmp	r3, r1
 8000144:	d301      	bcc.n	800014a <__udivsi3+0x46>
 8000146:	03cb      	lsls	r3, r1, #15
 8000148:	1ac0      	subs	r0, r0, r3
 800014a:	4152      	adcs	r2, r2
 800014c:	0b83      	lsrs	r3, r0, #14
 800014e:	428b      	cmp	r3, r1
 8000150:	d301      	bcc.n	8000156 <__udivsi3+0x52>
 8000152:	038b      	lsls	r3, r1, #14
 8000154:	1ac0      	subs	r0, r0, r3
 8000156:	4152      	adcs	r2, r2
 8000158:	0b43      	lsrs	r3, r0, #13
 800015a:	428b      	cmp	r3, r1
 800015c:	d301      	bcc.n	8000162 <__udivsi3+0x5e>
 800015e:	034b      	lsls	r3, r1, #13
 8000160:	1ac0      	subs	r0, r0, r3
 8000162:	4152      	adcs	r2, r2
 8000164:	0b03      	lsrs	r3, r0, #12
 8000166:	428b      	cmp	r3, r1
 8000168:	d301      	bcc.n	800016e <__udivsi3+0x6a>
 800016a:	030b      	lsls	r3, r1, #12
 800016c:	1ac0      	subs	r0, r0, r3
 800016e:	4152      	adcs	r2, r2
 8000170:	0ac3      	lsrs	r3, r0, #11
 8000172:	428b      	cmp	r3, r1
 8000174:	d301      	bcc.n	800017a <__udivsi3+0x76>
 8000176:	02cb      	lsls	r3, r1, #11
 8000178:	1ac0      	subs	r0, r0, r3
 800017a:	4152      	adcs	r2, r2
 800017c:	0a83      	lsrs	r3, r0, #10
 800017e:	428b      	cmp	r3, r1
 8000180:	d301      	bcc.n	8000186 <__udivsi3+0x82>
 8000182:	028b      	lsls	r3, r1, #10
 8000184:	1ac0      	subs	r0, r0, r3
 8000186:	4152      	adcs	r2, r2
 8000188:	0a43      	lsrs	r3, r0, #9
 800018a:	428b      	cmp	r3, r1
 800018c:	d301      	bcc.n	8000192 <__udivsi3+0x8e>
 800018e:	024b      	lsls	r3, r1, #9
 8000190:	1ac0      	subs	r0, r0, r3
 8000192:	4152      	adcs	r2, r2
 8000194:	0a03      	lsrs	r3, r0, #8
 8000196:	428b      	cmp	r3, r1
 8000198:	d301      	bcc.n	800019e <__udivsi3+0x9a>
 800019a:	020b      	lsls	r3, r1, #8
 800019c:	1ac0      	subs	r0, r0, r3
 800019e:	4152      	adcs	r2, r2
 80001a0:	d2cd      	bcs.n	800013e <__udivsi3+0x3a>
 80001a2:	09c3      	lsrs	r3, r0, #7
 80001a4:	428b      	cmp	r3, r1
 80001a6:	d301      	bcc.n	80001ac <__udivsi3+0xa8>
 80001a8:	01cb      	lsls	r3, r1, #7
 80001aa:	1ac0      	subs	r0, r0, r3
 80001ac:	4152      	adcs	r2, r2
 80001ae:	0983      	lsrs	r3, r0, #6
 80001b0:	428b      	cmp	r3, r1
 80001b2:	d301      	bcc.n	80001b8 <__udivsi3+0xb4>
 80001b4:	018b      	lsls	r3, r1, #6
 80001b6:	1ac0      	subs	r0, r0, r3
 80001b8:	4152      	adcs	r2, r2
 80001ba:	0943      	lsrs	r3, r0, #5
 80001bc:	428b      	cmp	r3, r1
 80001be:	d301      	bcc.n	80001c4 <__udivsi3+0xc0>
 80001c0:	014b      	lsls	r3, r1, #5
 80001c2:	1ac0      	subs	r0, r0, r3
 80001c4:	4152      	adcs	r2, r2
 80001c6:	0903      	lsrs	r3, r0, #4
 80001c8:	428b      	cmp	r3, r1
 80001ca:	d301      	bcc.n	80001d0 <__udivsi3+0xcc>
 80001cc:	010b      	lsls	r3, r1, #4
 80001ce:	1ac0      	subs	r0, r0, r3
 80001d0:	4152      	adcs	r2, r2
 80001d2:	08c3      	lsrs	r3, r0, #3
 80001d4:	428b      	cmp	r3, r1
 80001d6:	d301      	bcc.n	80001dc <__udivsi3+0xd8>
 80001d8:	00cb      	lsls	r3, r1, #3
 80001da:	1ac0      	subs	r0, r0, r3
 80001dc:	4152      	adcs	r2, r2
 80001de:	0883      	lsrs	r3, r0, #2
 80001e0:	428b      	cmp	r3, r1
 80001e2:	d301      	bcc.n	80001e8 <__udivsi3+0xe4>
 80001e4:	008b      	lsls	r3, r1, #2
 80001e6:	1ac0      	subs	r0, r0, r3
 80001e8:	4152      	adcs	r2, r2
 80001ea:	0843      	lsrs	r3, r0, #1
 80001ec:	428b      	cmp	r3, r1
 80001ee:	d301      	bcc.n	80001f4 <__udivsi3+0xf0>
 80001f0:	004b      	lsls	r3, r1, #1
 80001f2:	1ac0      	subs	r0, r0, r3
 80001f4:	4152      	adcs	r2, r2
 80001f6:	1a41      	subs	r1, r0, r1
 80001f8:	d200      	bcs.n	80001fc <__udivsi3+0xf8>
 80001fa:	4601      	mov	r1, r0
 80001fc:	4152      	adcs	r2, r2
 80001fe:	4610      	mov	r0, r2
 8000200:	4770      	bx	lr
 8000202:	e7ff      	b.n	8000204 <__udivsi3+0x100>
 8000204:	b501      	push	{r0, lr}
 8000206:	2000      	movs	r0, #0
 8000208:	f000 f8f0 	bl	80003ec <__aeabi_idiv0>
 800020c:	bd02      	pop	{r1, pc}
 800020e:	46c0      	nop			; (mov r8, r8)

08000210 <__aeabi_uidivmod>:
 8000210:	2900      	cmp	r1, #0
 8000212:	d0f7      	beq.n	8000204 <__udivsi3+0x100>
 8000214:	e776      	b.n	8000104 <__udivsi3>
 8000216:	4770      	bx	lr

08000218 <__divsi3>:
 8000218:	4603      	mov	r3, r0
 800021a:	430b      	orrs	r3, r1
 800021c:	d47f      	bmi.n	800031e <__divsi3+0x106>
 800021e:	2200      	movs	r2, #0
 8000220:	0843      	lsrs	r3, r0, #1
 8000222:	428b      	cmp	r3, r1
 8000224:	d374      	bcc.n	8000310 <__divsi3+0xf8>
 8000226:	0903      	lsrs	r3, r0, #4
 8000228:	428b      	cmp	r3, r1
 800022a:	d35f      	bcc.n	80002ec <__divsi3+0xd4>
 800022c:	0a03      	lsrs	r3, r0, #8
 800022e:	428b      	cmp	r3, r1
 8000230:	d344      	bcc.n	80002bc <__divsi3+0xa4>
 8000232:	0b03      	lsrs	r3, r0, #12
 8000234:	428b      	cmp	r3, r1
 8000236:	d328      	bcc.n	800028a <__divsi3+0x72>
 8000238:	0c03      	lsrs	r3, r0, #16
 800023a:	428b      	cmp	r3, r1
 800023c:	d30d      	bcc.n	800025a <__divsi3+0x42>
 800023e:	22ff      	movs	r2, #255	; 0xff
 8000240:	0209      	lsls	r1, r1, #8
 8000242:	ba12      	rev	r2, r2
 8000244:	0c03      	lsrs	r3, r0, #16
 8000246:	428b      	cmp	r3, r1
 8000248:	d302      	bcc.n	8000250 <__divsi3+0x38>
 800024a:	1212      	asrs	r2, r2, #8
 800024c:	0209      	lsls	r1, r1, #8
 800024e:	d065      	beq.n	800031c <__divsi3+0x104>
 8000250:	0b03      	lsrs	r3, r0, #12
 8000252:	428b      	cmp	r3, r1
 8000254:	d319      	bcc.n	800028a <__divsi3+0x72>
 8000256:	e000      	b.n	800025a <__divsi3+0x42>
 8000258:	0a09      	lsrs	r1, r1, #8
 800025a:	0bc3      	lsrs	r3, r0, #15
 800025c:	428b      	cmp	r3, r1
 800025e:	d301      	bcc.n	8000264 <__divsi3+0x4c>
 8000260:	03cb      	lsls	r3, r1, #15
 8000262:	1ac0      	subs	r0, r0, r3
 8000264:	4152      	adcs	r2, r2
 8000266:	0b83      	lsrs	r3, r0, #14
 8000268:	428b      	cmp	r3, r1
 800026a:	d301      	bcc.n	8000270 <__divsi3+0x58>
 800026c:	038b      	lsls	r3, r1, #14
 800026e:	1ac0      	subs	r0, r0, r3
 8000270:	4152      	adcs	r2, r2
 8000272:	0b43      	lsrs	r3, r0, #13
 8000274:	428b      	cmp	r3, r1
 8000276:	d301      	bcc.n	800027c <__divsi3+0x64>
 8000278:	034b      	lsls	r3, r1, #13
 800027a:	1ac0      	subs	r0, r0, r3
 800027c:	4152      	adcs	r2, r2
 800027e:	0b03      	lsrs	r3, r0, #12
 8000280:	428b      	cmp	r3, r1
 8000282:	d301      	bcc.n	8000288 <__divsi3+0x70>
 8000284:	030b      	lsls	r3, r1, #12
 8000286:	1ac0      	subs	r0, r0, r3
 8000288:	4152      	adcs	r2, r2
 800028a:	0ac3      	lsrs	r3, r0, #11
 800028c:	428b      	cmp	r3, r1
 800028e:	d301      	bcc.n	8000294 <__divsi3+0x7c>
 8000290:	02cb      	lsls	r3, r1, #11
 8000292:	1ac0      	subs	r0, r0, r3
 8000294:	4152      	adcs	r2, r2
 8000296:	0a83      	lsrs	r3, r0, #10
 8000298:	428b      	cmp	r3, r1
 800029a:	d301      	bcc.n	80002a0 <__divsi3+0x88>
 800029c:	028b      	lsls	r3, r1, #10
 800029e:	1ac0      	subs	r0, r0, r3
 80002a0:	4152      	adcs	r2, r2
 80002a2:	0a43      	lsrs	r3, r0, #9
 80002a4:	428b      	cmp	r3, r1
 80002a6:	d301      	bcc.n	80002ac <__divsi3+0x94>
 80002a8:	024b      	lsls	r3, r1, #9
 80002aa:	1ac0      	subs	r0, r0, r3
 80002ac:	4152      	adcs	r2, r2
 80002ae:	0a03      	lsrs	r3, r0, #8
 80002b0:	428b      	cmp	r3, r1
 80002b2:	d301      	bcc.n	80002b8 <__divsi3+0xa0>
 80002b4:	020b      	lsls	r3, r1, #8
 80002b6:	1ac0      	subs	r0, r0, r3
 80002b8:	4152      	adcs	r2, r2
 80002ba:	d2cd      	bcs.n	8000258 <__divsi3+0x40>
 80002bc:	09c3      	lsrs	r3, r0, #7
 80002be:	428b      	cmp	r3, r1
 80002c0:	d301      	bcc.n	80002c6 <__divsi3+0xae>
 80002c2:	01cb      	lsls	r3, r1, #7
 80002c4:	1ac0      	subs	r0, r0, r3
 80002c6:	4152      	adcs	r2, r2
 80002c8:	0983      	lsrs	r3, r0, #6
 80002ca:	428b      	cmp	r3, r1
 80002cc:	d301      	bcc.n	80002d2 <__divsi3+0xba>
 80002ce:	018b      	lsls	r3, r1, #6
 80002d0:	1ac0      	subs	r0, r0, r3
 80002d2:	4152      	adcs	r2, r2
 80002d4:	0943      	lsrs	r3, r0, #5
 80002d6:	428b      	cmp	r3, r1
 80002d8:	d301      	bcc.n	80002de <__divsi3+0xc6>
 80002da:	014b      	lsls	r3, r1, #5
 80002dc:	1ac0      	subs	r0, r0, r3
 80002de:	4152      	adcs	r2, r2
 80002e0:	0903      	lsrs	r3, r0, #4
 80002e2:	428b      	cmp	r3, r1
 80002e4:	d301      	bcc.n	80002ea <__divsi3+0xd2>
 80002e6:	010b      	lsls	r3, r1, #4
 80002e8:	1ac0      	subs	r0, r0, r3
 80002ea:	4152      	adcs	r2, r2
 80002ec:	08c3      	lsrs	r3, r0, #3
 80002ee:	428b      	cmp	r3, r1
 80002f0:	d301      	bcc.n	80002f6 <__divsi3+0xde>
 80002f2:	00cb      	lsls	r3, r1, #3
 80002f4:	1ac0      	subs	r0, r0, r3
 80002f6:	4152      	adcs	r2, r2
 80002f8:	0883      	lsrs	r3, r0, #2
 80002fa:	428b      	cmp	r3, r1
 80002fc:	d301      	bcc.n	8000302 <__divsi3+0xea>
 80002fe:	008b      	lsls	r3, r1, #2
 8000300:	1ac0      	subs	r0, r0, r3
 8000302:	4152      	adcs	r2, r2
 8000304:	0843      	lsrs	r3, r0, #1
 8000306:	428b      	cmp	r3, r1
 8000308:	d301      	bcc.n	800030e <__divsi3+0xf6>
 800030a:	004b      	lsls	r3, r1, #1
 800030c:	1ac0      	subs	r0, r0, r3
 800030e:	4152      	adcs	r2, r2
 8000310:	1a41      	subs	r1, r0, r1
 8000312:	d200      	bcs.n	8000316 <__divsi3+0xfe>
 8000314:	4601      	mov	r1, r0
 8000316:	4152      	adcs	r2, r2
 8000318:	4610      	mov	r0, r2
 800031a:	4770      	bx	lr
 800031c:	e05d      	b.n	80003da <__divsi3+0x1c2>
 800031e:	0fca      	lsrs	r2, r1, #31
 8000320:	d000      	beq.n	8000324 <__divsi3+0x10c>
 8000322:	4249      	negs	r1, r1
 8000324:	1003      	asrs	r3, r0, #32
 8000326:	d300      	bcc.n	800032a <__divsi3+0x112>
 8000328:	4240      	negs	r0, r0
 800032a:	4053      	eors	r3, r2
 800032c:	2200      	movs	r2, #0
 800032e:	469c      	mov	ip, r3
 8000330:	0903      	lsrs	r3, r0, #4
 8000332:	428b      	cmp	r3, r1
 8000334:	d32d      	bcc.n	8000392 <__divsi3+0x17a>
 8000336:	0a03      	lsrs	r3, r0, #8
 8000338:	428b      	cmp	r3, r1
 800033a:	d312      	bcc.n	8000362 <__divsi3+0x14a>
 800033c:	22fc      	movs	r2, #252	; 0xfc
 800033e:	0189      	lsls	r1, r1, #6
 8000340:	ba12      	rev	r2, r2
 8000342:	0a03      	lsrs	r3, r0, #8
 8000344:	428b      	cmp	r3, r1
 8000346:	d30c      	bcc.n	8000362 <__divsi3+0x14a>
 8000348:	0189      	lsls	r1, r1, #6
 800034a:	1192      	asrs	r2, r2, #6
 800034c:	428b      	cmp	r3, r1
 800034e:	d308      	bcc.n	8000362 <__divsi3+0x14a>
 8000350:	0189      	lsls	r1, r1, #6
 8000352:	1192      	asrs	r2, r2, #6
 8000354:	428b      	cmp	r3, r1
 8000356:	d304      	bcc.n	8000362 <__divsi3+0x14a>
 8000358:	0189      	lsls	r1, r1, #6
 800035a:	d03a      	beq.n	80003d2 <__divsi3+0x1ba>
 800035c:	1192      	asrs	r2, r2, #6
 800035e:	e000      	b.n	8000362 <__divsi3+0x14a>
 8000360:	0989      	lsrs	r1, r1, #6
 8000362:	09c3      	lsrs	r3, r0, #7
 8000364:	428b      	cmp	r3, r1
 8000366:	d301      	bcc.n	800036c <__divsi3+0x154>
 8000368:	01cb      	lsls	r3, r1, #7
 800036a:	1ac0      	subs	r0, r0, r3
 800036c:	4152      	adcs	r2, r2
 800036e:	0983      	lsrs	r3, r0, #6
 8000370:	428b      	cmp	r3, r1
 8000372:	d301      	bcc.n	8000378 <__divsi3+0x160>
 8000374:	018b      	lsls	r3, r1, #6
 8000376:	1ac0      	subs	r0, r0, r3
 8000378:	4152      	adcs	r2, r2
 800037a:	0943      	lsrs	r3, r0, #5
 800037c:	428b      	cmp	r3, r1
 800037e:	d301      	bcc.n	8000384 <__divsi3+0x16c>
 8000380:	014b      	lsls	r3, r1, #5
 8000382:	1ac0      	subs	r0, r0, r3
 8000384:	4152      	adcs	r2, r2
 8000386:	0903      	lsrs	r3, r0, #4
 8000388:	428b      	cmp	r3, r1
 800038a:	d301      	bcc.n	8000390 <__divsi3+0x178>
 800038c:	010b      	lsls	r3, r1, #4
 800038e:	1ac0      	subs	r0, r0, r3
 8000390:	4152      	adcs	r2, r2
 8000392:	08c3      	lsrs	r3, r0, #3
 8000394:	428b      	cmp	r3, r1
 8000396:	d301      	bcc.n	800039c <__divsi3+0x184>
 8000398:	00cb      	lsls	r3, r1, #3
 800039a:	1ac0      	subs	r0, r0, r3
 800039c:	4152      	adcs	r2, r2
 800039e:	0883      	lsrs	r3, r0, #2
 80003a0:	428b      	cmp	r3, r1
 80003a2:	d301      	bcc.n	80003a8 <__divsi3+0x190>
 80003a4:	008b      	lsls	r3, r1, #2
 80003a6:	1ac0      	subs	r0, r0, r3
 80003a8:	4152      	adcs	r2, r2
 80003aa:	d2d9      	bcs.n	8000360 <__divsi3+0x148>
 80003ac:	0843      	lsrs	r3, r0, #1
 80003ae:	428b      	cmp	r3, r1
 80003b0:	d301      	bcc.n	80003b6 <__divsi3+0x19e>
 80003b2:	004b      	lsls	r3, r1, #1
 80003b4:	1ac0      	subs	r0, r0, r3
 80003b6:	4152      	adcs	r2, r2
 80003b8:	1a41      	subs	r1, r0, r1
 80003ba:	d200      	bcs.n	80003be <__divsi3+0x1a6>
 80003bc:	4601      	mov	r1, r0
 80003be:	4663      	mov	r3, ip
 80003c0:	4152      	adcs	r2, r2
 80003c2:	105b      	asrs	r3, r3, #1
 80003c4:	4610      	mov	r0, r2
 80003c6:	d301      	bcc.n	80003cc <__divsi3+0x1b4>
 80003c8:	4240      	negs	r0, r0
 80003ca:	2b00      	cmp	r3, #0
 80003cc:	d500      	bpl.n	80003d0 <__divsi3+0x1b8>
 80003ce:	4249      	negs	r1, r1
 80003d0:	4770      	bx	lr
 80003d2:	4663      	mov	r3, ip
 80003d4:	105b      	asrs	r3, r3, #1
 80003d6:	d300      	bcc.n	80003da <__divsi3+0x1c2>
 80003d8:	4240      	negs	r0, r0
 80003da:	b501      	push	{r0, lr}
 80003dc:	2000      	movs	r0, #0
 80003de:	f000 f805 	bl	80003ec <__aeabi_idiv0>
 80003e2:	bd02      	pop	{r1, pc}

080003e4 <__aeabi_idivmod>:
 80003e4:	2900      	cmp	r1, #0
 80003e6:	d0f8      	beq.n	80003da <__divsi3+0x1c2>
 80003e8:	e716      	b.n	8000218 <__divsi3>
 80003ea:	4770      	bx	lr

080003ec <__aeabi_idiv0>:
 80003ec:	4770      	bx	lr
 80003ee:	46c0      	nop			; (mov r8, r8)

080003f0 <__aeabi_uldivmod>:
 80003f0:	2b00      	cmp	r3, #0
 80003f2:	d111      	bne.n	8000418 <__aeabi_uldivmod+0x28>
 80003f4:	2a00      	cmp	r2, #0
 80003f6:	d10f      	bne.n	8000418 <__aeabi_uldivmod+0x28>
 80003f8:	2900      	cmp	r1, #0
 80003fa:	d100      	bne.n	80003fe <__aeabi_uldivmod+0xe>
 80003fc:	2800      	cmp	r0, #0
 80003fe:	d002      	beq.n	8000406 <__aeabi_uldivmod+0x16>
 8000400:	2100      	movs	r1, #0
 8000402:	43c9      	mvns	r1, r1
 8000404:	0008      	movs	r0, r1
 8000406:	b407      	push	{r0, r1, r2}
 8000408:	4802      	ldr	r0, [pc, #8]	; (8000414 <__aeabi_uldivmod+0x24>)
 800040a:	a102      	add	r1, pc, #8	; (adr r1, 8000414 <__aeabi_uldivmod+0x24>)
 800040c:	1840      	adds	r0, r0, r1
 800040e:	9002      	str	r0, [sp, #8]
 8000410:	bd03      	pop	{r0, r1, pc}
 8000412:	46c0      	nop			; (mov r8, r8)
 8000414:	ffffffd9 	.word	0xffffffd9
 8000418:	b403      	push	{r0, r1}
 800041a:	4668      	mov	r0, sp
 800041c:	b501      	push	{r0, lr}
 800041e:	9802      	ldr	r0, [sp, #8]
 8000420:	f000 f806 	bl	8000430 <__udivmoddi4>
 8000424:	9b01      	ldr	r3, [sp, #4]
 8000426:	469e      	mov	lr, r3
 8000428:	b002      	add	sp, #8
 800042a:	bc0c      	pop	{r2, r3}
 800042c:	4770      	bx	lr
 800042e:	46c0      	nop			; (mov r8, r8)

08000430 <__udivmoddi4>:
 8000430:	b5f0      	push	{r4, r5, r6, r7, lr}
 8000432:	4657      	mov	r7, sl
 8000434:	464e      	mov	r6, r9
 8000436:	4645      	mov	r5, r8
 8000438:	46de      	mov	lr, fp
 800043a:	b5e0      	push	{r5, r6, r7, lr}
 800043c:	0004      	movs	r4, r0
 800043e:	000d      	movs	r5, r1
 8000440:	4692      	mov	sl, r2
 8000442:	4699      	mov	r9, r3
 8000444:	b083      	sub	sp, #12
 8000446:	428b      	cmp	r3, r1
 8000448:	d830      	bhi.n	80004ac <__udivmoddi4+0x7c>
 800044a:	d02d      	beq.n	80004a8 <__udivmoddi4+0x78>
 800044c:	4649      	mov	r1, r9
 800044e:	4650      	mov	r0, sl
 8000450:	f000 f8d8 	bl	8000604 <__clzdi2>
 8000454:	0029      	movs	r1, r5
 8000456:	0006      	movs	r6, r0
 8000458:	0020      	movs	r0, r4
 800045a:	f000 f8d3 	bl	8000604 <__clzdi2>
 800045e:	1a33      	subs	r3, r6, r0
 8000460:	4698      	mov	r8, r3
 8000462:	3b20      	subs	r3, #32
 8000464:	d434      	bmi.n	80004d0 <__udivmoddi4+0xa0>
 8000466:	469b      	mov	fp, r3
 8000468:	4653      	mov	r3, sl
 800046a:	465a      	mov	r2, fp
 800046c:	4093      	lsls	r3, r2
 800046e:	4642      	mov	r2, r8
 8000470:	001f      	movs	r7, r3
 8000472:	4653      	mov	r3, sl
 8000474:	4093      	lsls	r3, r2
 8000476:	001e      	movs	r6, r3
 8000478:	42af      	cmp	r7, r5
 800047a:	d83b      	bhi.n	80004f4 <__udivmoddi4+0xc4>
 800047c:	42af      	cmp	r7, r5
 800047e:	d100      	bne.n	8000482 <__udivmoddi4+0x52>
 8000480:	e079      	b.n	8000576 <__udivmoddi4+0x146>
 8000482:	465b      	mov	r3, fp
 8000484:	1ba4      	subs	r4, r4, r6
 8000486:	41bd      	sbcs	r5, r7
 8000488:	2b00      	cmp	r3, #0
 800048a:	da00      	bge.n	800048e <__udivmoddi4+0x5e>
 800048c:	e076      	b.n	800057c <__udivmoddi4+0x14c>
 800048e:	2200      	movs	r2, #0
 8000490:	2300      	movs	r3, #0
 8000492:	9200      	str	r2, [sp, #0]
 8000494:	9301      	str	r3, [sp, #4]
 8000496:	2301      	movs	r3, #1
 8000498:	465a      	mov	r2, fp
 800049a:	4093      	lsls	r3, r2
 800049c:	9301      	str	r3, [sp, #4]
 800049e:	2301      	movs	r3, #1
 80004a0:	4642      	mov	r2, r8
 80004a2:	4093      	lsls	r3, r2
 80004a4:	9300      	str	r3, [sp, #0]
 80004a6:	e029      	b.n	80004fc <__udivmoddi4+0xcc>
 80004a8:	4282      	cmp	r2, r0
 80004aa:	d9cf      	bls.n	800044c <__udivmoddi4+0x1c>
 80004ac:	2200      	movs	r2, #0
 80004ae:	2300      	movs	r3, #0
 80004b0:	9200      	str	r2, [sp, #0]
 80004b2:	9301      	str	r3, [sp, #4]
 80004b4:	9b0c      	ldr	r3, [sp, #48]	; 0x30
 80004b6:	2b00      	cmp	r3, #0
 80004b8:	d001      	beq.n	80004be <__udivmoddi4+0x8e>
 80004ba:	601c      	str	r4, [r3, #0]
 80004bc:	605d      	str	r5, [r3, #4]
 80004be:	9800      	ldr	r0, [sp, #0]
 80004c0:	9901      	ldr	r1, [sp, #4]
 80004c2:	b003      	add	sp, #12
 80004c4:	bcf0      	pop	{r4, r5, r6, r7}
 80004c6:	46bb      	mov	fp, r7
 80004c8:	46b2      	mov	sl, r6
 80004ca:	46a9      	mov	r9, r5
 80004cc:	46a0      	mov	r8, r4
 80004ce:	bdf0      	pop	{r4, r5, r6, r7, pc}
 80004d0:	4642      	mov	r2, r8
 80004d2:	469b      	mov	fp, r3
 80004d4:	2320      	movs	r3, #32
 80004d6:	1a9b      	subs	r3, r3, r2
 80004d8:	4652      	mov	r2, sl
 80004da:	40da      	lsrs	r2, r3
 80004dc:	4641      	mov	r1, r8
 80004de:	0013      	movs	r3, r2
 80004e0:	464a      	mov	r2, r9
 80004e2:	408a      	lsls	r2, r1
 80004e4:	0017      	movs	r7, r2
 80004e6:	4642      	mov	r2, r8
 80004e8:	431f      	orrs	r7, r3
 80004ea:	4653      	mov	r3, sl
 80004ec:	4093      	lsls	r3, r2
 80004ee:	001e      	movs	r6, r3
 80004f0:	42af      	cmp	r7, r5
 80004f2:	d9c3      	bls.n	800047c <__udivmoddi4+0x4c>
 80004f4:	2200      	movs	r2, #0
 80004f6:	2300      	movs	r3, #0
 80004f8:	9200      	str	r2, [sp, #0]
 80004fa:	9301      	str	r3, [sp, #4]
 80004fc:	4643      	mov	r3, r8
 80004fe:	2b00      	cmp	r3, #0
 8000500:	d0d8      	beq.n	80004b4 <__udivmoddi4+0x84>
 8000502:	07fb      	lsls	r3, r7, #31
 8000504:	0872      	lsrs	r2, r6, #1
 8000506:	431a      	orrs	r2, r3
 8000508:	4646      	mov	r6, r8
 800050a:	087b      	lsrs	r3, r7, #1
 800050c:	e00e      	b.n	800052c <__udivmoddi4+0xfc>
 800050e:	42ab      	cmp	r3, r5
 8000510:	d101      	bne.n	8000516 <__udivmoddi4+0xe6>
 8000512:	42a2      	cmp	r2, r4
 8000514:	d80c      	bhi.n	8000530 <__udivmoddi4+0x100>
 8000516:	1aa4      	subs	r4, r4, r2
 8000518:	419d      	sbcs	r5, r3
 800051a:	2001      	movs	r0, #1
 800051c:	1924      	adds	r4, r4, r4
 800051e:	416d      	adcs	r5, r5
 8000520:	2100      	movs	r1, #0
 8000522:	3e01      	subs	r6, #1
 8000524:	1824      	adds	r4, r4, r0
 8000526:	414d      	adcs	r5, r1
 8000528:	2e00      	cmp	r6, #0
 800052a:	d006      	beq.n	800053a <__udivmoddi4+0x10a>
 800052c:	42ab      	cmp	r3, r5
 800052e:	d9ee      	bls.n	800050e <__udivmoddi4+0xde>
 8000530:	3e01      	subs	r6, #1
 8000532:	1924      	adds	r4, r4, r4
 8000534:	416d      	adcs	r5, r5
 8000536:	2e00      	cmp	r6, #0
 8000538:	d1f8      	bne.n	800052c <__udivmoddi4+0xfc>
 800053a:	9800      	ldr	r0, [sp, #0]
 800053c:	9901      	ldr	r1, [sp, #4]
 800053e:	465b      	mov	r3, fp
 8000540:	1900      	adds	r0, r0, r4
 8000542:	4169      	adcs	r1, r5
 8000544:	2b00      	cmp	r3, #0
 8000546:	db24      	blt.n	8000592 <__udivmoddi4+0x162>
 8000548:	002b      	movs	r3, r5
 800054a:	465a      	mov	r2, fp
 800054c:	4644      	mov	r4, r8
 800054e:	40d3      	lsrs	r3, r2
 8000550:	002a      	movs	r2, r5
 8000552:	40e2      	lsrs	r2, r4
 8000554:	001c      	movs	r4, r3
 8000556:	465b      	mov	r3, fp
 8000558:	0015      	movs	r5, r2
 800055a:	2b00      	cmp	r3, #0
 800055c:	db2a      	blt.n	80005b4 <__udivmoddi4+0x184>
 800055e:	0026      	movs	r6, r4
 8000560:	409e      	lsls	r6, r3
 8000562:	0033      	movs	r3, r6
 8000564:	0026      	movs	r6, r4
 8000566:	4647      	mov	r7, r8
 8000568:	40be      	lsls	r6, r7
 800056a:	0032      	movs	r2, r6
 800056c:	1a80      	subs	r0, r0, r2
 800056e:	4199      	sbcs	r1, r3
 8000570:	9000      	str	r0, [sp, #0]
 8000572:	9101      	str	r1, [sp, #4]
 8000574:	e79e      	b.n	80004b4 <__udivmoddi4+0x84>
 8000576:	42a3      	cmp	r3, r4
 8000578:	d8bc      	bhi.n	80004f4 <__udivmoddi4+0xc4>
 800057a:	e782      	b.n	8000482 <__udivmoddi4+0x52>
 800057c:	4642      	mov	r2, r8
 800057e:	2320      	movs	r3, #32
 8000580:	2100      	movs	r1, #0
 8000582:	1a9b      	subs	r3, r3, r2
 8000584:	2200      	movs	r2, #0
 8000586:	9100      	str	r1, [sp, #0]
 8000588:	9201      	str	r2, [sp, #4]
 800058a:	2201      	movs	r2, #1
 800058c:	40da      	lsrs	r2, r3
 800058e:	9201      	str	r2, [sp, #4]
 8000590:	e785      	b.n	800049e <__udivmoddi4+0x6e>
 8000592:	4642      	mov	r2, r8
 8000594:	2320      	movs	r3, #32
 8000596:	1a9b      	subs	r3, r3, r2
 8000598:	002a      	movs	r2, r5
 800059a:	4646      	mov	r6, r8
 800059c:	409a      	lsls	r2, r3
 800059e:	0023      	movs	r3, r4
 80005a0:	40f3      	lsrs	r3, r6
 80005a2:	4644      	mov	r4, r8
 80005a4:	4313      	orrs	r3, r2
 80005a6:	002a      	movs	r2, r5
 80005a8:	40e2      	lsrs	r2, r4
 80005aa:	001c      	movs	r4, r3
 80005ac:	465b      	mov	r3, fp
 80005ae:	0015      	movs	r5, r2
 80005b0:	2b00      	cmp	r3, #0
 80005b2:	dad4      	bge.n	800055e <__udivmoddi4+0x12e>
 80005b4:	4642      	mov	r2, r8
 80005b6:	002f      	movs	r7, r5
 80005b8:	2320      	movs	r3, #32
 80005ba:	0026      	movs	r6, r4
 80005bc:	4097      	lsls	r7, r2
 80005be:	1a9b      	subs	r3, r3, r2
 80005c0:	40de      	lsrs	r6, r3
 80005c2:	003b      	movs	r3, r7
 80005c4:	4333      	orrs	r3, r6
 80005c6:	e7cd      	b.n	8000564 <__udivmoddi4+0x134>

080005c8 <__clzsi2>:
 80005c8:	211c      	movs	r1, #28
 80005ca:	2301      	movs	r3, #1
 80005cc:	041b      	lsls	r3, r3, #16
 80005ce:	4298      	cmp	r0, r3
 80005d0:	d301      	bcc.n	80005d6 <__clzsi2+0xe>
 80005d2:	0c00      	lsrs	r0, r0, #16
 80005d4:	3910      	subs	r1, #16
 80005d6:	0a1b      	lsrs	r3, r3, #8
 80005d8:	4298      	cmp	r0, r3
 80005da:	d301      	bcc.n	80005e0 <__clzsi2+0x18>
 80005dc:	0a00      	lsrs	r0, r0, #8
 80005de:	3908      	subs	r1, #8
 80005e0:	091b      	lsrs	r3, r3, #4
 80005e2:	4298      	cmp	r0, r3
 80005e4:	d301      	bcc.n	80005ea <__clzsi2+0x22>
 80005e6:	0900      	lsrs	r0, r0, #4
 80005e8:	3904      	subs	r1, #4
 80005ea:	a202      	add	r2, pc, #8	; (adr r2, 80005f4 <__clzsi2+0x2c>)
 80005ec:	5c10      	ldrb	r0, [r2, r0]
 80005ee:	1840      	adds	r0, r0, r1
 80005f0:	4770      	bx	lr
 80005f2:	46c0      	nop			; (mov r8, r8)
 80005f4:	02020304 	.word	0x02020304
 80005f8:	01010101 	.word	0x01010101
	...

08000604 <__clzdi2>:
 8000604:	b510      	push	{r4, lr}
 8000606:	2900      	cmp	r1, #0
 8000608:	d103      	bne.n	8000612 <__clzdi2+0xe>
 800060a:	f7ff ffdd 	bl	80005c8 <__clzsi2>
 800060e:	3020      	adds	r0, #32
 8000610:	e002      	b.n	8000618 <__clzdi2+0x14>
 8000612:	0008      	movs	r0, r1
 8000614:	f7ff ffd8 	bl	80005c8 <__clzsi2>
 8000618:	bd10      	pop	{r4, pc}
 800061a:	46c0      	nop			; (mov r8, r8)

0800061c <MC74HCT595A_init>:
// Will point to our light patterns. A byte is an 8-bit BINARY variable to match the 8 lights
uint8_t * registerPatterns;

void clearRegisters();
numbers_t segments[10];
void MC74HCT595A_init(){
 800061c:	b580      	push	{r7, lr}
 800061e:	b082      	sub	sp, #8
 8000620:	af00      	add	r7, sp, #0
    registerPatterns = malloc(REGISTERS * sizeof(uint8_t));
 8000622:	2002      	movs	r0, #2
 8000624:	f003 fdf8 	bl	8004218 <malloc>
 8000628:	0003      	movs	r3, r0
 800062a:	001a      	movs	r2, r3
 800062c:	4b3b      	ldr	r3, [pc, #236]	; (800071c <MC74HCT595A_init+0x100>)
 800062e:	601a      	str	r2, [r3, #0]
    registerPatterns[0] = 5;
 8000630:	4b3a      	ldr	r3, [pc, #232]	; (800071c <MC74HCT595A_init+0x100>)
 8000632:	681b      	ldr	r3, [r3, #0]
 8000634:	2205      	movs	r2, #5
 8000636:	701a      	strb	r2, [r3, #0]
    registerPatterns[1] = 6;
 8000638:	4b38      	ldr	r3, [pc, #224]	; (800071c <MC74HCT595A_init+0x100>)
 800063a:	681b      	ldr	r3, [r3, #0]
 800063c:	3301      	adds	r3, #1
 800063e:	2206      	movs	r2, #6
 8000640:	701a      	strb	r2, [r3, #0]
    for(size_t i = 0; i < 10; i++){
 8000642:	2300      	movs	r3, #0
 8000644:	607b      	str	r3, [r7, #4]
 8000646:	e061      	b.n	800070c <MC74HCT595A_init+0xf0>
        segments[i].number = i;
 8000648:	687b      	ldr	r3, [r7, #4]
 800064a:	b2d9      	uxtb	r1, r3
 800064c:	4b34      	ldr	r3, [pc, #208]	; (8000720 <MC74HCT595A_init+0x104>)
 800064e:	687a      	ldr	r2, [r7, #4]
 8000650:	0052      	lsls	r2, r2, #1
 8000652:	54d1      	strb	r1, [r2, r3]
        switch (i){
 8000654:	687b      	ldr	r3, [r7, #4]
 8000656:	2b09      	cmp	r3, #9
 8000658:	d855      	bhi.n	8000706 <MC74HCT595A_init+0xea>
 800065a:	687b      	ldr	r3, [r7, #4]
 800065c:	009a      	lsls	r2, r3, #2
 800065e:	4b31      	ldr	r3, [pc, #196]	; (8000724 <MC74HCT595A_init+0x108>)
 8000660:	18d3      	adds	r3, r2, r3
 8000662:	681b      	ldr	r3, [r3, #0]
 8000664:	469f      	mov	pc, r3
        case 0:
            segments[i].segments = 255 & (1 << SEG_G);
 8000666:	4a2e      	ldr	r2, [pc, #184]	; (8000720 <MC74HCT595A_init+0x104>)
 8000668:	687b      	ldr	r3, [r7, #4]
 800066a:	005b      	lsls	r3, r3, #1
 800066c:	18d3      	adds	r3, r2, r3
 800066e:	3301      	adds	r3, #1
 8000670:	2202      	movs	r2, #2
 8000672:	701a      	strb	r2, [r3, #0]
            break;
 8000674:	e047      	b.n	8000706 <MC74HCT595A_init+0xea>
        case 1:
            segments[i].segments =255 & ~((1 << SEG_B) | (1 << SEG_C));
 8000676:	4a2a      	ldr	r2, [pc, #168]	; (8000720 <MC74HCT595A_init+0x104>)
 8000678:	687b      	ldr	r3, [r7, #4]
 800067a:	005b      	lsls	r3, r3, #1
 800067c:	18d3      	adds	r3, r2, r3
 800067e:	3301      	adds	r3, #1
 8000680:	229f      	movs	r2, #159	; 0x9f
 8000682:	701a      	strb	r2, [r3, #0]
            break;
 8000684:	e03f      	b.n	8000706 <MC74HCT595A_init+0xea>
        case 2:
            segments[i].segments = 255 & ~ ((1 << SEG_A) | (1 << SEG_B) | (1 << SEG_G) | (1 << SEG_E) | (1 << SEG_D));
 8000686:	4a26      	ldr	r2, [pc, #152]	; (8000720 <MC74HCT595A_init+0x104>)
 8000688:	687b      	ldr	r3, [r7, #4]
 800068a:	005b      	lsls	r3, r3, #1
 800068c:	18d3      	adds	r3, r2, r3
 800068e:	3301      	adds	r3, #1
 8000690:	2225      	movs	r2, #37	; 0x25
 8000692:	701a      	strb	r2, [r3, #0]
            break;
 8000694:	e037      	b.n	8000706 <MC74HCT595A_init+0xea>
        case 3:
            segments[i].segments = 255 & ~ ((1 << SEG_A) | (1 << SEG_B) | (1 << SEG_G) | (1 << SEG_C) | (1 << SEG_D));
 8000696:	4a22      	ldr	r2, [pc, #136]	; (8000720 <MC74HCT595A_init+0x104>)
 8000698:	687b      	ldr	r3, [r7, #4]
 800069a:	005b      	lsls	r3, r3, #1
 800069c:	18d3      	adds	r3, r2, r3
 800069e:	3301      	adds	r3, #1
 80006a0:	220d      	movs	r2, #13
 80006a2:	701a      	strb	r2, [r3, #0]
            break;
 80006a4:	e02f      	b.n	8000706 <MC74HCT595A_init+0xea>
        case 4:
            segments[i].segments = 255 & ~ ((1 << SEG_F) | (1 << SEG_B) | (1 << SEG_G) | (1 << SEG_C));
 80006a6:	4a1e      	ldr	r2, [pc, #120]	; (8000720 <MC74HCT595A_init+0x104>)
 80006a8:	687b      	ldr	r3, [r7, #4]
 80006aa:	005b      	lsls	r3, r3, #1
 80006ac:	18d3      	adds	r3, r2, r3
 80006ae:	3301      	adds	r3, #1
 80006b0:	2299      	movs	r2, #153	; 0x99
 80006b2:	701a      	strb	r2, [r3, #0]
            break;
 80006b4:	e027      	b.n	8000706 <MC74HCT595A_init+0xea>
        case 5:
            segments[i].segments = 255 & ~ ((1 << SEG_A) | (1 << SEG_F) | (1 << SEG_G) | (1 << SEG_C) | (1 << SEG_D));
 80006b6:	4a1a      	ldr	r2, [pc, #104]	; (8000720 <MC74HCT595A_init+0x104>)
 80006b8:	687b      	ldr	r3, [r7, #4]
 80006ba:	005b      	lsls	r3, r3, #1
 80006bc:	18d3      	adds	r3, r2, r3
 80006be:	3301      	adds	r3, #1
 80006c0:	2249      	movs	r2, #73	; 0x49
 80006c2:	701a      	strb	r2, [r3, #0]
            break;
 80006c4:	e01f      	b.n	8000706 <MC74HCT595A_init+0xea>
        case 6:
            segments[i].segments = 255 & ~ ((1 << SEG_A) | (1 << SEG_F) | (1 << SEG_G) | (1 << SEG_C) | (1 << SEG_D) | (1 << SEG_E));
 80006c6:	4a16      	ldr	r2, [pc, #88]	; (8000720 <MC74HCT595A_init+0x104>)
 80006c8:	687b      	ldr	r3, [r7, #4]
 80006ca:	005b      	lsls	r3, r3, #1
 80006cc:	18d3      	adds	r3, r2, r3
 80006ce:	3301      	adds	r3, #1
 80006d0:	2241      	movs	r2, #65	; 0x41
 80006d2:	701a      	strb	r2, [r3, #0]
            break;
 80006d4:	e017      	b.n	8000706 <MC74HCT595A_init+0xea>
        case 7:
            segments[i].segments = 255 & ~ ((1 << SEG_A) | (1 << SEG_B) | (1 << SEG_C));
 80006d6:	4a12      	ldr	r2, [pc, #72]	; (8000720 <MC74HCT595A_init+0x104>)
 80006d8:	687b      	ldr	r3, [r7, #4]
 80006da:	005b      	lsls	r3, r3, #1
 80006dc:	18d3      	adds	r3, r2, r3
 80006de:	3301      	adds	r3, #1
 80006e0:	221f      	movs	r2, #31
 80006e2:	701a      	strb	r2, [r3, #0]
            break;
 80006e4:	e00f      	b.n	8000706 <MC74HCT595A_init+0xea>
        case 8:
            segments[i].segments = 0;
 80006e6:	4a0e      	ldr	r2, [pc, #56]	; (8000720 <MC74HCT595A_init+0x104>)
 80006e8:	687b      	ldr	r3, [r7, #4]
 80006ea:	005b      	lsls	r3, r3, #1
 80006ec:	18d3      	adds	r3, r2, r3
 80006ee:	3301      	adds	r3, #1
 80006f0:	2200      	movs	r2, #0
 80006f2:	701a      	strb	r2, [r3, #0]
            break;
 80006f4:	e007      	b.n	8000706 <MC74HCT595A_init+0xea>
        case 9:
            segments[i].segments = 255 & ~ ((1 << SEG_A) | (1 << SEG_B) | (1 << SEG_G) | (1 << SEG_C) | (1 << SEG_D) | (1 << SEG_F));
 80006f6:	4a0a      	ldr	r2, [pc, #40]	; (8000720 <MC74HCT595A_init+0x104>)
 80006f8:	687b      	ldr	r3, [r7, #4]
 80006fa:	005b      	lsls	r3, r3, #1
 80006fc:	18d3      	adds	r3, r2, r3
 80006fe:	3301      	adds	r3, #1
 8000700:	2209      	movs	r2, #9
 8000702:	701a      	strb	r2, [r3, #0]
            break;
 8000704:	46c0      	nop			; (mov r8, r8)
    for(size_t i = 0; i < 10; i++){
 8000706:	687b      	ldr	r3, [r7, #4]
 8000708:	3301      	adds	r3, #1
 800070a:	607b      	str	r3, [r7, #4]
 800070c:	687b      	ldr	r3, [r7, #4]
 800070e:	2b09      	cmp	r3, #9
 8000710:	d99a      	bls.n	8000648 <MC74HCT595A_init+0x2c>
        }
    }
}
 8000712:	46c0      	nop			; (mov r8, r8)
 8000714:	46c0      	nop			; (mov r8, r8)
 8000716:	46bd      	mov	sp, r7
 8000718:	b002      	add	sp, #8
 800071a:	bd80      	pop	{r7, pc}
 800071c:	20000078 	.word	0x20000078
 8000720:	2000007c 	.word	0x2000007c
 8000724:	08004438 	.word	0x08004438

08000728 <calc_segments>:
            else
                *pattern &= ~(1 << q); 
        }
    }
}
uint8_t calc_segments(uint8_t data){
 8000728:	b580      	push	{r7, lr}
 800072a:	b084      	sub	sp, #16
 800072c:	af00      	add	r7, sp, #0
 800072e:	0002      	movs	r2, r0
 8000730:	1dfb      	adds	r3, r7, #7
 8000732:	701a      	strb	r2, [r3, #0]
    uint8_t result = 0;
 8000734:	200f      	movs	r0, #15
 8000736:	183b      	adds	r3, r7, r0
 8000738:	2200      	movs	r2, #0
 800073a:	701a      	strb	r2, [r3, #0]
    result = segments[data].segments;
 800073c:	1dfb      	adds	r3, r7, #7
 800073e:	781a      	ldrb	r2, [r3, #0]
 8000740:	183b      	adds	r3, r7, r0
 8000742:	4906      	ldr	r1, [pc, #24]	; (800075c <calc_segments+0x34>)
 8000744:	0052      	lsls	r2, r2, #1
 8000746:	188a      	adds	r2, r1, r2
 8000748:	3201      	adds	r2, #1
 800074a:	7812      	ldrb	r2, [r2, #0]
 800074c:	701a      	strb	r2, [r3, #0]
    return result;
 800074e:	183b      	adds	r3, r7, r0
 8000750:	781b      	ldrb	r3, [r3, #0]
}
 8000752:	0018      	movs	r0, r3
 8000754:	46bd      	mov	sp, r7
 8000756:	b004      	add	sp, #16
 8000758:	bd80      	pop	{r7, pc}
 800075a:	46c0      	nop			; (mov r8, r8)
 800075c:	2000007c 	.word	0x2000007c

08000760 <MC74HCT595A_shiftOut>:
void MC74HCT595A_shiftOut(uint16_t data){
 8000760:	b5b0      	push	{r4, r5, r7, lr}
 8000762:	b086      	sub	sp, #24
 8000764:	af00      	add	r7, sp, #0
 8000766:	0002      	movs	r2, r0
 8000768:	1dbb      	adds	r3, r7, #6
 800076a:	801a      	strh	r2, [r3, #0]
	//clock PA8
	//LATch PB5
	//data pa9
    uint8_t temp; 
    uint16_t segm = 0;
 800076c:	230e      	movs	r3, #14
 800076e:	18fb      	adds	r3, r7, r3
 8000770:	2200      	movs	r2, #0
 8000772:	801a      	strh	r2, [r3, #0]
 
    uint16_t printofka;
    for(int i = 0;i<4;i++){
 8000774:	2300      	movs	r3, #0
 8000776:	617b      	str	r3, [r7, #20]
 8000778:	e080      	b.n	800087c <MC74HCT595A_shiftOut+0x11c>
    	HAL_GPIO_WritePin(GPIOB, GPIO_PIN_5, GPIO_PIN_RESET);
 800077a:	4b45      	ldr	r3, [pc, #276]	; (8000890 <MC74HCT595A_shiftOut+0x130>)
 800077c:	2200      	movs	r2, #0
 800077e:	2120      	movs	r1, #32
 8000780:	0018      	movs	r0, r3
 8000782:	f000 feed 	bl	8001560 <HAL_GPIO_WritePin>
       temp  = calc_segments(data%10);
 8000786:	1dbb      	adds	r3, r7, #6
 8000788:	881b      	ldrh	r3, [r3, #0]
 800078a:	210a      	movs	r1, #10
 800078c:	0018      	movs	r0, r3
 800078e:	f7ff fd3f 	bl	8000210 <__aeabi_uidivmod>
 8000792:	000b      	movs	r3, r1
 8000794:	b29b      	uxth	r3, r3
 8000796:	b2db      	uxtb	r3, r3
 8000798:	250d      	movs	r5, #13
 800079a:	197c      	adds	r4, r7, r5
 800079c:	0018      	movs	r0, r3
 800079e:	f7ff ffc3 	bl	8000728 <calc_segments>
 80007a2:	0003      	movs	r3, r0
 80007a4:	7023      	strb	r3, [r4, #0]
       data = data/10;
 80007a6:	1dbc      	adds	r4, r7, #6
 80007a8:	1dbb      	adds	r3, r7, #6
 80007aa:	881b      	ldrh	r3, [r3, #0]
 80007ac:	210a      	movs	r1, #10
 80007ae:	0018      	movs	r0, r3
 80007b0:	f7ff fca8 	bl	8000104 <__udivsi3>
 80007b4:	0003      	movs	r3, r0
 80007b6:	8023      	strh	r3, [r4, #0]
		segm = (1 << SEG_4+i);
 80007b8:	697b      	ldr	r3, [r7, #20]
 80007ba:	330c      	adds	r3, #12
 80007bc:	2201      	movs	r2, #1
 80007be:	409a      	lsls	r2, r3
 80007c0:	240e      	movs	r4, #14
 80007c2:	193b      	adds	r3, r7, r4
 80007c4:	801a      	strh	r2, [r3, #0]
       printofka = segm | temp;
 80007c6:	197b      	adds	r3, r7, r5
 80007c8:	781b      	ldrb	r3, [r3, #0]
 80007ca:	b299      	uxth	r1, r3
 80007cc:	200a      	movs	r0, #10
 80007ce:	183b      	adds	r3, r7, r0
 80007d0:	193a      	adds	r2, r7, r4
 80007d2:	8812      	ldrh	r2, [r2, #0]
 80007d4:	430a      	orrs	r2, r1
 80007d6:	801a      	strh	r2, [r3, #0]
       printofka |= 0b1;
 80007d8:	183b      	adds	r3, r7, r0
 80007da:	183a      	adds	r2, r7, r0
 80007dc:	8812      	ldrh	r2, [r2, #0]
 80007de:	2101      	movs	r1, #1
 80007e0:	430a      	orrs	r2, r1
 80007e2:	801a      	strh	r2, [r3, #0]
        for(int j = 0;j<16;j++){
 80007e4:	2300      	movs	r3, #0
 80007e6:	613b      	str	r3, [r7, #16]
 80007e8:	e03c      	b.n	8000864 <MC74HCT595A_shiftOut+0x104>
            if(printofka & (1 << j)){
 80007ea:	230a      	movs	r3, #10
 80007ec:	18fb      	adds	r3, r7, r3
 80007ee:	881a      	ldrh	r2, [r3, #0]
 80007f0:	693b      	ldr	r3, [r7, #16]
 80007f2:	411a      	asrs	r2, r3
 80007f4:	0013      	movs	r3, r2
 80007f6:	2201      	movs	r2, #1
 80007f8:	4013      	ands	r3, r2
 80007fa:	d018      	beq.n	800082e <MC74HCT595A_shiftOut+0xce>
                HAL_GPIO_TogglePin(GPIOA, GPIO_PIN_9);
 80007fc:	2380      	movs	r3, #128	; 0x80
 80007fe:	009a      	lsls	r2, r3, #2
 8000800:	23a0      	movs	r3, #160	; 0xa0
 8000802:	05db      	lsls	r3, r3, #23
 8000804:	0011      	movs	r1, r2
 8000806:	0018      	movs	r0, r3
 8000808:	f000 fec7 	bl	800159a <HAL_GPIO_TogglePin>
                HAL_GPIO_TogglePin(GPIOA, GPIO_PIN_8);
 800080c:	2380      	movs	r3, #128	; 0x80
 800080e:	005a      	lsls	r2, r3, #1
 8000810:	23a0      	movs	r3, #160	; 0xa0
 8000812:	05db      	lsls	r3, r3, #23
 8000814:	0011      	movs	r1, r2
 8000816:	0018      	movs	r0, r3
 8000818:	f000 febf 	bl	800159a <HAL_GPIO_TogglePin>
                HAL_GPIO_TogglePin(GPIOA, GPIO_PIN_9);
 800081c:	2380      	movs	r3, #128	; 0x80
 800081e:	009a      	lsls	r2, r3, #2
 8000820:	23a0      	movs	r3, #160	; 0xa0
 8000822:	05db      	lsls	r3, r3, #23
 8000824:	0011      	movs	r1, r2
 8000826:	0018      	movs	r0, r3
 8000828:	f000 feb7 	bl	800159a <HAL_GPIO_TogglePin>
 800082c:	e00f      	b.n	800084e <MC74HCT595A_shiftOut+0xee>
            }
            else{
                HAL_GPIO_TogglePin(GPIOA, GPIO_PIN_8);
 800082e:	2380      	movs	r3, #128	; 0x80
 8000830:	005a      	lsls	r2, r3, #1
 8000832:	23a0      	movs	r3, #160	; 0xa0
 8000834:	05db      	lsls	r3, r3, #23
 8000836:	0011      	movs	r1, r2
 8000838:	0018      	movs	r0, r3
 800083a:	f000 feae 	bl	800159a <HAL_GPIO_TogglePin>
                HAL_GPIO_WritePin(GPIOA, GPIO_PIN_9, GPIO_PIN_RESET);
 800083e:	2380      	movs	r3, #128	; 0x80
 8000840:	0099      	lsls	r1, r3, #2
 8000842:	23a0      	movs	r3, #160	; 0xa0
 8000844:	05db      	lsls	r3, r3, #23
 8000846:	2200      	movs	r2, #0
 8000848:	0018      	movs	r0, r3
 800084a:	f000 fe89 	bl	8001560 <HAL_GPIO_WritePin>
            }
            HAL_GPIO_TogglePin(GPIOA, GPIO_PIN_8);
 800084e:	2380      	movs	r3, #128	; 0x80
 8000850:	005a      	lsls	r2, r3, #1
 8000852:	23a0      	movs	r3, #160	; 0xa0
 8000854:	05db      	lsls	r3, r3, #23
 8000856:	0011      	movs	r1, r2
 8000858:	0018      	movs	r0, r3
 800085a:	f000 fe9e 	bl	800159a <HAL_GPIO_TogglePin>
        for(int j = 0;j<16;j++){
 800085e:	693b      	ldr	r3, [r7, #16]
 8000860:	3301      	adds	r3, #1
 8000862:	613b      	str	r3, [r7, #16]
 8000864:	693b      	ldr	r3, [r7, #16]
 8000866:	2b0f      	cmp	r3, #15
 8000868:	ddbf      	ble.n	80007ea <MC74HCT595A_shiftOut+0x8a>
        }
        HAL_GPIO_WritePin(GPIOB, GPIO_PIN_5, GPIO_PIN_SET);
 800086a:	4b09      	ldr	r3, [pc, #36]	; (8000890 <MC74HCT595A_shiftOut+0x130>)
 800086c:	2201      	movs	r2, #1
 800086e:	2120      	movs	r1, #32
 8000870:	0018      	movs	r0, r3
 8000872:	f000 fe75 	bl	8001560 <HAL_GPIO_WritePin>
    for(int i = 0;i<4;i++){
 8000876:	697b      	ldr	r3, [r7, #20]
 8000878:	3301      	adds	r3, #1
 800087a:	617b      	str	r3, [r7, #20]
 800087c:	697b      	ldr	r3, [r7, #20]
 800087e:	2b03      	cmp	r3, #3
 8000880:	dc00      	bgt.n	8000884 <MC74HCT595A_shiftOut+0x124>
 8000882:	e77a      	b.n	800077a <MC74HCT595A_shiftOut+0x1a>
	}
}
 8000884:	46c0      	nop			; (mov r8, r8)
 8000886:	46c0      	nop			; (mov r8, r8)
 8000888:	46bd      	mov	sp, r7
 800088a:	b006      	add	sp, #24
 800088c:	bdb0      	pop	{r4, r5, r7, pc}
 800088e:	46c0      	nop			; (mov r8, r8)
 8000890:	50000400 	.word	0x50000400

08000894 <writeToRegisters>:

void writeToRegisters(uint16_t freq) {
 8000894:	b580      	push	{r7, lr}
 8000896:	b082      	sub	sp, #8
 8000898:	af00      	add	r7, sp, #0
 800089a:	0002      	movs	r2, r0
 800089c:	1dbb      	adds	r3, r7, #6
 800089e:	801a      	strh	r2, [r3, #0]

  // Lock the registers to ready them to be written
	HAL_GPIO_WritePin(GPIOB, GPIO_PIN_5, GPIO_PIN_RESET);
 80008a0:	4b0a      	ldr	r3, [pc, #40]	; (80008cc <writeToRegisters+0x38>)
 80008a2:	2200      	movs	r2, #0
 80008a4:	2120      	movs	r1, #32
 80008a6:	0018      	movs	r0, r3
 80008a8:	f000 fe5a 	bl	8001560 <HAL_GPIO_WritePin>
    MC74HCT595A_shiftOut(freq);
 80008ac:	1dbb      	adds	r3, r7, #6
 80008ae:	881b      	ldrh	r3, [r3, #0]
 80008b0:	0018      	movs	r0, r3
 80008b2:	f7ff ff55 	bl	8000760 <MC74HCT595A_shiftOut>
  // Go through each of our stored patterns and write them back to the registers in order
  
    HAL_GPIO_WritePin(GPIOB, GPIO_PIN_5, GPIO_PIN_SET);
 80008b6:	4b05      	ldr	r3, [pc, #20]	; (80008cc <writeToRegisters+0x38>)
 80008b8:	2201      	movs	r2, #1
 80008ba:	2120      	movs	r1, #32
 80008bc:	0018      	movs	r0, r3
 80008be:	f000 fe4f 	bl	8001560 <HAL_GPIO_WritePin>
  // Unlock the registers
}
 80008c2:	46c0      	nop			; (mov r8, r8)
 80008c4:	46bd      	mov	sp, r7
 80008c6:	b002      	add	sp, #8
 80008c8:	bd80      	pop	{r7, pc}
 80008ca:	46c0      	nop			; (mov r8, r8)
 80008cc:	50000400 	.word	0x50000400

080008d0 <MX_GPIO_Init>:
        * Output
        * EVENT_OUT
        * EXTI
*/
void MX_GPIO_Init(void)
{
 80008d0:	b590      	push	{r4, r7, lr}
 80008d2:	b08b      	sub	sp, #44	; 0x2c
 80008d4:	af00      	add	r7, sp, #0

  GPIO_InitTypeDef GPIO_InitStruct = {0};
 80008d6:	2414      	movs	r4, #20
 80008d8:	193b      	adds	r3, r7, r4
 80008da:	0018      	movs	r0, r3
 80008dc:	2314      	movs	r3, #20
 80008de:	001a      	movs	r2, r3
 80008e0:	2100      	movs	r1, #0
 80008e2:	f003 fd57 	bl	8004394 <memset>

  /* GPIO Ports Clock Enable */
  __HAL_RCC_GPIOC_CLK_ENABLE();
 80008e6:	4b4e      	ldr	r3, [pc, #312]	; (8000a20 <MX_GPIO_Init+0x150>)
 80008e8:	6b5a      	ldr	r2, [r3, #52]	; 0x34
 80008ea:	4b4d      	ldr	r3, [pc, #308]	; (8000a20 <MX_GPIO_Init+0x150>)
 80008ec:	2104      	movs	r1, #4
 80008ee:	430a      	orrs	r2, r1
 80008f0:	635a      	str	r2, [r3, #52]	; 0x34
 80008f2:	4b4b      	ldr	r3, [pc, #300]	; (8000a20 <MX_GPIO_Init+0x150>)
 80008f4:	6b5b      	ldr	r3, [r3, #52]	; 0x34
 80008f6:	2204      	movs	r2, #4
 80008f8:	4013      	ands	r3, r2
 80008fa:	613b      	str	r3, [r7, #16]
 80008fc:	693b      	ldr	r3, [r7, #16]
  __HAL_RCC_GPIOF_CLK_ENABLE();
 80008fe:	4b48      	ldr	r3, [pc, #288]	; (8000a20 <MX_GPIO_Init+0x150>)
 8000900:	6b5a      	ldr	r2, [r3, #52]	; 0x34
 8000902:	4b47      	ldr	r3, [pc, #284]	; (8000a20 <MX_GPIO_Init+0x150>)
 8000904:	2120      	movs	r1, #32
 8000906:	430a      	orrs	r2, r1
 8000908:	635a      	str	r2, [r3, #52]	; 0x34
 800090a:	4b45      	ldr	r3, [pc, #276]	; (8000a20 <MX_GPIO_Init+0x150>)
 800090c:	6b5b      	ldr	r3, [r3, #52]	; 0x34
 800090e:	2220      	movs	r2, #32
 8000910:	4013      	ands	r3, r2
 8000912:	60fb      	str	r3, [r7, #12]
 8000914:	68fb      	ldr	r3, [r7, #12]
  __HAL_RCC_GPIOA_CLK_ENABLE();
 8000916:	4b42      	ldr	r3, [pc, #264]	; (8000a20 <MX_GPIO_Init+0x150>)
 8000918:	6b5a      	ldr	r2, [r3, #52]	; 0x34
 800091a:	4b41      	ldr	r3, [pc, #260]	; (8000a20 <MX_GPIO_Init+0x150>)
 800091c:	2101      	movs	r1, #1
 800091e:	430a      	orrs	r2, r1
 8000920:	635a      	str	r2, [r3, #52]	; 0x34
 8000922:	4b3f      	ldr	r3, [pc, #252]	; (8000a20 <MX_GPIO_Init+0x150>)
 8000924:	6b5b      	ldr	r3, [r3, #52]	; 0x34
 8000926:	2201      	movs	r2, #1
 8000928:	4013      	ands	r3, r2
 800092a:	60bb      	str	r3, [r7, #8]
 800092c:	68bb      	ldr	r3, [r7, #8]
  __HAL_RCC_GPIOB_CLK_ENABLE();
 800092e:	4b3c      	ldr	r3, [pc, #240]	; (8000a20 <MX_GPIO_Init+0x150>)
 8000930:	6b5a      	ldr	r2, [r3, #52]	; 0x34
 8000932:	4b3b      	ldr	r3, [pc, #236]	; (8000a20 <MX_GPIO_Init+0x150>)
 8000934:	2102      	movs	r1, #2
 8000936:	430a      	orrs	r2, r1
 8000938:	635a      	str	r2, [r3, #52]	; 0x34
 800093a:	4b39      	ldr	r3, [pc, #228]	; (8000a20 <MX_GPIO_Init+0x150>)
 800093c:	6b5b      	ldr	r3, [r3, #52]	; 0x34
 800093e:	2202      	movs	r2, #2
 8000940:	4013      	ands	r3, r2
 8000942:	607b      	str	r3, [r7, #4]
 8000944:	687b      	ldr	r3, [r7, #4]

  /*Configure GPIO pin Output Level */
  HAL_GPIO_WritePin(GPIOA, LED_GREEN_Pin|GPIO_PIN_8|DataOut_Pin, GPIO_PIN_RESET);
 8000946:	23c8      	movs	r3, #200	; 0xc8
 8000948:	0099      	lsls	r1, r3, #2
 800094a:	23a0      	movs	r3, #160	; 0xa0
 800094c:	05db      	lsls	r3, r3, #23
 800094e:	2200      	movs	r2, #0
 8000950:	0018      	movs	r0, r3
 8000952:	f000 fe05 	bl	8001560 <HAL_GPIO_WritePin>

  /*Configure GPIO pin Output Level */
  HAL_GPIO_WritePin(GPIOB, GPIO_PIN_5, GPIO_PIN_RESET);
 8000956:	4b33      	ldr	r3, [pc, #204]	; (8000a24 <MX_GPIO_Init+0x154>)
 8000958:	2200      	movs	r2, #0
 800095a:	2120      	movs	r1, #32
 800095c:	0018      	movs	r0, r3
 800095e:	f000 fdff 	bl	8001560 <HAL_GPIO_WritePin>

  /*Configure GPIO pins : PAPin PAPin */
  GPIO_InitStruct.Pin = BUTTON_1_Pin|BUTTON_2_Pin;
 8000962:	193b      	adds	r3, r7, r4
 8000964:	2212      	movs	r2, #18
 8000966:	601a      	str	r2, [r3, #0]
  GPIO_InitStruct.Mode = GPIO_MODE_INPUT;
 8000968:	193b      	adds	r3, r7, r4
 800096a:	2200      	movs	r2, #0
 800096c:	605a      	str	r2, [r3, #4]
  GPIO_InitStruct.Pull = GPIO_PULLUP;
 800096e:	193b      	adds	r3, r7, r4
 8000970:	2201      	movs	r2, #1
 8000972:	609a      	str	r2, [r3, #8]
  HAL_GPIO_Init(GPIOA, &GPIO_InitStruct);
 8000974:	193a      	adds	r2, r7, r4
 8000976:	23a0      	movs	r3, #160	; 0xa0
 8000978:	05db      	lsls	r3, r3, #23
 800097a:	0011      	movs	r1, r2
 800097c:	0018      	movs	r0, r3
 800097e:	f000 fc83 	bl	8001288 <HAL_GPIO_Init>

  /*Configure GPIO pin : PtPin */
  GPIO_InitStruct.Pin = LED_GREEN_Pin;
 8000982:	193b      	adds	r3, r7, r4
 8000984:	2220      	movs	r2, #32
 8000986:	601a      	str	r2, [r3, #0]
  GPIO_InitStruct.Mode = GPIO_MODE_OUTPUT_PP;
 8000988:	193b      	adds	r3, r7, r4
 800098a:	2201      	movs	r2, #1
 800098c:	605a      	str	r2, [r3, #4]
  GPIO_InitStruct.Pull = GPIO_NOPULL;
 800098e:	193b      	adds	r3, r7, r4
 8000990:	2200      	movs	r2, #0
 8000992:	609a      	str	r2, [r3, #8]
  GPIO_InitStruct.Speed = GPIO_SPEED_FREQ_HIGH;
 8000994:	193b      	adds	r3, r7, r4
 8000996:	2202      	movs	r2, #2
 8000998:	60da      	str	r2, [r3, #12]
  HAL_GPIO_Init(LED_GREEN_GPIO_Port, &GPIO_InitStruct);
 800099a:	193a      	adds	r2, r7, r4
 800099c:	23a0      	movs	r3, #160	; 0xa0
 800099e:	05db      	lsls	r3, r3, #23
 80009a0:	0011      	movs	r1, r2
 80009a2:	0018      	movs	r0, r3
 80009a4:	f000 fc70 	bl	8001288 <HAL_GPIO_Init>

  /*Configure GPIO pin : PtPin */
  GPIO_InitStruct.Pin = BUTTON_3_Pin;
 80009a8:	193b      	adds	r3, r7, r4
 80009aa:	2202      	movs	r2, #2
 80009ac:	601a      	str	r2, [r3, #0]
  GPIO_InitStruct.Mode = GPIO_MODE_INPUT;
 80009ae:	193b      	adds	r3, r7, r4
 80009b0:	2200      	movs	r2, #0
 80009b2:	605a      	str	r2, [r3, #4]
  GPIO_InitStruct.Pull = GPIO_PULLUP;
 80009b4:	193b      	adds	r3, r7, r4
 80009b6:	2201      	movs	r2, #1
 80009b8:	609a      	str	r2, [r3, #8]
  HAL_GPIO_Init(BUTTON_3_GPIO_Port, &GPIO_InitStruct);
 80009ba:	193b      	adds	r3, r7, r4
 80009bc:	4a19      	ldr	r2, [pc, #100]	; (8000a24 <MX_GPIO_Init+0x154>)
 80009be:	0019      	movs	r1, r3
 80009c0:	0010      	movs	r0, r2
 80009c2:	f000 fc61 	bl	8001288 <HAL_GPIO_Init>

  /*Configure GPIO pins : PA8 PAPin */
  GPIO_InitStruct.Pin = GPIO_PIN_8|DataOut_Pin;
 80009c6:	0021      	movs	r1, r4
 80009c8:	187b      	adds	r3, r7, r1
 80009ca:	22c0      	movs	r2, #192	; 0xc0
 80009cc:	0092      	lsls	r2, r2, #2
 80009ce:	601a      	str	r2, [r3, #0]
  GPIO_InitStruct.Mode = GPIO_MODE_OUTPUT_PP;
 80009d0:	000c      	movs	r4, r1
 80009d2:	193b      	adds	r3, r7, r4
 80009d4:	2201      	movs	r2, #1
 80009d6:	605a      	str	r2, [r3, #4]
  GPIO_InitStruct.Pull = GPIO_NOPULL;
 80009d8:	193b      	adds	r3, r7, r4
 80009da:	2200      	movs	r2, #0
 80009dc:	609a      	str	r2, [r3, #8]
  GPIO_InitStruct.Speed = GPIO_SPEED_FREQ_LOW;
 80009de:	193b      	adds	r3, r7, r4
 80009e0:	2200      	movs	r2, #0
 80009e2:	60da      	str	r2, [r3, #12]
  HAL_GPIO_Init(GPIOA, &GPIO_InitStruct);
 80009e4:	193a      	adds	r2, r7, r4
 80009e6:	23a0      	movs	r3, #160	; 0xa0
 80009e8:	05db      	lsls	r3, r3, #23
 80009ea:	0011      	movs	r1, r2
 80009ec:	0018      	movs	r0, r3
 80009ee:	f000 fc4b 	bl	8001288 <HAL_GPIO_Init>

  /*Configure GPIO pin : PB5 */
  GPIO_InitStruct.Pin = GPIO_PIN_5;
 80009f2:	0021      	movs	r1, r4
 80009f4:	187b      	adds	r3, r7, r1
 80009f6:	2220      	movs	r2, #32
 80009f8:	601a      	str	r2, [r3, #0]
  GPIO_InitStruct.Mode = GPIO_MODE_OUTPUT_PP;
 80009fa:	187b      	adds	r3, r7, r1
 80009fc:	2201      	movs	r2, #1
 80009fe:	605a      	str	r2, [r3, #4]
  GPIO_InitStruct.Pull = GPIO_NOPULL;
 8000a00:	187b      	adds	r3, r7, r1
 8000a02:	2200      	movs	r2, #0
 8000a04:	609a      	str	r2, [r3, #8]
  GPIO_InitStruct.Speed = GPIO_SPEED_FREQ_LOW;
 8000a06:	187b      	adds	r3, r7, r1
 8000a08:	2200      	movs	r2, #0
 8000a0a:	60da      	str	r2, [r3, #12]
  HAL_GPIO_Init(GPIOB, &GPIO_InitStruct);
 8000a0c:	187b      	adds	r3, r7, r1
 8000a0e:	4a05      	ldr	r2, [pc, #20]	; (8000a24 <MX_GPIO_Init+0x154>)
 8000a10:	0019      	movs	r1, r3
 8000a12:	0010      	movs	r0, r2
 8000a14:	f000 fc38 	bl	8001288 <HAL_GPIO_Init>

}
 8000a18:	46c0      	nop			; (mov r8, r8)
 8000a1a:	46bd      	mov	sp, r7
 8000a1c:	b00b      	add	sp, #44	; 0x2c
 8000a1e:	bd90      	pop	{r4, r7, pc}
 8000a20:	40021000 	.word	0x40021000
 8000a24:	50000400 	.word	0x50000400

08000a28 <main>:
/**
  * @brief  The application entry point.
  * @retval int
  */
int main(void)
{
 8000a28:	b580      	push	{r7, lr}
 8000a2a:	b082      	sub	sp, #8
 8000a2c:	af00      	add	r7, sp, #0
  /* USER CODE END 1 */

  /* MCU Configuration--------------------------------------------------------*/

  /* Reset of all peripherals, Initializes the Flash interface and the Systick. */
  HAL_Init();
 8000a2e:	f000 faf1 	bl	8001014 <HAL_Init>
  /* USER CODE BEGIN Init */

  /* USER CODE END Init */

  /* Configure the system clock */
  SystemClock_Config();
 8000a32:	f000 f811 	bl	8000a58 <SystemClock_Config>
  /* USER CODE BEGIN SysInit */

  /* USER CODE END SysInit */

  /* Initialize all configured peripherals */
  MX_GPIO_Init();
 8000a36:	f7ff ff4b 	bl	80008d0 <MX_GPIO_Init>
  MX_USART2_UART_Init();
 8000a3a:	f000 fa13 	bl	8000e64 <MX_USART2_UART_Init>
  MX_TIM1_Init();
 8000a3e:	f000 f8d1 	bl	8000be4 <MX_TIM1_Init>
  /* USER CODE BEGIN 2 */
  MC74HCT595A_init();
 8000a42:	f7ff fdeb 	bl	800061c <MC74HCT595A_init>
//  uint8_t Test[] = "Hello World !!!\r\n"; //Data to send
//  uint8_t Rx_data[100] = {0};  //  creating a buffer of 10 bytes
//  uint8_t Tx_data[100] = {0};
//  	  bool start_read = false;
//   buzzer_stop();
  uint8_t **binary_code = {0b01001000,0b01100101,0b01101100,0b01101100,0b01101100};
 8000a46:	2348      	movs	r3, #72	; 0x48
 8000a48:	607b      	str	r3, [r7, #4]

    /* USER CODE END WHILE */

    /* USER CODE BEGIN 3 */
//	  for(int i = 0; i <9999;i++){
		  writeToRegisters(7819);
 8000a4a:	4b02      	ldr	r3, [pc, #8]	; (8000a54 <main+0x2c>)
 8000a4c:	0018      	movs	r0, r3
 8000a4e:	f7ff ff21 	bl	8000894 <writeToRegisters>
  {
 8000a52:	e7fa      	b.n	8000a4a <main+0x22>
 8000a54:	00001e8b 	.word	0x00001e8b

08000a58 <SystemClock_Config>:
/**
  * @brief System Clock Configuration
  * @retval None
  */
void SystemClock_Config(void)
{
 8000a58:	b590      	push	{r4, r7, lr}
 8000a5a:	b095      	sub	sp, #84	; 0x54
 8000a5c:	af00      	add	r7, sp, #0
  RCC_OscInitTypeDef RCC_OscInitStruct = {0};
 8000a5e:	2414      	movs	r4, #20
 8000a60:	193b      	adds	r3, r7, r4
 8000a62:	0018      	movs	r0, r3
 8000a64:	233c      	movs	r3, #60	; 0x3c
 8000a66:	001a      	movs	r2, r3
 8000a68:	2100      	movs	r1, #0
 8000a6a:	f003 fc93 	bl	8004394 <memset>
  RCC_ClkInitTypeDef RCC_ClkInitStruct = {0};
 8000a6e:	1d3b      	adds	r3, r7, #4
 8000a70:	0018      	movs	r0, r3
 8000a72:	2310      	movs	r3, #16
 8000a74:	001a      	movs	r2, r3
 8000a76:	2100      	movs	r1, #0
 8000a78:	f003 fc8c 	bl	8004394 <memset>

  /** Configure the main internal regulator output voltage
  */
  HAL_PWREx_ControlVoltageScaling(PWR_REGULATOR_VOLTAGE_SCALE1);
 8000a7c:	2380      	movs	r3, #128	; 0x80
 8000a7e:	009b      	lsls	r3, r3, #2
 8000a80:	0018      	movs	r0, r3
 8000a82:	f000 fda5 	bl	80015d0 <HAL_PWREx_ControlVoltageScaling>

  /** Initializes the RCC Oscillators according to the specified parameters
  * in the RCC_OscInitTypeDef structure.
  */
  RCC_OscInitStruct.OscillatorType = RCC_OSCILLATORTYPE_HSI;
 8000a86:	193b      	adds	r3, r7, r4
 8000a88:	2202      	movs	r2, #2
 8000a8a:	601a      	str	r2, [r3, #0]
  RCC_OscInitStruct.HSIState = RCC_HSI_ON;
 8000a8c:	193b      	adds	r3, r7, r4
 8000a8e:	2280      	movs	r2, #128	; 0x80
 8000a90:	0052      	lsls	r2, r2, #1
 8000a92:	60da      	str	r2, [r3, #12]
  RCC_OscInitStruct.HSIDiv = RCC_HSI_DIV1;
 8000a94:	193b      	adds	r3, r7, r4
 8000a96:	2200      	movs	r2, #0
 8000a98:	611a      	str	r2, [r3, #16]
  RCC_OscInitStruct.HSICalibrationValue = RCC_HSICALIBRATION_DEFAULT;
 8000a9a:	193b      	adds	r3, r7, r4
 8000a9c:	2240      	movs	r2, #64	; 0x40
 8000a9e:	615a      	str	r2, [r3, #20]
  RCC_OscInitStruct.PLL.PLLState = RCC_PLL_NONE;
 8000aa0:	193b      	adds	r3, r7, r4
 8000aa2:	2200      	movs	r2, #0
 8000aa4:	621a      	str	r2, [r3, #32]
  if (HAL_RCC_OscConfig(&RCC_OscInitStruct) != HAL_OK)
 8000aa6:	193b      	adds	r3, r7, r4
 8000aa8:	0018      	movs	r0, r3
 8000aaa:	f000 fddd 	bl	8001668 <HAL_RCC_OscConfig>
 8000aae:	1e03      	subs	r3, r0, #0
 8000ab0:	d001      	beq.n	8000ab6 <SystemClock_Config+0x5e>
  {
    Error_Handler();
 8000ab2:	f000 f819 	bl	8000ae8 <Error_Handler>
  }

  /** Initializes the CPU, AHB and APB buses clocks
  */
  RCC_ClkInitStruct.ClockType = RCC_CLOCKTYPE_HCLK|RCC_CLOCKTYPE_SYSCLK
 8000ab6:	1d3b      	adds	r3, r7, #4
 8000ab8:	2207      	movs	r2, #7
 8000aba:	601a      	str	r2, [r3, #0]
                              |RCC_CLOCKTYPE_PCLK1;
  RCC_ClkInitStruct.SYSCLKSource = RCC_SYSCLKSOURCE_HSI;
 8000abc:	1d3b      	adds	r3, r7, #4
 8000abe:	2200      	movs	r2, #0
 8000ac0:	605a      	str	r2, [r3, #4]
  RCC_ClkInitStruct.AHBCLKDivider = RCC_SYSCLK_DIV1;
 8000ac2:	1d3b      	adds	r3, r7, #4
 8000ac4:	2200      	movs	r2, #0
 8000ac6:	609a      	str	r2, [r3, #8]
  RCC_ClkInitStruct.APB1CLKDivider = RCC_HCLK_DIV1;
 8000ac8:	1d3b      	adds	r3, r7, #4
 8000aca:	2200      	movs	r2, #0
 8000acc:	60da      	str	r2, [r3, #12]

  if (HAL_RCC_ClockConfig(&RCC_ClkInitStruct, FLASH_LATENCY_0) != HAL_OK)
 8000ace:	1d3b      	adds	r3, r7, #4
 8000ad0:	2100      	movs	r1, #0
 8000ad2:	0018      	movs	r0, r3
 8000ad4:	f001 f928 	bl	8001d28 <HAL_RCC_ClockConfig>
 8000ad8:	1e03      	subs	r3, r0, #0
 8000ada:	d001      	beq.n	8000ae0 <SystemClock_Config+0x88>
  {
    Error_Handler();
 8000adc:	f000 f804 	bl	8000ae8 <Error_Handler>
  }
}
 8000ae0:	46c0      	nop			; (mov r8, r8)
 8000ae2:	46bd      	mov	sp, r7
 8000ae4:	b015      	add	sp, #84	; 0x54
 8000ae6:	bd90      	pop	{r4, r7, pc}

08000ae8 <Error_Handler>:
/**
  * @brief  This function is executed in case of error occurrence.
  * @retval None
  */
void Error_Handler(void)
{
 8000ae8:	b580      	push	{r7, lr}
 8000aea:	af00      	add	r7, sp, #0
  \details Disables IRQ interrupts by setting the I-bit in the CPSR.
           Can only be executed in Privileged modes.
 */
__STATIC_FORCEINLINE void __disable_irq(void)
{
  __ASM volatile ("cpsid i" : : : "memory");
 8000aec:	b672      	cpsid	i
}
 8000aee:	46c0      	nop			; (mov r8, r8)
  /* USER CODE BEGIN Error_Handler_Debug */
  /* User can add his own implementation to report the HAL error return state */
  __disable_irq();
  while (1)
 8000af0:	e7fe      	b.n	8000af0 <Error_Handler+0x8>
	...

08000af4 <HAL_MspInit>:
/* USER CODE END 0 */
/**
  * Initializes the Global MSP.
  */
void HAL_MspInit(void)
{
 8000af4:	b580      	push	{r7, lr}
 8000af6:	b082      	sub	sp, #8
 8000af8:	af00      	add	r7, sp, #0
  /* USER CODE BEGIN MspInit 0 */

  /* USER CODE END MspInit 0 */

  __HAL_RCC_SYSCFG_CLK_ENABLE();
 8000afa:	4b0f      	ldr	r3, [pc, #60]	; (8000b38 <HAL_MspInit+0x44>)
 8000afc:	6c1a      	ldr	r2, [r3, #64]	; 0x40
 8000afe:	4b0e      	ldr	r3, [pc, #56]	; (8000b38 <HAL_MspInit+0x44>)
 8000b00:	2101      	movs	r1, #1
 8000b02:	430a      	orrs	r2, r1
 8000b04:	641a      	str	r2, [r3, #64]	; 0x40
 8000b06:	4b0c      	ldr	r3, [pc, #48]	; (8000b38 <HAL_MspInit+0x44>)
 8000b08:	6c1b      	ldr	r3, [r3, #64]	; 0x40
 8000b0a:	2201      	movs	r2, #1
 8000b0c:	4013      	ands	r3, r2
 8000b0e:	607b      	str	r3, [r7, #4]
 8000b10:	687b      	ldr	r3, [r7, #4]
  __HAL_RCC_PWR_CLK_ENABLE();
 8000b12:	4b09      	ldr	r3, [pc, #36]	; (8000b38 <HAL_MspInit+0x44>)
 8000b14:	6bda      	ldr	r2, [r3, #60]	; 0x3c
 8000b16:	4b08      	ldr	r3, [pc, #32]	; (8000b38 <HAL_MspInit+0x44>)
 8000b18:	2180      	movs	r1, #128	; 0x80
 8000b1a:	0549      	lsls	r1, r1, #21
 8000b1c:	430a      	orrs	r2, r1
 8000b1e:	63da      	str	r2, [r3, #60]	; 0x3c
 8000b20:	4b05      	ldr	r3, [pc, #20]	; (8000b38 <HAL_MspInit+0x44>)
 8000b22:	6bda      	ldr	r2, [r3, #60]	; 0x3c
 8000b24:	2380      	movs	r3, #128	; 0x80
 8000b26:	055b      	lsls	r3, r3, #21
 8000b28:	4013      	ands	r3, r2
 8000b2a:	603b      	str	r3, [r7, #0]
 8000b2c:	683b      	ldr	r3, [r7, #0]
  /* System interrupt init*/

  /* USER CODE BEGIN MspInit 1 */

  /* USER CODE END MspInit 1 */
}
 8000b2e:	46c0      	nop			; (mov r8, r8)
 8000b30:	46bd      	mov	sp, r7
 8000b32:	b002      	add	sp, #8
 8000b34:	bd80      	pop	{r7, pc}
 8000b36:	46c0      	nop			; (mov r8, r8)
 8000b38:	40021000 	.word	0x40021000

08000b3c <NMI_Handler>:
/******************************************************************************/
/**
  * @brief This function handles Non maskable interrupt.
  */
void NMI_Handler(void)
{
 8000b3c:	b580      	push	{r7, lr}
 8000b3e:	af00      	add	r7, sp, #0
  /* USER CODE BEGIN NonMaskableInt_IRQn 0 */

  /* USER CODE END NonMaskableInt_IRQn 0 */
  /* USER CODE BEGIN NonMaskableInt_IRQn 1 */
  while (1)
 8000b40:	e7fe      	b.n	8000b40 <NMI_Handler+0x4>

08000b42 <HardFault_Handler>:

/**
  * @brief This function handles Hard fault interrupt.
  */
void HardFault_Handler(void)
{
 8000b42:	b580      	push	{r7, lr}
 8000b44:	af00      	add	r7, sp, #0
  /* USER CODE BEGIN HardFault_IRQn 0 */

  /* USER CODE END HardFault_IRQn 0 */
  while (1)
 8000b46:	e7fe      	b.n	8000b46 <HardFault_Handler+0x4>

08000b48 <SVC_Handler>:

/**
  * @brief This function handles System service call via SWI instruction.
  */
void SVC_Handler(void)
{
 8000b48:	b580      	push	{r7, lr}
 8000b4a:	af00      	add	r7, sp, #0

  /* USER CODE END SVC_IRQn 0 */
  /* USER CODE BEGIN SVC_IRQn 1 */

  /* USER CODE END SVC_IRQn 1 */
}
 8000b4c:	46c0      	nop			; (mov r8, r8)
 8000b4e:	46bd      	mov	sp, r7
 8000b50:	bd80      	pop	{r7, pc}

08000b52 <PendSV_Handler>:

/**
  * @brief This function handles Pendable request for system service.
  */
void PendSV_Handler(void)
{
 8000b52:	b580      	push	{r7, lr}
 8000b54:	af00      	add	r7, sp, #0

  /* USER CODE END PendSV_IRQn 0 */
  /* USER CODE BEGIN PendSV_IRQn 1 */

  /* USER CODE END PendSV_IRQn 1 */
}
 8000b56:	46c0      	nop			; (mov r8, r8)
 8000b58:	46bd      	mov	sp, r7
 8000b5a:	bd80      	pop	{r7, pc}

08000b5c <SysTick_Handler>:

/**
  * @brief This function handles System tick timer.
  */
void SysTick_Handler(void)
{
 8000b5c:	b580      	push	{r7, lr}
 8000b5e:	af00      	add	r7, sp, #0
  /* USER CODE BEGIN SysTick_IRQn 0 */

  /* USER CODE END SysTick_IRQn 0 */
  HAL_IncTick();
 8000b60:	f000 fac2 	bl	80010e8 <HAL_IncTick>
  /* USER CODE BEGIN SysTick_IRQn 1 */

  /* USER CODE END SysTick_IRQn 1 */
}
 8000b64:	46c0      	nop			; (mov r8, r8)
 8000b66:	46bd      	mov	sp, r7
 8000b68:	bd80      	pop	{r7, pc}
	...

08000b6c <_sbrk>:
 *
 * @param incr Memory size
 * @return Pointer to allocated memory
 */
void *_sbrk(ptrdiff_t incr)
{
 8000b6c:	b580      	push	{r7, lr}
 8000b6e:	b086      	sub	sp, #24
 8000b70:	af00      	add	r7, sp, #0
 8000b72:	6078      	str	r0, [r7, #4]
  extern uint8_t _end; /* Symbol defined in the linker script */
  extern uint8_t _estack; /* Symbol defined in the linker script */
  extern uint32_t _Min_Stack_Size; /* Symbol defined in the linker script */
  const uint32_t stack_limit = (uint32_t)&_estack - (uint32_t)&_Min_Stack_Size;
 8000b74:	4a14      	ldr	r2, [pc, #80]	; (8000bc8 <_sbrk+0x5c>)
 8000b76:	4b15      	ldr	r3, [pc, #84]	; (8000bcc <_sbrk+0x60>)
 8000b78:	1ad3      	subs	r3, r2, r3
 8000b7a:	617b      	str	r3, [r7, #20]
  const uint8_t *max_heap = (uint8_t *)stack_limit;
 8000b7c:	697b      	ldr	r3, [r7, #20]
 8000b7e:	613b      	str	r3, [r7, #16]
  uint8_t *prev_heap_end;

  /* Initialize heap end at first call */
  if (NULL == __sbrk_heap_end)
 8000b80:	4b13      	ldr	r3, [pc, #76]	; (8000bd0 <_sbrk+0x64>)
 8000b82:	681b      	ldr	r3, [r3, #0]
 8000b84:	2b00      	cmp	r3, #0
 8000b86:	d102      	bne.n	8000b8e <_sbrk+0x22>
  {
    __sbrk_heap_end = &_end;
 8000b88:	4b11      	ldr	r3, [pc, #68]	; (8000bd0 <_sbrk+0x64>)
 8000b8a:	4a12      	ldr	r2, [pc, #72]	; (8000bd4 <_sbrk+0x68>)
 8000b8c:	601a      	str	r2, [r3, #0]
  }

  /* Protect heap from growing into the reserved MSP stack */
  if (__sbrk_heap_end + incr > max_heap)
 8000b8e:	4b10      	ldr	r3, [pc, #64]	; (8000bd0 <_sbrk+0x64>)
 8000b90:	681a      	ldr	r2, [r3, #0]
 8000b92:	687b      	ldr	r3, [r7, #4]
 8000b94:	18d3      	adds	r3, r2, r3
 8000b96:	693a      	ldr	r2, [r7, #16]
 8000b98:	429a      	cmp	r2, r3
 8000b9a:	d207      	bcs.n	8000bac <_sbrk+0x40>
  {
    errno = ENOMEM;
 8000b9c:	f003 fc14 	bl	80043c8 <__errno>
 8000ba0:	0003      	movs	r3, r0
 8000ba2:	220c      	movs	r2, #12
 8000ba4:	601a      	str	r2, [r3, #0]
    return (void *)-1;
 8000ba6:	2301      	movs	r3, #1
 8000ba8:	425b      	negs	r3, r3
 8000baa:	e009      	b.n	8000bc0 <_sbrk+0x54>
  }

  prev_heap_end = __sbrk_heap_end;
 8000bac:	4b08      	ldr	r3, [pc, #32]	; (8000bd0 <_sbrk+0x64>)
 8000bae:	681b      	ldr	r3, [r3, #0]
 8000bb0:	60fb      	str	r3, [r7, #12]
  __sbrk_heap_end += incr;
 8000bb2:	4b07      	ldr	r3, [pc, #28]	; (8000bd0 <_sbrk+0x64>)
 8000bb4:	681a      	ldr	r2, [r3, #0]
 8000bb6:	687b      	ldr	r3, [r7, #4]
 8000bb8:	18d2      	adds	r2, r2, r3
 8000bba:	4b05      	ldr	r3, [pc, #20]	; (8000bd0 <_sbrk+0x64>)
 8000bbc:	601a      	str	r2, [r3, #0]

  return (void *)prev_heap_end;
 8000bbe:	68fb      	ldr	r3, [r7, #12]
}
 8000bc0:	0018      	movs	r0, r3
 8000bc2:	46bd      	mov	sp, r7
 8000bc4:	b006      	add	sp, #24
 8000bc6:	bd80      	pop	{r7, pc}
 8000bc8:	20024000 	.word	0x20024000
 8000bcc:	00000400 	.word	0x00000400
 8000bd0:	20000090 	.word	0x20000090
 8000bd4:	200002c0 	.word	0x200002c0

08000bd8 <SystemInit>:
  * @brief  Setup the microcontroller system.
  * @param  None
  * @retval None
  */
void SystemInit(void)
{
 8000bd8:	b580      	push	{r7, lr}
 8000bda:	af00      	add	r7, sp, #0
  /* Configure the Vector Table location -------------------------------------*/
#if defined(USER_VECT_TAB_ADDRESS)
  SCB->VTOR = VECT_TAB_BASE_ADDRESS | VECT_TAB_OFFSET; /* Vector Table Relocation */
#endif /* USER_VECT_TAB_ADDRESS */
}
 8000bdc:	46c0      	nop			; (mov r8, r8)
 8000bde:	46bd      	mov	sp, r7
 8000be0:	bd80      	pop	{r7, pc}
	...

08000be4 <MX_TIM1_Init>:

TIM_HandleTypeDef htim1;

/* TIM1 init function */
void MX_TIM1_Init(void)
{
 8000be4:	b580      	push	{r7, lr}
 8000be6:	b09c      	sub	sp, #112	; 0x70
 8000be8:	af00      	add	r7, sp, #0

  /* USER CODE BEGIN TIM1_Init 0 */

  /* USER CODE END TIM1_Init 0 */

  TIM_ClockConfigTypeDef sClockSourceConfig = {0};
 8000bea:	2360      	movs	r3, #96	; 0x60
 8000bec:	18fb      	adds	r3, r7, r3
 8000bee:	0018      	movs	r0, r3
 8000bf0:	2310      	movs	r3, #16
 8000bf2:	001a      	movs	r2, r3
 8000bf4:	2100      	movs	r1, #0
 8000bf6:	f003 fbcd 	bl	8004394 <memset>
  TIM_MasterConfigTypeDef sMasterConfig = {0};
 8000bfa:	2354      	movs	r3, #84	; 0x54
 8000bfc:	18fb      	adds	r3, r7, r3
 8000bfe:	0018      	movs	r0, r3
 8000c00:	230c      	movs	r3, #12
 8000c02:	001a      	movs	r2, r3
 8000c04:	2100      	movs	r1, #0
 8000c06:	f003 fbc5 	bl	8004394 <memset>
  TIM_OC_InitTypeDef sConfigOC = {0};
 8000c0a:	2338      	movs	r3, #56	; 0x38
 8000c0c:	18fb      	adds	r3, r7, r3
 8000c0e:	0018      	movs	r0, r3
 8000c10:	231c      	movs	r3, #28
 8000c12:	001a      	movs	r2, r3
 8000c14:	2100      	movs	r1, #0
 8000c16:	f003 fbbd 	bl	8004394 <memset>
  TIM_BreakDeadTimeConfigTypeDef sBreakDeadTimeConfig = {0};
 8000c1a:	1d3b      	adds	r3, r7, #4
 8000c1c:	0018      	movs	r0, r3
 8000c1e:	2334      	movs	r3, #52	; 0x34
 8000c20:	001a      	movs	r2, r3
 8000c22:	2100      	movs	r1, #0
 8000c24:	f003 fbb6 	bl	8004394 <memset>

  /* USER CODE BEGIN TIM1_Init 1 */

  /* USER CODE END TIM1_Init 1 */
  htim1.Instance = TIM1;
 8000c28:	4b51      	ldr	r3, [pc, #324]	; (8000d70 <MX_TIM1_Init+0x18c>)
 8000c2a:	4a52      	ldr	r2, [pc, #328]	; (8000d74 <MX_TIM1_Init+0x190>)
 8000c2c:	601a      	str	r2, [r3, #0]
  htim1.Init.Prescaler = 16-1;
 8000c2e:	4b50      	ldr	r3, [pc, #320]	; (8000d70 <MX_TIM1_Init+0x18c>)
 8000c30:	220f      	movs	r2, #15
 8000c32:	605a      	str	r2, [r3, #4]
  htim1.Init.CounterMode = TIM_COUNTERMODE_UP;
 8000c34:	4b4e      	ldr	r3, [pc, #312]	; (8000d70 <MX_TIM1_Init+0x18c>)
 8000c36:	2200      	movs	r2, #0
 8000c38:	609a      	str	r2, [r3, #8]
  htim1.Init.Period = 10000;
 8000c3a:	4b4d      	ldr	r3, [pc, #308]	; (8000d70 <MX_TIM1_Init+0x18c>)
 8000c3c:	4a4e      	ldr	r2, [pc, #312]	; (8000d78 <MX_TIM1_Init+0x194>)
 8000c3e:	60da      	str	r2, [r3, #12]
  htim1.Init.ClockDivision = TIM_CLOCKDIVISION_DIV1;
 8000c40:	4b4b      	ldr	r3, [pc, #300]	; (8000d70 <MX_TIM1_Init+0x18c>)
 8000c42:	2200      	movs	r2, #0
 8000c44:	611a      	str	r2, [r3, #16]
  htim1.Init.RepetitionCounter = 0;
 8000c46:	4b4a      	ldr	r3, [pc, #296]	; (8000d70 <MX_TIM1_Init+0x18c>)
 8000c48:	2200      	movs	r2, #0
 8000c4a:	615a      	str	r2, [r3, #20]
  htim1.Init.AutoReloadPreload = TIM_AUTORELOAD_PRELOAD_DISABLE;
 8000c4c:	4b48      	ldr	r3, [pc, #288]	; (8000d70 <MX_TIM1_Init+0x18c>)
 8000c4e:	2200      	movs	r2, #0
 8000c50:	619a      	str	r2, [r3, #24]
  if (HAL_TIM_Base_Init(&htim1) != HAL_OK)
 8000c52:	4b47      	ldr	r3, [pc, #284]	; (8000d70 <MX_TIM1_Init+0x18c>)
 8000c54:	0018      	movs	r0, r3
 8000c56:	f001 fc4d 	bl	80024f4 <HAL_TIM_Base_Init>
 8000c5a:	1e03      	subs	r3, r0, #0
 8000c5c:	d001      	beq.n	8000c62 <MX_TIM1_Init+0x7e>
  {
    Error_Handler();
 8000c5e:	f7ff ff43 	bl	8000ae8 <Error_Handler>
  }
  sClockSourceConfig.ClockSource = TIM_CLOCKSOURCE_INTERNAL;
 8000c62:	2160      	movs	r1, #96	; 0x60
 8000c64:	187b      	adds	r3, r7, r1
 8000c66:	2280      	movs	r2, #128	; 0x80
 8000c68:	0152      	lsls	r2, r2, #5
 8000c6a:	601a      	str	r2, [r3, #0]
  if (HAL_TIM_ConfigClockSource(&htim1, &sClockSourceConfig) != HAL_OK)
 8000c6c:	187a      	adds	r2, r7, r1
 8000c6e:	4b40      	ldr	r3, [pc, #256]	; (8000d70 <MX_TIM1_Init+0x18c>)
 8000c70:	0011      	movs	r1, r2
 8000c72:	0018      	movs	r0, r3
 8000c74:	f001 fdf6 	bl	8002864 <HAL_TIM_ConfigClockSource>
 8000c78:	1e03      	subs	r3, r0, #0
 8000c7a:	d001      	beq.n	8000c80 <MX_TIM1_Init+0x9c>
  {
    Error_Handler();
 8000c7c:	f7ff ff34 	bl	8000ae8 <Error_Handler>
  }
  if (HAL_TIM_PWM_Init(&htim1) != HAL_OK)
 8000c80:	4b3b      	ldr	r3, [pc, #236]	; (8000d70 <MX_TIM1_Init+0x18c>)
 8000c82:	0018      	movs	r0, r3
 8000c84:	f001 fc8e 	bl	80025a4 <HAL_TIM_PWM_Init>
 8000c88:	1e03      	subs	r3, r0, #0
 8000c8a:	d001      	beq.n	8000c90 <MX_TIM1_Init+0xac>
  {
    Error_Handler();
 8000c8c:	f7ff ff2c 	bl	8000ae8 <Error_Handler>
  }
  sMasterConfig.MasterOutputTrigger = TIM_TRGO_RESET;
 8000c90:	2154      	movs	r1, #84	; 0x54
 8000c92:	187b      	adds	r3, r7, r1
 8000c94:	2200      	movs	r2, #0
 8000c96:	601a      	str	r2, [r3, #0]
  sMasterConfig.MasterOutputTrigger2 = TIM_TRGO2_RESET;
 8000c98:	187b      	adds	r3, r7, r1
 8000c9a:	2200      	movs	r2, #0
 8000c9c:	605a      	str	r2, [r3, #4]
  sMasterConfig.MasterSlaveMode = TIM_MASTERSLAVEMODE_DISABLE;
 8000c9e:	187b      	adds	r3, r7, r1
 8000ca0:	2200      	movs	r2, #0
 8000ca2:	609a      	str	r2, [r3, #8]
  if (HAL_TIMEx_MasterConfigSynchronization(&htim1, &sMasterConfig) != HAL_OK)
 8000ca4:	187a      	adds	r2, r7, r1
 8000ca6:	4b32      	ldr	r3, [pc, #200]	; (8000d70 <MX_TIM1_Init+0x18c>)
 8000ca8:	0011      	movs	r1, r2
 8000caa:	0018      	movs	r0, r3
 8000cac:	f002 faa8 	bl	8003200 <HAL_TIMEx_MasterConfigSynchronization>
 8000cb0:	1e03      	subs	r3, r0, #0
 8000cb2:	d001      	beq.n	8000cb8 <MX_TIM1_Init+0xd4>
  {
    Error_Handler();
 8000cb4:	f7ff ff18 	bl	8000ae8 <Error_Handler>
  }
  sConfigOC.OCMode = TIM_OCMODE_PWM1;
 8000cb8:	2138      	movs	r1, #56	; 0x38
 8000cba:	187b      	adds	r3, r7, r1
 8000cbc:	2260      	movs	r2, #96	; 0x60
 8000cbe:	601a      	str	r2, [r3, #0]
  sConfigOC.Pulse = 0;
 8000cc0:	187b      	adds	r3, r7, r1
 8000cc2:	2200      	movs	r2, #0
 8000cc4:	605a      	str	r2, [r3, #4]
  sConfigOC.OCPolarity = TIM_OCPOLARITY_HIGH;
 8000cc6:	187b      	adds	r3, r7, r1
 8000cc8:	2200      	movs	r2, #0
 8000cca:	609a      	str	r2, [r3, #8]
  sConfigOC.OCNPolarity = TIM_OCNPOLARITY_HIGH;
 8000ccc:	187b      	adds	r3, r7, r1
 8000cce:	2200      	movs	r2, #0
 8000cd0:	60da      	str	r2, [r3, #12]
  sConfigOC.OCFastMode = TIM_OCFAST_DISABLE;
 8000cd2:	187b      	adds	r3, r7, r1
 8000cd4:	2200      	movs	r2, #0
 8000cd6:	611a      	str	r2, [r3, #16]
  sConfigOC.OCIdleState = TIM_OCIDLESTATE_RESET;
 8000cd8:	187b      	adds	r3, r7, r1
 8000cda:	2200      	movs	r2, #0
 8000cdc:	615a      	str	r2, [r3, #20]
  sConfigOC.OCNIdleState = TIM_OCNIDLESTATE_RESET;
 8000cde:	187b      	adds	r3, r7, r1
 8000ce0:	2200      	movs	r2, #0
 8000ce2:	619a      	str	r2, [r3, #24]
  if (HAL_TIM_PWM_ConfigChannel(&htim1, &sConfigOC, TIM_CHANNEL_2) != HAL_OK)
 8000ce4:	1879      	adds	r1, r7, r1
 8000ce6:	4b22      	ldr	r3, [pc, #136]	; (8000d70 <MX_TIM1_Init+0x18c>)
 8000ce8:	2204      	movs	r2, #4
 8000cea:	0018      	movs	r0, r3
 8000cec:	f001 fcba 	bl	8002664 <HAL_TIM_PWM_ConfigChannel>
 8000cf0:	1e03      	subs	r3, r0, #0
 8000cf2:	d001      	beq.n	8000cf8 <MX_TIM1_Init+0x114>
  {
    Error_Handler();
 8000cf4:	f7ff fef8 	bl	8000ae8 <Error_Handler>
  }
  sBreakDeadTimeConfig.OffStateRunMode = TIM_OSSR_DISABLE;
 8000cf8:	1d3b      	adds	r3, r7, #4
 8000cfa:	2200      	movs	r2, #0
 8000cfc:	601a      	str	r2, [r3, #0]
  sBreakDeadTimeConfig.OffStateIDLEMode = TIM_OSSI_DISABLE;
 8000cfe:	1d3b      	adds	r3, r7, #4
 8000d00:	2200      	movs	r2, #0
 8000d02:	605a      	str	r2, [r3, #4]
  sBreakDeadTimeConfig.LockLevel = TIM_LOCKLEVEL_OFF;
 8000d04:	1d3b      	adds	r3, r7, #4
 8000d06:	2200      	movs	r2, #0
 8000d08:	609a      	str	r2, [r3, #8]
  sBreakDeadTimeConfig.DeadTime = 0;
 8000d0a:	1d3b      	adds	r3, r7, #4
 8000d0c:	2200      	movs	r2, #0
 8000d0e:	60da      	str	r2, [r3, #12]
  sBreakDeadTimeConfig.BreakState = TIM_BREAK_DISABLE;
 8000d10:	1d3b      	adds	r3, r7, #4
 8000d12:	2200      	movs	r2, #0
 8000d14:	611a      	str	r2, [r3, #16]
  sBreakDeadTimeConfig.BreakPolarity = TIM_BREAKPOLARITY_HIGH;
 8000d16:	1d3b      	adds	r3, r7, #4
 8000d18:	2280      	movs	r2, #128	; 0x80
 8000d1a:	0192      	lsls	r2, r2, #6
 8000d1c:	615a      	str	r2, [r3, #20]
  sBreakDeadTimeConfig.BreakFilter = 0;
 8000d1e:	1d3b      	adds	r3, r7, #4
 8000d20:	2200      	movs	r2, #0
 8000d22:	619a      	str	r2, [r3, #24]
  sBreakDeadTimeConfig.BreakAFMode = TIM_BREAK_AFMODE_INPUT;
 8000d24:	1d3b      	adds	r3, r7, #4
 8000d26:	2200      	movs	r2, #0
 8000d28:	61da      	str	r2, [r3, #28]
  sBreakDeadTimeConfig.Break2State = TIM_BREAK2_DISABLE;
 8000d2a:	1d3b      	adds	r3, r7, #4
 8000d2c:	2200      	movs	r2, #0
 8000d2e:	621a      	str	r2, [r3, #32]
  sBreakDeadTimeConfig.Break2Polarity = TIM_BREAK2POLARITY_HIGH;
 8000d30:	1d3b      	adds	r3, r7, #4
 8000d32:	2280      	movs	r2, #128	; 0x80
 8000d34:	0492      	lsls	r2, r2, #18
 8000d36:	625a      	str	r2, [r3, #36]	; 0x24
  sBreakDeadTimeConfig.Break2Filter = 0;
 8000d38:	1d3b      	adds	r3, r7, #4
 8000d3a:	2200      	movs	r2, #0
 8000d3c:	629a      	str	r2, [r3, #40]	; 0x28
  sBreakDeadTimeConfig.Break2AFMode = TIM_BREAK_AFMODE_INPUT;
 8000d3e:	1d3b      	adds	r3, r7, #4
 8000d40:	2200      	movs	r2, #0
 8000d42:	62da      	str	r2, [r3, #44]	; 0x2c
  sBreakDeadTimeConfig.AutomaticOutput = TIM_AUTOMATICOUTPUT_DISABLE;
 8000d44:	1d3b      	adds	r3, r7, #4
 8000d46:	2200      	movs	r2, #0
 8000d48:	631a      	str	r2, [r3, #48]	; 0x30
  if (HAL_TIMEx_ConfigBreakDeadTime(&htim1, &sBreakDeadTimeConfig) != HAL_OK)
 8000d4a:	1d3a      	adds	r2, r7, #4
 8000d4c:	4b08      	ldr	r3, [pc, #32]	; (8000d70 <MX_TIM1_Init+0x18c>)
 8000d4e:	0011      	movs	r1, r2
 8000d50:	0018      	movs	r0, r3
 8000d52:	f002 facb 	bl	80032ec <HAL_TIMEx_ConfigBreakDeadTime>
 8000d56:	1e03      	subs	r3, r0, #0
 8000d58:	d001      	beq.n	8000d5e <MX_TIM1_Init+0x17a>
  {
    Error_Handler();
 8000d5a:	f7ff fec5 	bl	8000ae8 <Error_Handler>
  }
  /* USER CODE BEGIN TIM1_Init 2 */

  /* USER CODE END TIM1_Init 2 */
  HAL_TIM_MspPostInit(&htim1);
 8000d5e:	4b04      	ldr	r3, [pc, #16]	; (8000d70 <MX_TIM1_Init+0x18c>)
 8000d60:	0018      	movs	r0, r3
 8000d62:	f000 f841 	bl	8000de8 <HAL_TIM_MspPostInit>

}
 8000d66:	46c0      	nop			; (mov r8, r8)
 8000d68:	46bd      	mov	sp, r7
 8000d6a:	b01c      	add	sp, #112	; 0x70
 8000d6c:	bd80      	pop	{r7, pc}
 8000d6e:	46c0      	nop			; (mov r8, r8)
 8000d70:	20000094 	.word	0x20000094
 8000d74:	40012c00 	.word	0x40012c00
 8000d78:	00002710 	.word	0x00002710

08000d7c <HAL_TIM_Base_MspInit>:

void HAL_TIM_Base_MspInit(TIM_HandleTypeDef* tim_baseHandle)
{
 8000d7c:	b590      	push	{r4, r7, lr}
 8000d7e:	b097      	sub	sp, #92	; 0x5c
 8000d80:	af00      	add	r7, sp, #0
 8000d82:	6078      	str	r0, [r7, #4]

  RCC_PeriphCLKInitTypeDef PeriphClkInit = {0};
 8000d84:	240c      	movs	r4, #12
 8000d86:	193b      	adds	r3, r7, r4
 8000d88:	0018      	movs	r0, r3
 8000d8a:	234c      	movs	r3, #76	; 0x4c
 8000d8c:	001a      	movs	r2, r3
 8000d8e:	2100      	movs	r1, #0
 8000d90:	f003 fb00 	bl	8004394 <memset>
  if(tim_baseHandle->Instance==TIM1)
 8000d94:	687b      	ldr	r3, [r7, #4]
 8000d96:	681b      	ldr	r3, [r3, #0]
 8000d98:	4a11      	ldr	r2, [pc, #68]	; (8000de0 <HAL_TIM_Base_MspInit+0x64>)
 8000d9a:	4293      	cmp	r3, r2
 8000d9c:	d11c      	bne.n	8000dd8 <HAL_TIM_Base_MspInit+0x5c>

  /* USER CODE END TIM1_MspInit 0 */

  /** Initializes the peripherals clocks
  */
    PeriphClkInit.PeriphClockSelection = RCC_PERIPHCLK_TIM1;
 8000d9e:	193b      	adds	r3, r7, r4
 8000da0:	2280      	movs	r2, #128	; 0x80
 8000da2:	0392      	lsls	r2, r2, #14
 8000da4:	601a      	str	r2, [r3, #0]
    PeriphClkInit.Tim1ClockSelection = RCC_TIM1CLKSOURCE_PCLK1;
 8000da6:	193b      	adds	r3, r7, r4
 8000da8:	2200      	movs	r2, #0
 8000daa:	639a      	str	r2, [r3, #56]	; 0x38
    if (HAL_RCCEx_PeriphCLKConfig(&PeriphClkInit) != HAL_OK)
 8000dac:	193b      	adds	r3, r7, r4
 8000dae:	0018      	movs	r0, r3
 8000db0:	f001 f964 	bl	800207c <HAL_RCCEx_PeriphCLKConfig>
 8000db4:	1e03      	subs	r3, r0, #0
 8000db6:	d001      	beq.n	8000dbc <HAL_TIM_Base_MspInit+0x40>
    {
      Error_Handler();
 8000db8:	f7ff fe96 	bl	8000ae8 <Error_Handler>
    }

    /* TIM1 clock enable */
    __HAL_RCC_TIM1_CLK_ENABLE();
 8000dbc:	4b09      	ldr	r3, [pc, #36]	; (8000de4 <HAL_TIM_Base_MspInit+0x68>)
 8000dbe:	6c1a      	ldr	r2, [r3, #64]	; 0x40
 8000dc0:	4b08      	ldr	r3, [pc, #32]	; (8000de4 <HAL_TIM_Base_MspInit+0x68>)
 8000dc2:	2180      	movs	r1, #128	; 0x80
 8000dc4:	0109      	lsls	r1, r1, #4
 8000dc6:	430a      	orrs	r2, r1
 8000dc8:	641a      	str	r2, [r3, #64]	; 0x40
 8000dca:	4b06      	ldr	r3, [pc, #24]	; (8000de4 <HAL_TIM_Base_MspInit+0x68>)
 8000dcc:	6c1a      	ldr	r2, [r3, #64]	; 0x40
 8000dce:	2380      	movs	r3, #128	; 0x80
 8000dd0:	011b      	lsls	r3, r3, #4
 8000dd2:	4013      	ands	r3, r2
 8000dd4:	60bb      	str	r3, [r7, #8]
 8000dd6:	68bb      	ldr	r3, [r7, #8]
  /* USER CODE BEGIN TIM1_MspInit 1 */

  /* USER CODE END TIM1_MspInit 1 */
  }
}
 8000dd8:	46c0      	nop			; (mov r8, r8)
 8000dda:	46bd      	mov	sp, r7
 8000ddc:	b017      	add	sp, #92	; 0x5c
 8000dde:	bd90      	pop	{r4, r7, pc}
 8000de0:	40012c00 	.word	0x40012c00
 8000de4:	40021000 	.word	0x40021000

08000de8 <HAL_TIM_MspPostInit>:
void HAL_TIM_MspPostInit(TIM_HandleTypeDef* timHandle)
{
 8000de8:	b590      	push	{r4, r7, lr}
 8000dea:	b089      	sub	sp, #36	; 0x24
 8000dec:	af00      	add	r7, sp, #0
 8000dee:	6078      	str	r0, [r7, #4]

  GPIO_InitTypeDef GPIO_InitStruct = {0};
 8000df0:	240c      	movs	r4, #12
 8000df2:	193b      	adds	r3, r7, r4
 8000df4:	0018      	movs	r0, r3
 8000df6:	2314      	movs	r3, #20
 8000df8:	001a      	movs	r2, r3
 8000dfa:	2100      	movs	r1, #0
 8000dfc:	f003 faca 	bl	8004394 <memset>
  if(timHandle->Instance==TIM1)
 8000e00:	687b      	ldr	r3, [r7, #4]
 8000e02:	681b      	ldr	r3, [r3, #0]
 8000e04:	4a14      	ldr	r2, [pc, #80]	; (8000e58 <HAL_TIM_MspPostInit+0x70>)
 8000e06:	4293      	cmp	r3, r2
 8000e08:	d121      	bne.n	8000e4e <HAL_TIM_MspPostInit+0x66>
  {
  /* USER CODE BEGIN TIM1_MspPostInit 0 */

  /* USER CODE END TIM1_MspPostInit 0 */

    __HAL_RCC_GPIOB_CLK_ENABLE();
 8000e0a:	4b14      	ldr	r3, [pc, #80]	; (8000e5c <HAL_TIM_MspPostInit+0x74>)
 8000e0c:	6b5a      	ldr	r2, [r3, #52]	; 0x34
 8000e0e:	4b13      	ldr	r3, [pc, #76]	; (8000e5c <HAL_TIM_MspPostInit+0x74>)
 8000e10:	2102      	movs	r1, #2
 8000e12:	430a      	orrs	r2, r1
 8000e14:	635a      	str	r2, [r3, #52]	; 0x34
 8000e16:	4b11      	ldr	r3, [pc, #68]	; (8000e5c <HAL_TIM_MspPostInit+0x74>)
 8000e18:	6b5b      	ldr	r3, [r3, #52]	; 0x34
 8000e1a:	2202      	movs	r2, #2
 8000e1c:	4013      	ands	r3, r2
 8000e1e:	60bb      	str	r3, [r7, #8]
 8000e20:	68bb      	ldr	r3, [r7, #8]
    /**TIM1 GPIO Configuration
    PB3     ------> TIM1_CH2
    */
    GPIO_InitStruct.Pin = GPIO_PIN_3;
 8000e22:	0021      	movs	r1, r4
 8000e24:	187b      	adds	r3, r7, r1
 8000e26:	2208      	movs	r2, #8
 8000e28:	601a      	str	r2, [r3, #0]
    GPIO_InitStruct.Mode = GPIO_MODE_AF_PP;
 8000e2a:	187b      	adds	r3, r7, r1
 8000e2c:	2202      	movs	r2, #2
 8000e2e:	605a      	str	r2, [r3, #4]
    GPIO_InitStruct.Pull = GPIO_NOPULL;
 8000e30:	187b      	adds	r3, r7, r1
 8000e32:	2200      	movs	r2, #0
 8000e34:	609a      	str	r2, [r3, #8]
    GPIO_InitStruct.Speed = GPIO_SPEED_FREQ_LOW;
 8000e36:	187b      	adds	r3, r7, r1
 8000e38:	2200      	movs	r2, #0
 8000e3a:	60da      	str	r2, [r3, #12]
    GPIO_InitStruct.Alternate = GPIO_AF1_TIM1;
 8000e3c:	187b      	adds	r3, r7, r1
 8000e3e:	2201      	movs	r2, #1
 8000e40:	611a      	str	r2, [r3, #16]
    HAL_GPIO_Init(GPIOB, &GPIO_InitStruct);
 8000e42:	187b      	adds	r3, r7, r1
 8000e44:	4a06      	ldr	r2, [pc, #24]	; (8000e60 <HAL_TIM_MspPostInit+0x78>)
 8000e46:	0019      	movs	r1, r3
 8000e48:	0010      	movs	r0, r2
 8000e4a:	f000 fa1d 	bl	8001288 <HAL_GPIO_Init>
  /* USER CODE BEGIN TIM1_MspPostInit 1 */

  /* USER CODE END TIM1_MspPostInit 1 */
  }

}
 8000e4e:	46c0      	nop			; (mov r8, r8)
 8000e50:	46bd      	mov	sp, r7
 8000e52:	b009      	add	sp, #36	; 0x24
 8000e54:	bd90      	pop	{r4, r7, pc}
 8000e56:	46c0      	nop			; (mov r8, r8)
 8000e58:	40012c00 	.word	0x40012c00
 8000e5c:	40021000 	.word	0x40021000
 8000e60:	50000400 	.word	0x50000400

08000e64 <MX_USART2_UART_Init>:
UART_HandleTypeDef huart2;

/* USART2 init function */

void MX_USART2_UART_Init(void)
{
 8000e64:	b580      	push	{r7, lr}
 8000e66:	af00      	add	r7, sp, #0
  /* USER CODE END USART2_Init 0 */

  /* USER CODE BEGIN USART2_Init 1 */

  /* USER CODE END USART2_Init 1 */
  huart2.Instance = USART2;
 8000e68:	4b23      	ldr	r3, [pc, #140]	; (8000ef8 <MX_USART2_UART_Init+0x94>)
 8000e6a:	4a24      	ldr	r2, [pc, #144]	; (8000efc <MX_USART2_UART_Init+0x98>)
 8000e6c:	601a      	str	r2, [r3, #0]
  huart2.Init.BaudRate = 115200;
 8000e6e:	4b22      	ldr	r3, [pc, #136]	; (8000ef8 <MX_USART2_UART_Init+0x94>)
 8000e70:	22e1      	movs	r2, #225	; 0xe1
 8000e72:	0252      	lsls	r2, r2, #9
 8000e74:	605a      	str	r2, [r3, #4]
  huart2.Init.WordLength = UART_WORDLENGTH_8B;
 8000e76:	4b20      	ldr	r3, [pc, #128]	; (8000ef8 <MX_USART2_UART_Init+0x94>)
 8000e78:	2200      	movs	r2, #0
 8000e7a:	609a      	str	r2, [r3, #8]
  huart2.Init.StopBits = UART_STOPBITS_1;
 8000e7c:	4b1e      	ldr	r3, [pc, #120]	; (8000ef8 <MX_USART2_UART_Init+0x94>)
 8000e7e:	2200      	movs	r2, #0
 8000e80:	60da      	str	r2, [r3, #12]
  huart2.Init.Parity = UART_PARITY_NONE;
 8000e82:	4b1d      	ldr	r3, [pc, #116]	; (8000ef8 <MX_USART2_UART_Init+0x94>)
 8000e84:	2200      	movs	r2, #0
 8000e86:	611a      	str	r2, [r3, #16]
  huart2.Init.Mode = UART_MODE_TX_RX;
 8000e88:	4b1b      	ldr	r3, [pc, #108]	; (8000ef8 <MX_USART2_UART_Init+0x94>)
 8000e8a:	220c      	movs	r2, #12
 8000e8c:	615a      	str	r2, [r3, #20]
  huart2.Init.HwFlowCtl = UART_HWCONTROL_NONE;
 8000e8e:	4b1a      	ldr	r3, [pc, #104]	; (8000ef8 <MX_USART2_UART_Init+0x94>)
 8000e90:	2200      	movs	r2, #0
 8000e92:	619a      	str	r2, [r3, #24]
  huart2.Init.OverSampling = UART_OVERSAMPLING_16;
 8000e94:	4b18      	ldr	r3, [pc, #96]	; (8000ef8 <MX_USART2_UART_Init+0x94>)
 8000e96:	2200      	movs	r2, #0
 8000e98:	61da      	str	r2, [r3, #28]
  huart2.Init.OneBitSampling = UART_ONE_BIT_SAMPLE_DISABLE;
 8000e9a:	4b17      	ldr	r3, [pc, #92]	; (8000ef8 <MX_USART2_UART_Init+0x94>)
 8000e9c:	2200      	movs	r2, #0
 8000e9e:	621a      	str	r2, [r3, #32]
  huart2.Init.ClockPrescaler = UART_PRESCALER_DIV1;
 8000ea0:	4b15      	ldr	r3, [pc, #84]	; (8000ef8 <MX_USART2_UART_Init+0x94>)
 8000ea2:	2200      	movs	r2, #0
 8000ea4:	625a      	str	r2, [r3, #36]	; 0x24
  huart2.AdvancedInit.AdvFeatureInit = UART_ADVFEATURE_NO_INIT;
 8000ea6:	4b14      	ldr	r3, [pc, #80]	; (8000ef8 <MX_USART2_UART_Init+0x94>)
 8000ea8:	2200      	movs	r2, #0
 8000eaa:	629a      	str	r2, [r3, #40]	; 0x28
  if (HAL_UART_Init(&huart2) != HAL_OK)
 8000eac:	4b12      	ldr	r3, [pc, #72]	; (8000ef8 <MX_USART2_UART_Init+0x94>)
 8000eae:	0018      	movs	r0, r3
 8000eb0:	f002 fab8 	bl	8003424 <HAL_UART_Init>
 8000eb4:	1e03      	subs	r3, r0, #0
 8000eb6:	d001      	beq.n	8000ebc <MX_USART2_UART_Init+0x58>
  {
    Error_Handler();
 8000eb8:	f7ff fe16 	bl	8000ae8 <Error_Handler>
  }
  if (HAL_UARTEx_SetTxFifoThreshold(&huart2, UART_TXFIFO_THRESHOLD_1_8) != HAL_OK)
 8000ebc:	4b0e      	ldr	r3, [pc, #56]	; (8000ef8 <MX_USART2_UART_Init+0x94>)
 8000ebe:	2100      	movs	r1, #0
 8000ec0:	0018      	movs	r0, r3
 8000ec2:	f003 f8c9 	bl	8004058 <HAL_UARTEx_SetTxFifoThreshold>
 8000ec6:	1e03      	subs	r3, r0, #0
 8000ec8:	d001      	beq.n	8000ece <MX_USART2_UART_Init+0x6a>
  {
    Error_Handler();
 8000eca:	f7ff fe0d 	bl	8000ae8 <Error_Handler>
  }
  if (HAL_UARTEx_SetRxFifoThreshold(&huart2, UART_RXFIFO_THRESHOLD_1_8) != HAL_OK)
 8000ece:	4b0a      	ldr	r3, [pc, #40]	; (8000ef8 <MX_USART2_UART_Init+0x94>)
 8000ed0:	2100      	movs	r1, #0
 8000ed2:	0018      	movs	r0, r3
 8000ed4:	f003 f900 	bl	80040d8 <HAL_UARTEx_SetRxFifoThreshold>
 8000ed8:	1e03      	subs	r3, r0, #0
 8000eda:	d001      	beq.n	8000ee0 <MX_USART2_UART_Init+0x7c>
  {
    Error_Handler();
 8000edc:	f7ff fe04 	bl	8000ae8 <Error_Handler>
  }
  if (HAL_UARTEx_DisableFifoMode(&huart2) != HAL_OK)
 8000ee0:	4b05      	ldr	r3, [pc, #20]	; (8000ef8 <MX_USART2_UART_Init+0x94>)
 8000ee2:	0018      	movs	r0, r3
 8000ee4:	f003 f87e 	bl	8003fe4 <HAL_UARTEx_DisableFifoMode>
 8000ee8:	1e03      	subs	r3, r0, #0
 8000eea:	d001      	beq.n	8000ef0 <MX_USART2_UART_Init+0x8c>
  {
    Error_Handler();
 8000eec:	f7ff fdfc 	bl	8000ae8 <Error_Handler>
  }
  /* USER CODE BEGIN USART2_Init 2 */

  /* USER CODE END USART2_Init 2 */

}
 8000ef0:	46c0      	nop			; (mov r8, r8)
 8000ef2:	46bd      	mov	sp, r7
 8000ef4:	bd80      	pop	{r7, pc}
 8000ef6:	46c0      	nop			; (mov r8, r8)
 8000ef8:	200000e0 	.word	0x200000e0
 8000efc:	40004400 	.word	0x40004400

08000f00 <HAL_UART_MspInit>:

void HAL_UART_MspInit(UART_HandleTypeDef* uartHandle)
{
 8000f00:	b590      	push	{r4, r7, lr}
 8000f02:	b09d      	sub	sp, #116	; 0x74
 8000f04:	af00      	add	r7, sp, #0
 8000f06:	6078      	str	r0, [r7, #4]

  GPIO_InitTypeDef GPIO_InitStruct = {0};
 8000f08:	235c      	movs	r3, #92	; 0x5c
 8000f0a:	18fb      	adds	r3, r7, r3
 8000f0c:	0018      	movs	r0, r3
 8000f0e:	2314      	movs	r3, #20
 8000f10:	001a      	movs	r2, r3
 8000f12:	2100      	movs	r1, #0
 8000f14:	f003 fa3e 	bl	8004394 <memset>
  RCC_PeriphCLKInitTypeDef PeriphClkInit = {0};
 8000f18:	2410      	movs	r4, #16
 8000f1a:	193b      	adds	r3, r7, r4
 8000f1c:	0018      	movs	r0, r3
 8000f1e:	234c      	movs	r3, #76	; 0x4c
 8000f20:	001a      	movs	r2, r3
 8000f22:	2100      	movs	r1, #0
 8000f24:	f003 fa36 	bl	8004394 <memset>
  if(uartHandle->Instance==USART2)
 8000f28:	687b      	ldr	r3, [r7, #4]
 8000f2a:	681b      	ldr	r3, [r3, #0]
 8000f2c:	4a22      	ldr	r2, [pc, #136]	; (8000fb8 <HAL_UART_MspInit+0xb8>)
 8000f2e:	4293      	cmp	r3, r2
 8000f30:	d13e      	bne.n	8000fb0 <HAL_UART_MspInit+0xb0>

  /* USER CODE END USART2_MspInit 0 */

  /** Initializes the peripherals clocks
  */
    PeriphClkInit.PeriphClockSelection = RCC_PERIPHCLK_USART2;
 8000f32:	193b      	adds	r3, r7, r4
 8000f34:	2202      	movs	r2, #2
 8000f36:	601a      	str	r2, [r3, #0]
    PeriphClkInit.Usart2ClockSelection = RCC_USART2CLKSOURCE_PCLK1;
 8000f38:	193b      	adds	r3, r7, r4
 8000f3a:	2200      	movs	r2, #0
 8000f3c:	609a      	str	r2, [r3, #8]
    if (HAL_RCCEx_PeriphCLKConfig(&PeriphClkInit) != HAL_OK)
 8000f3e:	193b      	adds	r3, r7, r4
 8000f40:	0018      	movs	r0, r3
 8000f42:	f001 f89b 	bl	800207c <HAL_RCCEx_PeriphCLKConfig>
 8000f46:	1e03      	subs	r3, r0, #0
 8000f48:	d001      	beq.n	8000f4e <HAL_UART_MspInit+0x4e>
    {
      Error_Handler();
 8000f4a:	f7ff fdcd 	bl	8000ae8 <Error_Handler>
    }

    /* USART2 clock enable */
    __HAL_RCC_USART2_CLK_ENABLE();
 8000f4e:	4b1b      	ldr	r3, [pc, #108]	; (8000fbc <HAL_UART_MspInit+0xbc>)
 8000f50:	6bda      	ldr	r2, [r3, #60]	; 0x3c
 8000f52:	4b1a      	ldr	r3, [pc, #104]	; (8000fbc <HAL_UART_MspInit+0xbc>)
 8000f54:	2180      	movs	r1, #128	; 0x80
 8000f56:	0289      	lsls	r1, r1, #10
 8000f58:	430a      	orrs	r2, r1
 8000f5a:	63da      	str	r2, [r3, #60]	; 0x3c
 8000f5c:	4b17      	ldr	r3, [pc, #92]	; (8000fbc <HAL_UART_MspInit+0xbc>)
 8000f5e:	6bda      	ldr	r2, [r3, #60]	; 0x3c
 8000f60:	2380      	movs	r3, #128	; 0x80
 8000f62:	029b      	lsls	r3, r3, #10
 8000f64:	4013      	ands	r3, r2
 8000f66:	60fb      	str	r3, [r7, #12]
 8000f68:	68fb      	ldr	r3, [r7, #12]

    __HAL_RCC_GPIOA_CLK_ENABLE();
 8000f6a:	4b14      	ldr	r3, [pc, #80]	; (8000fbc <HAL_UART_MspInit+0xbc>)
 8000f6c:	6b5a      	ldr	r2, [r3, #52]	; 0x34
 8000f6e:	4b13      	ldr	r3, [pc, #76]	; (8000fbc <HAL_UART_MspInit+0xbc>)
 8000f70:	2101      	movs	r1, #1
 8000f72:	430a      	orrs	r2, r1
 8000f74:	635a      	str	r2, [r3, #52]	; 0x34
 8000f76:	4b11      	ldr	r3, [pc, #68]	; (8000fbc <HAL_UART_MspInit+0xbc>)
 8000f78:	6b5b      	ldr	r3, [r3, #52]	; 0x34
 8000f7a:	2201      	movs	r2, #1
 8000f7c:	4013      	ands	r3, r2
 8000f7e:	60bb      	str	r3, [r7, #8]
 8000f80:	68bb      	ldr	r3, [r7, #8]
    /**USART2 GPIO Configuration
    PA2     ------> USART2_TX
    PA3     ------> USART2_RX
    */
    GPIO_InitStruct.Pin = USART2_TX_Pin|USART2_RX_Pin;
 8000f82:	215c      	movs	r1, #92	; 0x5c
 8000f84:	187b      	adds	r3, r7, r1
 8000f86:	220c      	movs	r2, #12
 8000f88:	601a      	str	r2, [r3, #0]
    GPIO_InitStruct.Mode = GPIO_MODE_AF_PP;
 8000f8a:	187b      	adds	r3, r7, r1
 8000f8c:	2202      	movs	r2, #2
 8000f8e:	605a      	str	r2, [r3, #4]
    GPIO_InitStruct.Pull = GPIO_NOPULL;
 8000f90:	187b      	adds	r3, r7, r1
 8000f92:	2200      	movs	r2, #0
 8000f94:	609a      	str	r2, [r3, #8]
    GPIO_InitStruct.Speed = GPIO_SPEED_FREQ_LOW;
 8000f96:	187b      	adds	r3, r7, r1
 8000f98:	2200      	movs	r2, #0
 8000f9a:	60da      	str	r2, [r3, #12]
    GPIO_InitStruct.Alternate = GPIO_AF1_USART2;
 8000f9c:	187b      	adds	r3, r7, r1
 8000f9e:	2201      	movs	r2, #1
 8000fa0:	611a      	str	r2, [r3, #16]
    HAL_GPIO_Init(GPIOA, &GPIO_InitStruct);
 8000fa2:	187a      	adds	r2, r7, r1
 8000fa4:	23a0      	movs	r3, #160	; 0xa0
 8000fa6:	05db      	lsls	r3, r3, #23
 8000fa8:	0011      	movs	r1, r2
 8000faa:	0018      	movs	r0, r3
 8000fac:	f000 f96c 	bl	8001288 <HAL_GPIO_Init>

  /* USER CODE BEGIN USART2_MspInit 1 */

  /* USER CODE END USART2_MspInit 1 */
  }
}
 8000fb0:	46c0      	nop			; (mov r8, r8)
 8000fb2:	46bd      	mov	sp, r7
 8000fb4:	b01d      	add	sp, #116	; 0x74
 8000fb6:	bd90      	pop	{r4, r7, pc}
 8000fb8:	40004400 	.word	0x40004400
 8000fbc:	40021000 	.word	0x40021000

08000fc0 <Reset_Handler>:

  .section .text.Reset_Handler
  .weak Reset_Handler
  .type Reset_Handler, %function
Reset_Handler:
  ldr   r0, =_estack
 8000fc0:	480d      	ldr	r0, [pc, #52]	; (8000ff8 <LoopForever+0x2>)
  mov   sp, r0          /* set stack pointer */
 8000fc2:	4685      	mov	sp, r0

/* Call the clock system initialization function.*/
  bl  SystemInit
 8000fc4:	f7ff fe08 	bl	8000bd8 <SystemInit>

/* Copy the data segment initializers from flash to SRAM */
  ldr r0, =_sdata
 8000fc8:	480c      	ldr	r0, [pc, #48]	; (8000ffc <LoopForever+0x6>)
  ldr r1, =_edata
 8000fca:	490d      	ldr	r1, [pc, #52]	; (8001000 <LoopForever+0xa>)
  ldr r2, =_sidata
 8000fcc:	4a0d      	ldr	r2, [pc, #52]	; (8001004 <LoopForever+0xe>)
  movs r3, #0
 8000fce:	2300      	movs	r3, #0
  b LoopCopyDataInit
 8000fd0:	e002      	b.n	8000fd8 <LoopCopyDataInit>

08000fd2 <CopyDataInit>:

CopyDataInit:
  ldr r4, [r2, r3]
 8000fd2:	58d4      	ldr	r4, [r2, r3]
  str r4, [r0, r3]
 8000fd4:	50c4      	str	r4, [r0, r3]
  adds r3, r3, #4
 8000fd6:	3304      	adds	r3, #4

08000fd8 <LoopCopyDataInit>:

LoopCopyDataInit:
  adds r4, r0, r3
 8000fd8:	18c4      	adds	r4, r0, r3
  cmp r4, r1
 8000fda:	428c      	cmp	r4, r1
  bcc CopyDataInit
 8000fdc:	d3f9      	bcc.n	8000fd2 <CopyDataInit>

/* Zero fill the bss segment. */
  ldr r2, =_sbss
 8000fde:	4a0a      	ldr	r2, [pc, #40]	; (8001008 <LoopForever+0x12>)
  ldr r4, =_ebss
 8000fe0:	4c0a      	ldr	r4, [pc, #40]	; (800100c <LoopForever+0x16>)
  movs r3, #0
 8000fe2:	2300      	movs	r3, #0
  b LoopFillZerobss
 8000fe4:	e001      	b.n	8000fea <LoopFillZerobss>

08000fe6 <FillZerobss>:

FillZerobss:
  str  r3, [r2]
 8000fe6:	6013      	str	r3, [r2, #0]
  adds r2, r2, #4
 8000fe8:	3204      	adds	r2, #4

08000fea <LoopFillZerobss>:

LoopFillZerobss:
  cmp r2, r4
 8000fea:	42a2      	cmp	r2, r4
  bcc FillZerobss
 8000fec:	d3fb      	bcc.n	8000fe6 <FillZerobss>

/* Call static constructors */
  bl __libc_init_array
 8000fee:	f003 f9f1 	bl	80043d4 <__libc_init_array>
/* Call the application s entry point.*/
  bl main
 8000ff2:	f7ff fd19 	bl	8000a28 <main>

08000ff6 <LoopForever>:

LoopForever:
  b LoopForever
 8000ff6:	e7fe      	b.n	8000ff6 <LoopForever>
  ldr   r0, =_estack
 8000ff8:	20024000 	.word	0x20024000
  ldr r0, =_sdata
 8000ffc:	20000000 	.word	0x20000000
  ldr r1, =_edata
 8001000:	2000005c 	.word	0x2000005c
  ldr r2, =_sidata
 8001004:	0800454c 	.word	0x0800454c
  ldr r2, =_sbss
 8001008:	2000005c 	.word	0x2000005c
  ldr r4, =_ebss
 800100c:	200002c0 	.word	0x200002c0

08001010 <ADC1_COMP_IRQHandler>:
 * @retval None
*/
  .section .text.Default_Handler,"ax",%progbits
Default_Handler:
Infinite_Loop:
  b Infinite_Loop
 8001010:	e7fe      	b.n	8001010 <ADC1_COMP_IRQHandler>
	...

08001014 <HAL_Init>:
  *         each 1ms in the SysTick_Handler() interrupt handler.
  *
  * @retval HAL status
  */
HAL_StatusTypeDef HAL_Init(void)
{
 8001014:	b580      	push	{r7, lr}
 8001016:	b082      	sub	sp, #8
 8001018:	af00      	add	r7, sp, #0
  HAL_StatusTypeDef  status = HAL_OK;
 800101a:	1dfb      	adds	r3, r7, #7
 800101c:	2200      	movs	r2, #0
 800101e:	701a      	strb	r2, [r3, #0]
#if (INSTRUCTION_CACHE_ENABLE == 0U)
  __HAL_FLASH_INSTRUCTION_CACHE_DISABLE();
#endif /* INSTRUCTION_CACHE_ENABLE */

#if (PREFETCH_ENABLE != 0U)
  __HAL_FLASH_PREFETCH_BUFFER_ENABLE();
 8001020:	4b0b      	ldr	r3, [pc, #44]	; (8001050 <HAL_Init+0x3c>)
 8001022:	681a      	ldr	r2, [r3, #0]
 8001024:	4b0a      	ldr	r3, [pc, #40]	; (8001050 <HAL_Init+0x3c>)
 8001026:	2180      	movs	r1, #128	; 0x80
 8001028:	0049      	lsls	r1, r1, #1
 800102a:	430a      	orrs	r2, r1
 800102c:	601a      	str	r2, [r3, #0]
#endif /* PREFETCH_ENABLE */

  /* Use SysTick as time base source and configure 1ms tick (default clock after Reset is HSI) */
  if (HAL_InitTick(TICK_INT_PRIORITY) != HAL_OK)
 800102e:	2000      	movs	r0, #0
 8001030:	f000 f810 	bl	8001054 <HAL_InitTick>
 8001034:	1e03      	subs	r3, r0, #0
 8001036:	d003      	beq.n	8001040 <HAL_Init+0x2c>
  {
    status = HAL_ERROR;
 8001038:	1dfb      	adds	r3, r7, #7
 800103a:	2201      	movs	r2, #1
 800103c:	701a      	strb	r2, [r3, #0]
 800103e:	e001      	b.n	8001044 <HAL_Init+0x30>
  }
  else
  {
  /* Init the low level hardware */
  HAL_MspInit();
 8001040:	f7ff fd58 	bl	8000af4 <HAL_MspInit>
  }

  /* Return function status */
  return status;
 8001044:	1dfb      	adds	r3, r7, #7
 8001046:	781b      	ldrb	r3, [r3, #0]
}
 8001048:	0018      	movs	r0, r3
 800104a:	46bd      	mov	sp, r7
 800104c:	b002      	add	sp, #8
 800104e:	bd80      	pop	{r7, pc}
 8001050:	40022000 	.word	0x40022000

08001054 <HAL_InitTick>:
  *       implementation  in user file.
  * @param TickPriority Tick interrupt priority.
  * @retval HAL status
  */
__weak HAL_StatusTypeDef HAL_InitTick(uint32_t TickPriority)
{
 8001054:	b590      	push	{r4, r7, lr}
 8001056:	b085      	sub	sp, #20
 8001058:	af00      	add	r7, sp, #0
 800105a:	6078      	str	r0, [r7, #4]
  HAL_StatusTypeDef  status = HAL_OK;
 800105c:	230f      	movs	r3, #15
 800105e:	18fb      	adds	r3, r7, r3
 8001060:	2200      	movs	r2, #0
 8001062:	701a      	strb	r2, [r3, #0]

  /* Check uwTickFreq for MisraC 2012 (even if uwTickFreq is a enum type that doesn't take the value zero)*/ 
  if ((uint32_t)uwTickFreq != 0U)
 8001064:	4b1d      	ldr	r3, [pc, #116]	; (80010dc <HAL_InitTick+0x88>)
 8001066:	781b      	ldrb	r3, [r3, #0]
 8001068:	2b00      	cmp	r3, #0
 800106a:	d02b      	beq.n	80010c4 <HAL_InitTick+0x70>
  {
    /*Configure the SysTick to have interrupt in 1ms time basis*/
    if (HAL_SYSTICK_Config(SystemCoreClock / (1000U /(uint32_t)uwTickFreq)) == 0U)
 800106c:	4b1c      	ldr	r3, [pc, #112]	; (80010e0 <HAL_InitTick+0x8c>)
 800106e:	681c      	ldr	r4, [r3, #0]
 8001070:	4b1a      	ldr	r3, [pc, #104]	; (80010dc <HAL_InitTick+0x88>)
 8001072:	781b      	ldrb	r3, [r3, #0]
 8001074:	0019      	movs	r1, r3
 8001076:	23fa      	movs	r3, #250	; 0xfa
 8001078:	0098      	lsls	r0, r3, #2
 800107a:	f7ff f843 	bl	8000104 <__udivsi3>
 800107e:	0003      	movs	r3, r0
 8001080:	0019      	movs	r1, r3
 8001082:	0020      	movs	r0, r4
 8001084:	f7ff f83e 	bl	8000104 <__udivsi3>
 8001088:	0003      	movs	r3, r0
 800108a:	0018      	movs	r0, r3
 800108c:	f000 f8ef 	bl	800126e <HAL_SYSTICK_Config>
 8001090:	1e03      	subs	r3, r0, #0
 8001092:	d112      	bne.n	80010ba <HAL_InitTick+0x66>
    {
      /* Configure the SysTick IRQ priority */
      if (TickPriority < (1UL << __NVIC_PRIO_BITS))
 8001094:	687b      	ldr	r3, [r7, #4]
 8001096:	2b03      	cmp	r3, #3
 8001098:	d80a      	bhi.n	80010b0 <HAL_InitTick+0x5c>
      {
        HAL_NVIC_SetPriority(SysTick_IRQn, TickPriority, 0U);
 800109a:	6879      	ldr	r1, [r7, #4]
 800109c:	2301      	movs	r3, #1
 800109e:	425b      	negs	r3, r3
 80010a0:	2200      	movs	r2, #0
 80010a2:	0018      	movs	r0, r3
 80010a4:	f000 f8ce 	bl	8001244 <HAL_NVIC_SetPriority>
        uwTickPrio = TickPriority;
 80010a8:	4b0e      	ldr	r3, [pc, #56]	; (80010e4 <HAL_InitTick+0x90>)
 80010aa:	687a      	ldr	r2, [r7, #4]
 80010ac:	601a      	str	r2, [r3, #0]
 80010ae:	e00d      	b.n	80010cc <HAL_InitTick+0x78>
      }
      else
      {
        status = HAL_ERROR;
 80010b0:	230f      	movs	r3, #15
 80010b2:	18fb      	adds	r3, r7, r3
 80010b4:	2201      	movs	r2, #1
 80010b6:	701a      	strb	r2, [r3, #0]
 80010b8:	e008      	b.n	80010cc <HAL_InitTick+0x78>
      }
    }
    else
    {
      status = HAL_ERROR;
 80010ba:	230f      	movs	r3, #15
 80010bc:	18fb      	adds	r3, r7, r3
 80010be:	2201      	movs	r2, #1
 80010c0:	701a      	strb	r2, [r3, #0]
 80010c2:	e003      	b.n	80010cc <HAL_InitTick+0x78>
    }
  }
  else
  {
    status = HAL_ERROR;
 80010c4:	230f      	movs	r3, #15
 80010c6:	18fb      	adds	r3, r7, r3
 80010c8:	2201      	movs	r2, #1
 80010ca:	701a      	strb	r2, [r3, #0]
  }

  /* Return function status */
  return status;
 80010cc:	230f      	movs	r3, #15
 80010ce:	18fb      	adds	r3, r7, r3
 80010d0:	781b      	ldrb	r3, [r3, #0]
}
 80010d2:	0018      	movs	r0, r3
 80010d4:	46bd      	mov	sp, r7
 80010d6:	b005      	add	sp, #20
 80010d8:	bd90      	pop	{r4, r7, pc}
 80010da:	46c0      	nop			; (mov r8, r8)
 80010dc:	20000008 	.word	0x20000008
 80010e0:	20000000 	.word	0x20000000
 80010e4:	20000004 	.word	0x20000004

080010e8 <HAL_IncTick>:
  * @note This function is declared as __weak to be overwritten in case of other
  *      implementations in user file.
  * @retval None
  */
__weak void HAL_IncTick(void)
{
 80010e8:	b580      	push	{r7, lr}
 80010ea:	af00      	add	r7, sp, #0
  uwTick += (uint32_t)uwTickFreq;
 80010ec:	4b05      	ldr	r3, [pc, #20]	; (8001104 <HAL_IncTick+0x1c>)
 80010ee:	781b      	ldrb	r3, [r3, #0]
 80010f0:	001a      	movs	r2, r3
 80010f2:	4b05      	ldr	r3, [pc, #20]	; (8001108 <HAL_IncTick+0x20>)
 80010f4:	681b      	ldr	r3, [r3, #0]
 80010f6:	18d2      	adds	r2, r2, r3
 80010f8:	4b03      	ldr	r3, [pc, #12]	; (8001108 <HAL_IncTick+0x20>)
 80010fa:	601a      	str	r2, [r3, #0]
}
 80010fc:	46c0      	nop			; (mov r8, r8)
 80010fe:	46bd      	mov	sp, r7
 8001100:	bd80      	pop	{r7, pc}
 8001102:	46c0      	nop			; (mov r8, r8)
 8001104:	20000008 	.word	0x20000008
 8001108:	20000174 	.word	0x20000174

0800110c <HAL_GetTick>:
  * @note This function is declared as __weak to be overwritten in case of other
  *       implementations in user file.
  * @retval tick value
  */
__weak uint32_t HAL_GetTick(void)
{
 800110c:	b580      	push	{r7, lr}
 800110e:	af00      	add	r7, sp, #0
  return uwTick;
 8001110:	4b02      	ldr	r3, [pc, #8]	; (800111c <HAL_GetTick+0x10>)
 8001112:	681b      	ldr	r3, [r3, #0]
}
 8001114:	0018      	movs	r0, r3
 8001116:	46bd      	mov	sp, r7
 8001118:	bd80      	pop	{r7, pc}
 800111a:	46c0      	nop			; (mov r8, r8)
 800111c:	20000174 	.word	0x20000174

08001120 <__NVIC_SetPriority>:
  \param [in]      IRQn  Interrupt number.
  \param [in]  priority  Priority to set.
  \note    The priority cannot be set for every processor exception.
 */
__STATIC_INLINE void __NVIC_SetPriority(IRQn_Type IRQn, uint32_t priority)
{
 8001120:	b590      	push	{r4, r7, lr}
 8001122:	b083      	sub	sp, #12
 8001124:	af00      	add	r7, sp, #0
 8001126:	0002      	movs	r2, r0
 8001128:	6039      	str	r1, [r7, #0]
 800112a:	1dfb      	adds	r3, r7, #7
 800112c:	701a      	strb	r2, [r3, #0]
  if ((int32_t)(IRQn) >= 0)
 800112e:	1dfb      	adds	r3, r7, #7
 8001130:	781b      	ldrb	r3, [r3, #0]
 8001132:	2b7f      	cmp	r3, #127	; 0x7f
 8001134:	d828      	bhi.n	8001188 <__NVIC_SetPriority+0x68>
  {
    NVIC->IP[_IP_IDX(IRQn)]  = ((uint32_t)(NVIC->IP[_IP_IDX(IRQn)]  & ~(0xFFUL << _BIT_SHIFT(IRQn))) |
 8001136:	4a2f      	ldr	r2, [pc, #188]	; (80011f4 <__NVIC_SetPriority+0xd4>)
 8001138:	1dfb      	adds	r3, r7, #7
 800113a:	781b      	ldrb	r3, [r3, #0]
 800113c:	b25b      	sxtb	r3, r3
 800113e:	089b      	lsrs	r3, r3, #2
 8001140:	33c0      	adds	r3, #192	; 0xc0
 8001142:	009b      	lsls	r3, r3, #2
 8001144:	589b      	ldr	r3, [r3, r2]
 8001146:	1dfa      	adds	r2, r7, #7
 8001148:	7812      	ldrb	r2, [r2, #0]
 800114a:	0011      	movs	r1, r2
 800114c:	2203      	movs	r2, #3
 800114e:	400a      	ands	r2, r1
 8001150:	00d2      	lsls	r2, r2, #3
 8001152:	21ff      	movs	r1, #255	; 0xff
 8001154:	4091      	lsls	r1, r2
 8001156:	000a      	movs	r2, r1
 8001158:	43d2      	mvns	r2, r2
 800115a:	401a      	ands	r2, r3
 800115c:	0011      	movs	r1, r2
       (((priority << (8U - __NVIC_PRIO_BITS)) & (uint32_t)0xFFUL) << _BIT_SHIFT(IRQn)));
 800115e:	683b      	ldr	r3, [r7, #0]
 8001160:	019b      	lsls	r3, r3, #6
 8001162:	22ff      	movs	r2, #255	; 0xff
 8001164:	401a      	ands	r2, r3
 8001166:	1dfb      	adds	r3, r7, #7
 8001168:	781b      	ldrb	r3, [r3, #0]
 800116a:	0018      	movs	r0, r3
 800116c:	2303      	movs	r3, #3
 800116e:	4003      	ands	r3, r0
 8001170:	00db      	lsls	r3, r3, #3
 8001172:	409a      	lsls	r2, r3
    NVIC->IP[_IP_IDX(IRQn)]  = ((uint32_t)(NVIC->IP[_IP_IDX(IRQn)]  & ~(0xFFUL << _BIT_SHIFT(IRQn))) |
 8001174:	481f      	ldr	r0, [pc, #124]	; (80011f4 <__NVIC_SetPriority+0xd4>)
 8001176:	1dfb      	adds	r3, r7, #7
 8001178:	781b      	ldrb	r3, [r3, #0]
 800117a:	b25b      	sxtb	r3, r3
 800117c:	089b      	lsrs	r3, r3, #2
 800117e:	430a      	orrs	r2, r1
 8001180:	33c0      	adds	r3, #192	; 0xc0
 8001182:	009b      	lsls	r3, r3, #2
 8001184:	501a      	str	r2, [r3, r0]
  else
  {
    SCB->SHP[_SHP_IDX(IRQn)] = ((uint32_t)(SCB->SHP[_SHP_IDX(IRQn)] & ~(0xFFUL << _BIT_SHIFT(IRQn))) |
       (((priority << (8U - __NVIC_PRIO_BITS)) & (uint32_t)0xFFUL) << _BIT_SHIFT(IRQn)));
  }
}
 8001186:	e031      	b.n	80011ec <__NVIC_SetPriority+0xcc>
    SCB->SHP[_SHP_IDX(IRQn)] = ((uint32_t)(SCB->SHP[_SHP_IDX(IRQn)] & ~(0xFFUL << _BIT_SHIFT(IRQn))) |
 8001188:	4a1b      	ldr	r2, [pc, #108]	; (80011f8 <__NVIC_SetPriority+0xd8>)
 800118a:	1dfb      	adds	r3, r7, #7
 800118c:	781b      	ldrb	r3, [r3, #0]
 800118e:	0019      	movs	r1, r3
 8001190:	230f      	movs	r3, #15
 8001192:	400b      	ands	r3, r1
 8001194:	3b08      	subs	r3, #8
 8001196:	089b      	lsrs	r3, r3, #2
 8001198:	3306      	adds	r3, #6
 800119a:	009b      	lsls	r3, r3, #2
 800119c:	18d3      	adds	r3, r2, r3
 800119e:	3304      	adds	r3, #4
 80011a0:	681b      	ldr	r3, [r3, #0]
 80011a2:	1dfa      	adds	r2, r7, #7
 80011a4:	7812      	ldrb	r2, [r2, #0]
 80011a6:	0011      	movs	r1, r2
 80011a8:	2203      	movs	r2, #3
 80011aa:	400a      	ands	r2, r1
 80011ac:	00d2      	lsls	r2, r2, #3
 80011ae:	21ff      	movs	r1, #255	; 0xff
 80011b0:	4091      	lsls	r1, r2
 80011b2:	000a      	movs	r2, r1
 80011b4:	43d2      	mvns	r2, r2
 80011b6:	401a      	ands	r2, r3
 80011b8:	0011      	movs	r1, r2
       (((priority << (8U - __NVIC_PRIO_BITS)) & (uint32_t)0xFFUL) << _BIT_SHIFT(IRQn)));
 80011ba:	683b      	ldr	r3, [r7, #0]
 80011bc:	019b      	lsls	r3, r3, #6
 80011be:	22ff      	movs	r2, #255	; 0xff
 80011c0:	401a      	ands	r2, r3
 80011c2:	1dfb      	adds	r3, r7, #7
 80011c4:	781b      	ldrb	r3, [r3, #0]
 80011c6:	0018      	movs	r0, r3
 80011c8:	2303      	movs	r3, #3
 80011ca:	4003      	ands	r3, r0
 80011cc:	00db      	lsls	r3, r3, #3
 80011ce:	409a      	lsls	r2, r3
    SCB->SHP[_SHP_IDX(IRQn)] = ((uint32_t)(SCB->SHP[_SHP_IDX(IRQn)] & ~(0xFFUL << _BIT_SHIFT(IRQn))) |
 80011d0:	4809      	ldr	r0, [pc, #36]	; (80011f8 <__NVIC_SetPriority+0xd8>)
 80011d2:	1dfb      	adds	r3, r7, #7
 80011d4:	781b      	ldrb	r3, [r3, #0]
 80011d6:	001c      	movs	r4, r3
 80011d8:	230f      	movs	r3, #15
 80011da:	4023      	ands	r3, r4
 80011dc:	3b08      	subs	r3, #8
 80011de:	089b      	lsrs	r3, r3, #2
 80011e0:	430a      	orrs	r2, r1
 80011e2:	3306      	adds	r3, #6
 80011e4:	009b      	lsls	r3, r3, #2
 80011e6:	18c3      	adds	r3, r0, r3
 80011e8:	3304      	adds	r3, #4
 80011ea:	601a      	str	r2, [r3, #0]
}
 80011ec:	46c0      	nop			; (mov r8, r8)
 80011ee:	46bd      	mov	sp, r7
 80011f0:	b003      	add	sp, #12
 80011f2:	bd90      	pop	{r4, r7, pc}
 80011f4:	e000e100 	.word	0xe000e100
 80011f8:	e000ed00 	.word	0xe000ed00

080011fc <SysTick_Config>:
  \note    When the variable <b>__Vendor_SysTickConfig</b> is set to 1, then the
           function <b>SysTick_Config</b> is not included. In this case, the file <b><i>device</i>.h</b>
           must contain a vendor-specific implementation of this function.
 */
__STATIC_INLINE uint32_t SysTick_Config(uint32_t ticks)
{
 80011fc:	b580      	push	{r7, lr}
 80011fe:	b082      	sub	sp, #8
 8001200:	af00      	add	r7, sp, #0
 8001202:	6078      	str	r0, [r7, #4]
  if ((ticks - 1UL) > SysTick_LOAD_RELOAD_Msk)
 8001204:	687b      	ldr	r3, [r7, #4]
 8001206:	1e5a      	subs	r2, r3, #1
 8001208:	2380      	movs	r3, #128	; 0x80
 800120a:	045b      	lsls	r3, r3, #17
 800120c:	429a      	cmp	r2, r3
 800120e:	d301      	bcc.n	8001214 <SysTick_Config+0x18>
  {
    return (1UL);                                                   /* Reload value impossible */
 8001210:	2301      	movs	r3, #1
 8001212:	e010      	b.n	8001236 <SysTick_Config+0x3a>
  }

  SysTick->LOAD  = (uint32_t)(ticks - 1UL);                         /* set reload register */
 8001214:	4b0a      	ldr	r3, [pc, #40]	; (8001240 <SysTick_Config+0x44>)
 8001216:	687a      	ldr	r2, [r7, #4]
 8001218:	3a01      	subs	r2, #1
 800121a:	605a      	str	r2, [r3, #4]
  NVIC_SetPriority (SysTick_IRQn, (1UL << __NVIC_PRIO_BITS) - 1UL); /* set Priority for Systick Interrupt */
 800121c:	2301      	movs	r3, #1
 800121e:	425b      	negs	r3, r3
 8001220:	2103      	movs	r1, #3
 8001222:	0018      	movs	r0, r3
 8001224:	f7ff ff7c 	bl	8001120 <__NVIC_SetPriority>
  SysTick->VAL   = 0UL;                                             /* Load the SysTick Counter Value */
 8001228:	4b05      	ldr	r3, [pc, #20]	; (8001240 <SysTick_Config+0x44>)
 800122a:	2200      	movs	r2, #0
 800122c:	609a      	str	r2, [r3, #8]
  SysTick->CTRL  = SysTick_CTRL_CLKSOURCE_Msk |
 800122e:	4b04      	ldr	r3, [pc, #16]	; (8001240 <SysTick_Config+0x44>)
 8001230:	2207      	movs	r2, #7
 8001232:	601a      	str	r2, [r3, #0]
                   SysTick_CTRL_TICKINT_Msk   |
                   SysTick_CTRL_ENABLE_Msk;                         /* Enable SysTick IRQ and SysTick Timer */
  return (0UL);                                                     /* Function successful */
 8001234:	2300      	movs	r3, #0
}
 8001236:	0018      	movs	r0, r3
 8001238:	46bd      	mov	sp, r7
 800123a:	b002      	add	sp, #8
 800123c:	bd80      	pop	{r7, pc}
 800123e:	46c0      	nop			; (mov r8, r8)
 8001240:	e000e010 	.word	0xe000e010

08001244 <HAL_NVIC_SetPriority>:
  *         with stm32g0xx devices, this parameter is a dummy value and it is ignored, because
  *         no subpriority supported in Cortex M0+ based products.
  * @retval None
  */
void HAL_NVIC_SetPriority(IRQn_Type IRQn, uint32_t PreemptPriority, uint32_t SubPriority)
{
 8001244:	b580      	push	{r7, lr}
 8001246:	b084      	sub	sp, #16
 8001248:	af00      	add	r7, sp, #0
 800124a:	60b9      	str	r1, [r7, #8]
 800124c:	607a      	str	r2, [r7, #4]
 800124e:	210f      	movs	r1, #15
 8001250:	187b      	adds	r3, r7, r1
 8001252:	1c02      	adds	r2, r0, #0
 8001254:	701a      	strb	r2, [r3, #0]
  /* Prevent unused argument(s) compilation warning */
  UNUSED(SubPriority);

  /* Check the parameters */
  assert_param(IS_NVIC_PREEMPTION_PRIORITY(PreemptPriority));
  NVIC_SetPriority(IRQn, PreemptPriority);
 8001256:	68ba      	ldr	r2, [r7, #8]
 8001258:	187b      	adds	r3, r7, r1
 800125a:	781b      	ldrb	r3, [r3, #0]
 800125c:	b25b      	sxtb	r3, r3
 800125e:	0011      	movs	r1, r2
 8001260:	0018      	movs	r0, r3
 8001262:	f7ff ff5d 	bl	8001120 <__NVIC_SetPriority>
}
 8001266:	46c0      	nop			; (mov r8, r8)
 8001268:	46bd      	mov	sp, r7
 800126a:	b004      	add	sp, #16
 800126c:	bd80      	pop	{r7, pc}

0800126e <HAL_SYSTICK_Config>:
  * @param  TicksNumb Specifies the ticks Number of ticks between two interrupts.
  * @retval status:  - 0  Function succeeded.
  *                  - 1  Function failed.
  */
uint32_t HAL_SYSTICK_Config(uint32_t TicksNumb)
{
 800126e:	b580      	push	{r7, lr}
 8001270:	b082      	sub	sp, #8
 8001272:	af00      	add	r7, sp, #0
 8001274:	6078      	str	r0, [r7, #4]
  return SysTick_Config(TicksNumb);
 8001276:	687b      	ldr	r3, [r7, #4]
 8001278:	0018      	movs	r0, r3
 800127a:	f7ff ffbf 	bl	80011fc <SysTick_Config>
 800127e:	0003      	movs	r3, r0
}
 8001280:	0018      	movs	r0, r3
 8001282:	46bd      	mov	sp, r7
 8001284:	b002      	add	sp, #8
 8001286:	bd80      	pop	{r7, pc}

08001288 <HAL_GPIO_Init>:
  * @param  GPIO_Init pointer to a GPIO_InitTypeDef structure that contains
  *         the configuration information for the specified GPIO peripheral.
  * @retval None
  */
void HAL_GPIO_Init(GPIO_TypeDef  *GPIOx, GPIO_InitTypeDef *GPIO_Init)
{
 8001288:	b580      	push	{r7, lr}
 800128a:	b086      	sub	sp, #24
 800128c:	af00      	add	r7, sp, #0
 800128e:	6078      	str	r0, [r7, #4]
 8001290:	6039      	str	r1, [r7, #0]
  uint32_t position = 0x00u;
 8001292:	2300      	movs	r3, #0
 8001294:	617b      	str	r3, [r7, #20]
  assert_param(IS_GPIO_ALL_INSTANCE(GPIOx));
  assert_param(IS_GPIO_PIN(GPIO_Init->Pin));
  assert_param(IS_GPIO_MODE(GPIO_Init->Mode));

  /* Configure the port pins */
  while (((GPIO_Init->Pin) >> position) != 0x00u)
 8001296:	e14d      	b.n	8001534 <HAL_GPIO_Init+0x2ac>
  {
    /* Get current io position */
    iocurrent = (GPIO_Init->Pin) & (1uL << position);
 8001298:	683b      	ldr	r3, [r7, #0]
 800129a:	681b      	ldr	r3, [r3, #0]
 800129c:	2101      	movs	r1, #1
 800129e:	697a      	ldr	r2, [r7, #20]
 80012a0:	4091      	lsls	r1, r2
 80012a2:	000a      	movs	r2, r1
 80012a4:	4013      	ands	r3, r2
 80012a6:	60fb      	str	r3, [r7, #12]

    if (iocurrent != 0x00u)
 80012a8:	68fb      	ldr	r3, [r7, #12]
 80012aa:	2b00      	cmp	r3, #0
 80012ac:	d100      	bne.n	80012b0 <HAL_GPIO_Init+0x28>
 80012ae:	e13e      	b.n	800152e <HAL_GPIO_Init+0x2a6>
    {
      /*--------------------- GPIO Mode Configuration ------------------------*/
      /* In case of Output or Alternate function mode selection */
      if (((GPIO_Init->Mode & GPIO_MODE) == MODE_OUTPUT) || ((GPIO_Init->Mode & GPIO_MODE) == MODE_AF))
 80012b0:	683b      	ldr	r3, [r7, #0]
 80012b2:	685b      	ldr	r3, [r3, #4]
 80012b4:	2203      	movs	r2, #3
 80012b6:	4013      	ands	r3, r2
 80012b8:	2b01      	cmp	r3, #1
 80012ba:	d005      	beq.n	80012c8 <HAL_GPIO_Init+0x40>
 80012bc:	683b      	ldr	r3, [r7, #0]
 80012be:	685b      	ldr	r3, [r3, #4]
 80012c0:	2203      	movs	r2, #3
 80012c2:	4013      	ands	r3, r2
 80012c4:	2b02      	cmp	r3, #2
 80012c6:	d130      	bne.n	800132a <HAL_GPIO_Init+0xa2>
      {
        /* Check the Speed parameter */
        assert_param(IS_GPIO_SPEED(GPIO_Init->Speed));

        /* Configure the IO Speed */
        temp = GPIOx->OSPEEDR;
 80012c8:	687b      	ldr	r3, [r7, #4]
 80012ca:	689b      	ldr	r3, [r3, #8]
 80012cc:	613b      	str	r3, [r7, #16]
        temp &= ~(GPIO_OSPEEDR_OSPEED0 << (position * 2u));
 80012ce:	697b      	ldr	r3, [r7, #20]
 80012d0:	005b      	lsls	r3, r3, #1
 80012d2:	2203      	movs	r2, #3
 80012d4:	409a      	lsls	r2, r3
 80012d6:	0013      	movs	r3, r2
 80012d8:	43da      	mvns	r2, r3
 80012da:	693b      	ldr	r3, [r7, #16]
 80012dc:	4013      	ands	r3, r2
 80012de:	613b      	str	r3, [r7, #16]
        temp |= (GPIO_Init->Speed << (position * 2u));
 80012e0:	683b      	ldr	r3, [r7, #0]
 80012e2:	68da      	ldr	r2, [r3, #12]
 80012e4:	697b      	ldr	r3, [r7, #20]
 80012e6:	005b      	lsls	r3, r3, #1
 80012e8:	409a      	lsls	r2, r3
 80012ea:	0013      	movs	r3, r2
 80012ec:	693a      	ldr	r2, [r7, #16]
 80012ee:	4313      	orrs	r3, r2
 80012f0:	613b      	str	r3, [r7, #16]
        GPIOx->OSPEEDR = temp;
 80012f2:	687b      	ldr	r3, [r7, #4]
 80012f4:	693a      	ldr	r2, [r7, #16]
 80012f6:	609a      	str	r2, [r3, #8]

        /* Configure the IO Output Type */
        temp = GPIOx->OTYPER;
 80012f8:	687b      	ldr	r3, [r7, #4]
 80012fa:	685b      	ldr	r3, [r3, #4]
 80012fc:	613b      	str	r3, [r7, #16]
        temp &= ~(GPIO_OTYPER_OT0 << position) ;
 80012fe:	2201      	movs	r2, #1
 8001300:	697b      	ldr	r3, [r7, #20]
 8001302:	409a      	lsls	r2, r3
 8001304:	0013      	movs	r3, r2
 8001306:	43da      	mvns	r2, r3
 8001308:	693b      	ldr	r3, [r7, #16]
 800130a:	4013      	ands	r3, r2
 800130c:	613b      	str	r3, [r7, #16]
        temp |= (((GPIO_Init->Mode & OUTPUT_TYPE) >> OUTPUT_TYPE_Pos) << position);
 800130e:	683b      	ldr	r3, [r7, #0]
 8001310:	685b      	ldr	r3, [r3, #4]
 8001312:	091b      	lsrs	r3, r3, #4
 8001314:	2201      	movs	r2, #1
 8001316:	401a      	ands	r2, r3
 8001318:	697b      	ldr	r3, [r7, #20]
 800131a:	409a      	lsls	r2, r3
 800131c:	0013      	movs	r3, r2
 800131e:	693a      	ldr	r2, [r7, #16]
 8001320:	4313      	orrs	r3, r2
 8001322:	613b      	str	r3, [r7, #16]
        GPIOx->OTYPER = temp;
 8001324:	687b      	ldr	r3, [r7, #4]
 8001326:	693a      	ldr	r2, [r7, #16]
 8001328:	605a      	str	r2, [r3, #4]
      }

      if ((GPIO_Init->Mode & GPIO_MODE) != MODE_ANALOG)
 800132a:	683b      	ldr	r3, [r7, #0]
 800132c:	685b      	ldr	r3, [r3, #4]
 800132e:	2203      	movs	r2, #3
 8001330:	4013      	ands	r3, r2
 8001332:	2b03      	cmp	r3, #3
 8001334:	d017      	beq.n	8001366 <HAL_GPIO_Init+0xde>
      {
        /* Check the Pull parameter */
        assert_param(IS_GPIO_PULL(GPIO_Init->Pull));

        /* Activate the Pull-up or Pull down resistor for the current IO */
        temp = GPIOx->PUPDR;
 8001336:	687b      	ldr	r3, [r7, #4]
 8001338:	68db      	ldr	r3, [r3, #12]
 800133a:	613b      	str	r3, [r7, #16]
        temp &= ~(GPIO_PUPDR_PUPD0 << (position * 2u));
 800133c:	697b      	ldr	r3, [r7, #20]
 800133e:	005b      	lsls	r3, r3, #1
 8001340:	2203      	movs	r2, #3
 8001342:	409a      	lsls	r2, r3
 8001344:	0013      	movs	r3, r2
 8001346:	43da      	mvns	r2, r3
 8001348:	693b      	ldr	r3, [r7, #16]
 800134a:	4013      	ands	r3, r2
 800134c:	613b      	str	r3, [r7, #16]
        temp |= ((GPIO_Init->Pull) << (position * 2u));
 800134e:	683b      	ldr	r3, [r7, #0]
 8001350:	689a      	ldr	r2, [r3, #8]
 8001352:	697b      	ldr	r3, [r7, #20]
 8001354:	005b      	lsls	r3, r3, #1
 8001356:	409a      	lsls	r2, r3
 8001358:	0013      	movs	r3, r2
 800135a:	693a      	ldr	r2, [r7, #16]
 800135c:	4313      	orrs	r3, r2
 800135e:	613b      	str	r3, [r7, #16]
        GPIOx->PUPDR = temp;
 8001360:	687b      	ldr	r3, [r7, #4]
 8001362:	693a      	ldr	r2, [r7, #16]
 8001364:	60da      	str	r2, [r3, #12]
      }

      /* In case of Alternate function mode selection */
      if ((GPIO_Init->Mode & GPIO_MODE) == MODE_AF)
 8001366:	683b      	ldr	r3, [r7, #0]
 8001368:	685b      	ldr	r3, [r3, #4]
 800136a:	2203      	movs	r2, #3
 800136c:	4013      	ands	r3, r2
 800136e:	2b02      	cmp	r3, #2
 8001370:	d123      	bne.n	80013ba <HAL_GPIO_Init+0x132>
        /* Check the Alternate function parameters */
        assert_param(IS_GPIO_AF_INSTANCE(GPIOx));
        assert_param(IS_GPIO_AF(GPIO_Init->Alternate));

        /* Configure Alternate function mapped with the current IO */
        temp = GPIOx->AFR[position >> 3u];
 8001372:	697b      	ldr	r3, [r7, #20]
 8001374:	08da      	lsrs	r2, r3, #3
 8001376:	687b      	ldr	r3, [r7, #4]
 8001378:	3208      	adds	r2, #8
 800137a:	0092      	lsls	r2, r2, #2
 800137c:	58d3      	ldr	r3, [r2, r3]
 800137e:	613b      	str	r3, [r7, #16]
        temp &= ~(0xFu << ((position & 0x07u) * 4u));
 8001380:	697b      	ldr	r3, [r7, #20]
 8001382:	2207      	movs	r2, #7
 8001384:	4013      	ands	r3, r2
 8001386:	009b      	lsls	r3, r3, #2
 8001388:	220f      	movs	r2, #15
 800138a:	409a      	lsls	r2, r3
 800138c:	0013      	movs	r3, r2
 800138e:	43da      	mvns	r2, r3
 8001390:	693b      	ldr	r3, [r7, #16]
 8001392:	4013      	ands	r3, r2
 8001394:	613b      	str	r3, [r7, #16]
        temp |= ((GPIO_Init->Alternate) << ((position & 0x07u) * 4u));
 8001396:	683b      	ldr	r3, [r7, #0]
 8001398:	691a      	ldr	r2, [r3, #16]
 800139a:	697b      	ldr	r3, [r7, #20]
 800139c:	2107      	movs	r1, #7
 800139e:	400b      	ands	r3, r1
 80013a0:	009b      	lsls	r3, r3, #2
 80013a2:	409a      	lsls	r2, r3
 80013a4:	0013      	movs	r3, r2
 80013a6:	693a      	ldr	r2, [r7, #16]
 80013a8:	4313      	orrs	r3, r2
 80013aa:	613b      	str	r3, [r7, #16]
        GPIOx->AFR[position >> 3u] = temp;
 80013ac:	697b      	ldr	r3, [r7, #20]
 80013ae:	08da      	lsrs	r2, r3, #3
 80013b0:	687b      	ldr	r3, [r7, #4]
 80013b2:	3208      	adds	r2, #8
 80013b4:	0092      	lsls	r2, r2, #2
 80013b6:	6939      	ldr	r1, [r7, #16]
 80013b8:	50d1      	str	r1, [r2, r3]
      }

      /* Configure IO Direction mode (Input, Output, Alternate or Analog) */
      temp = GPIOx->MODER;
 80013ba:	687b      	ldr	r3, [r7, #4]
 80013bc:	681b      	ldr	r3, [r3, #0]
 80013be:	613b      	str	r3, [r7, #16]
      temp &= ~(GPIO_MODER_MODE0 << (position * 2u));
 80013c0:	697b      	ldr	r3, [r7, #20]
 80013c2:	005b      	lsls	r3, r3, #1
 80013c4:	2203      	movs	r2, #3
 80013c6:	409a      	lsls	r2, r3
 80013c8:	0013      	movs	r3, r2
 80013ca:	43da      	mvns	r2, r3
 80013cc:	693b      	ldr	r3, [r7, #16]
 80013ce:	4013      	ands	r3, r2
 80013d0:	613b      	str	r3, [r7, #16]
      temp |= ((GPIO_Init->Mode & GPIO_MODE) << (position * 2u));
 80013d2:	683b      	ldr	r3, [r7, #0]
 80013d4:	685b      	ldr	r3, [r3, #4]
 80013d6:	2203      	movs	r2, #3
 80013d8:	401a      	ands	r2, r3
 80013da:	697b      	ldr	r3, [r7, #20]
 80013dc:	005b      	lsls	r3, r3, #1
 80013de:	409a      	lsls	r2, r3
 80013e0:	0013      	movs	r3, r2
 80013e2:	693a      	ldr	r2, [r7, #16]
 80013e4:	4313      	orrs	r3, r2
 80013e6:	613b      	str	r3, [r7, #16]
      GPIOx->MODER = temp;
 80013e8:	687b      	ldr	r3, [r7, #4]
 80013ea:	693a      	ldr	r2, [r7, #16]
 80013ec:	601a      	str	r2, [r3, #0]

      /*--------------------- EXTI Mode Configuration ------------------------*/
      /* Configure the External Interrupt or event for the current IO */
      if ((GPIO_Init->Mode & EXTI_MODE) != 0x00u)
 80013ee:	683b      	ldr	r3, [r7, #0]
 80013f0:	685a      	ldr	r2, [r3, #4]
 80013f2:	23c0      	movs	r3, #192	; 0xc0
 80013f4:	029b      	lsls	r3, r3, #10
 80013f6:	4013      	ands	r3, r2
 80013f8:	d100      	bne.n	80013fc <HAL_GPIO_Init+0x174>
 80013fa:	e098      	b.n	800152e <HAL_GPIO_Init+0x2a6>
      {
        temp = EXTI->EXTICR[position >> 2u];
 80013fc:	4a53      	ldr	r2, [pc, #332]	; (800154c <HAL_GPIO_Init+0x2c4>)
 80013fe:	697b      	ldr	r3, [r7, #20]
 8001400:	089b      	lsrs	r3, r3, #2
 8001402:	3318      	adds	r3, #24
 8001404:	009b      	lsls	r3, r3, #2
 8001406:	589b      	ldr	r3, [r3, r2]
 8001408:	613b      	str	r3, [r7, #16]
        temp &= ~(0x0FuL << (8u * (position & 0x03u)));
 800140a:	697b      	ldr	r3, [r7, #20]
 800140c:	2203      	movs	r2, #3
 800140e:	4013      	ands	r3, r2
 8001410:	00db      	lsls	r3, r3, #3
 8001412:	220f      	movs	r2, #15
 8001414:	409a      	lsls	r2, r3
 8001416:	0013      	movs	r3, r2
 8001418:	43da      	mvns	r2, r3
 800141a:	693b      	ldr	r3, [r7, #16]
 800141c:	4013      	ands	r3, r2
 800141e:	613b      	str	r3, [r7, #16]
        temp |= (GPIO_GET_INDEX(GPIOx) << (8u * (position & 0x03u)));
 8001420:	687a      	ldr	r2, [r7, #4]
 8001422:	23a0      	movs	r3, #160	; 0xa0
 8001424:	05db      	lsls	r3, r3, #23
 8001426:	429a      	cmp	r2, r3
 8001428:	d019      	beq.n	800145e <HAL_GPIO_Init+0x1d6>
 800142a:	687b      	ldr	r3, [r7, #4]
 800142c:	4a48      	ldr	r2, [pc, #288]	; (8001550 <HAL_GPIO_Init+0x2c8>)
 800142e:	4293      	cmp	r3, r2
 8001430:	d013      	beq.n	800145a <HAL_GPIO_Init+0x1d2>
 8001432:	687b      	ldr	r3, [r7, #4]
 8001434:	4a47      	ldr	r2, [pc, #284]	; (8001554 <HAL_GPIO_Init+0x2cc>)
 8001436:	4293      	cmp	r3, r2
 8001438:	d00d      	beq.n	8001456 <HAL_GPIO_Init+0x1ce>
 800143a:	687b      	ldr	r3, [r7, #4]
 800143c:	4a46      	ldr	r2, [pc, #280]	; (8001558 <HAL_GPIO_Init+0x2d0>)
 800143e:	4293      	cmp	r3, r2
 8001440:	d007      	beq.n	8001452 <HAL_GPIO_Init+0x1ca>
 8001442:	687b      	ldr	r3, [r7, #4]
 8001444:	4a45      	ldr	r2, [pc, #276]	; (800155c <HAL_GPIO_Init+0x2d4>)
 8001446:	4293      	cmp	r3, r2
 8001448:	d101      	bne.n	800144e <HAL_GPIO_Init+0x1c6>
 800144a:	2304      	movs	r3, #4
 800144c:	e008      	b.n	8001460 <HAL_GPIO_Init+0x1d8>
 800144e:	2305      	movs	r3, #5
 8001450:	e006      	b.n	8001460 <HAL_GPIO_Init+0x1d8>
 8001452:	2303      	movs	r3, #3
 8001454:	e004      	b.n	8001460 <HAL_GPIO_Init+0x1d8>
 8001456:	2302      	movs	r3, #2
 8001458:	e002      	b.n	8001460 <HAL_GPIO_Init+0x1d8>
 800145a:	2301      	movs	r3, #1
 800145c:	e000      	b.n	8001460 <HAL_GPIO_Init+0x1d8>
 800145e:	2300      	movs	r3, #0
 8001460:	697a      	ldr	r2, [r7, #20]
 8001462:	2103      	movs	r1, #3
 8001464:	400a      	ands	r2, r1
 8001466:	00d2      	lsls	r2, r2, #3
 8001468:	4093      	lsls	r3, r2
 800146a:	693a      	ldr	r2, [r7, #16]
 800146c:	4313      	orrs	r3, r2
 800146e:	613b      	str	r3, [r7, #16]
        EXTI->EXTICR[position >> 2u] = temp;
 8001470:	4936      	ldr	r1, [pc, #216]	; (800154c <HAL_GPIO_Init+0x2c4>)
 8001472:	697b      	ldr	r3, [r7, #20]
 8001474:	089b      	lsrs	r3, r3, #2
 8001476:	3318      	adds	r3, #24
 8001478:	009b      	lsls	r3, r3, #2
 800147a:	693a      	ldr	r2, [r7, #16]
 800147c:	505a      	str	r2, [r3, r1]

        /* Clear Rising Falling edge configuration */
        temp = EXTI->RTSR1;
 800147e:	4b33      	ldr	r3, [pc, #204]	; (800154c <HAL_GPIO_Init+0x2c4>)
 8001480:	681b      	ldr	r3, [r3, #0]
 8001482:	613b      	str	r3, [r7, #16]
        temp &= ~(iocurrent);
 8001484:	68fb      	ldr	r3, [r7, #12]
 8001486:	43da      	mvns	r2, r3
 8001488:	693b      	ldr	r3, [r7, #16]
 800148a:	4013      	ands	r3, r2
 800148c:	613b      	str	r3, [r7, #16]
        if ((GPIO_Init->Mode & TRIGGER_RISING) != 0x00u)
 800148e:	683b      	ldr	r3, [r7, #0]
 8001490:	685a      	ldr	r2, [r3, #4]
 8001492:	2380      	movs	r3, #128	; 0x80
 8001494:	035b      	lsls	r3, r3, #13
 8001496:	4013      	ands	r3, r2
 8001498:	d003      	beq.n	80014a2 <HAL_GPIO_Init+0x21a>
        {
          temp |= iocurrent;
 800149a:	693a      	ldr	r2, [r7, #16]
 800149c:	68fb      	ldr	r3, [r7, #12]
 800149e:	4313      	orrs	r3, r2
 80014a0:	613b      	str	r3, [r7, #16]
        }
        EXTI->RTSR1 = temp;
 80014a2:	4b2a      	ldr	r3, [pc, #168]	; (800154c <HAL_GPIO_Init+0x2c4>)
 80014a4:	693a      	ldr	r2, [r7, #16]
 80014a6:	601a      	str	r2, [r3, #0]

        temp = EXTI->FTSR1;
 80014a8:	4b28      	ldr	r3, [pc, #160]	; (800154c <HAL_GPIO_Init+0x2c4>)
 80014aa:	685b      	ldr	r3, [r3, #4]
 80014ac:	613b      	str	r3, [r7, #16]
        temp &= ~(iocurrent);
 80014ae:	68fb      	ldr	r3, [r7, #12]
 80014b0:	43da      	mvns	r2, r3
 80014b2:	693b      	ldr	r3, [r7, #16]
 80014b4:	4013      	ands	r3, r2
 80014b6:	613b      	str	r3, [r7, #16]
        if ((GPIO_Init->Mode & TRIGGER_FALLING) != 0x00u)
 80014b8:	683b      	ldr	r3, [r7, #0]
 80014ba:	685a      	ldr	r2, [r3, #4]
 80014bc:	2380      	movs	r3, #128	; 0x80
 80014be:	039b      	lsls	r3, r3, #14
 80014c0:	4013      	ands	r3, r2
 80014c2:	d003      	beq.n	80014cc <HAL_GPIO_Init+0x244>
        {
          temp |= iocurrent;
 80014c4:	693a      	ldr	r2, [r7, #16]
 80014c6:	68fb      	ldr	r3, [r7, #12]
 80014c8:	4313      	orrs	r3, r2
 80014ca:	613b      	str	r3, [r7, #16]
        }
        EXTI->FTSR1 = temp;
 80014cc:	4b1f      	ldr	r3, [pc, #124]	; (800154c <HAL_GPIO_Init+0x2c4>)
 80014ce:	693a      	ldr	r2, [r7, #16]
 80014d0:	605a      	str	r2, [r3, #4]

        /* Clear EXTI line configuration */
        temp = EXTI->EMR1;
 80014d2:	4a1e      	ldr	r2, [pc, #120]	; (800154c <HAL_GPIO_Init+0x2c4>)
 80014d4:	2384      	movs	r3, #132	; 0x84
 80014d6:	58d3      	ldr	r3, [r2, r3]
 80014d8:	613b      	str	r3, [r7, #16]
        temp &= ~(iocurrent);
 80014da:	68fb      	ldr	r3, [r7, #12]
 80014dc:	43da      	mvns	r2, r3
 80014de:	693b      	ldr	r3, [r7, #16]
 80014e0:	4013      	ands	r3, r2
 80014e2:	613b      	str	r3, [r7, #16]
        if ((GPIO_Init->Mode & EXTI_EVT) != 0x00u)
 80014e4:	683b      	ldr	r3, [r7, #0]
 80014e6:	685a      	ldr	r2, [r3, #4]
 80014e8:	2380      	movs	r3, #128	; 0x80
 80014ea:	029b      	lsls	r3, r3, #10
 80014ec:	4013      	ands	r3, r2
 80014ee:	d003      	beq.n	80014f8 <HAL_GPIO_Init+0x270>
        {
          temp |= iocurrent;
 80014f0:	693a      	ldr	r2, [r7, #16]
 80014f2:	68fb      	ldr	r3, [r7, #12]
 80014f4:	4313      	orrs	r3, r2
 80014f6:	613b      	str	r3, [r7, #16]
        }
        EXTI->EMR1 = temp;
 80014f8:	4914      	ldr	r1, [pc, #80]	; (800154c <HAL_GPIO_Init+0x2c4>)
 80014fa:	2284      	movs	r2, #132	; 0x84
 80014fc:	693b      	ldr	r3, [r7, #16]
 80014fe:	508b      	str	r3, [r1, r2]

        temp = EXTI->IMR1;
 8001500:	4a12      	ldr	r2, [pc, #72]	; (800154c <HAL_GPIO_Init+0x2c4>)
 8001502:	2380      	movs	r3, #128	; 0x80
 8001504:	58d3      	ldr	r3, [r2, r3]
 8001506:	613b      	str	r3, [r7, #16]
        temp &= ~(iocurrent);
 8001508:	68fb      	ldr	r3, [r7, #12]
 800150a:	43da      	mvns	r2, r3
 800150c:	693b      	ldr	r3, [r7, #16]
 800150e:	4013      	ands	r3, r2
 8001510:	613b      	str	r3, [r7, #16]
        if ((GPIO_Init->Mode & EXTI_IT) != 0x00u)
 8001512:	683b      	ldr	r3, [r7, #0]
 8001514:	685a      	ldr	r2, [r3, #4]
 8001516:	2380      	movs	r3, #128	; 0x80
 8001518:	025b      	lsls	r3, r3, #9
 800151a:	4013      	ands	r3, r2
 800151c:	d003      	beq.n	8001526 <HAL_GPIO_Init+0x29e>
        {
          temp |= iocurrent;
 800151e:	693a      	ldr	r2, [r7, #16]
 8001520:	68fb      	ldr	r3, [r7, #12]
 8001522:	4313      	orrs	r3, r2
 8001524:	613b      	str	r3, [r7, #16]
        }
        EXTI->IMR1 = temp;
 8001526:	4909      	ldr	r1, [pc, #36]	; (800154c <HAL_GPIO_Init+0x2c4>)
 8001528:	2280      	movs	r2, #128	; 0x80
 800152a:	693b      	ldr	r3, [r7, #16]
 800152c:	508b      	str	r3, [r1, r2]
      }
    }

    position++;
 800152e:	697b      	ldr	r3, [r7, #20]
 8001530:	3301      	adds	r3, #1
 8001532:	617b      	str	r3, [r7, #20]
  while (((GPIO_Init->Pin) >> position) != 0x00u)
 8001534:	683b      	ldr	r3, [r7, #0]
 8001536:	681a      	ldr	r2, [r3, #0]
 8001538:	697b      	ldr	r3, [r7, #20]
 800153a:	40da      	lsrs	r2, r3
 800153c:	1e13      	subs	r3, r2, #0
 800153e:	d000      	beq.n	8001542 <HAL_GPIO_Init+0x2ba>
 8001540:	e6aa      	b.n	8001298 <HAL_GPIO_Init+0x10>
  }
}
 8001542:	46c0      	nop			; (mov r8, r8)
 8001544:	46c0      	nop			; (mov r8, r8)
 8001546:	46bd      	mov	sp, r7
 8001548:	b006      	add	sp, #24
 800154a:	bd80      	pop	{r7, pc}
 800154c:	40021800 	.word	0x40021800
 8001550:	50000400 	.word	0x50000400
 8001554:	50000800 	.word	0x50000800
 8001558:	50000c00 	.word	0x50000c00
 800155c:	50001000 	.word	0x50001000

08001560 <HAL_GPIO_WritePin>:
  *            @arg GPIO_PIN_RESET: to clear the port pin
  *            @arg GPIO_PIN_SET: to set the port pin
  * @retval None
  */
void HAL_GPIO_WritePin(GPIO_TypeDef *GPIOx, uint16_t GPIO_Pin, GPIO_PinState PinState)
{
 8001560:	b580      	push	{r7, lr}
 8001562:	b082      	sub	sp, #8
 8001564:	af00      	add	r7, sp, #0
 8001566:	6078      	str	r0, [r7, #4]
 8001568:	0008      	movs	r0, r1
 800156a:	0011      	movs	r1, r2
 800156c:	1cbb      	adds	r3, r7, #2
 800156e:	1c02      	adds	r2, r0, #0
 8001570:	801a      	strh	r2, [r3, #0]
 8001572:	1c7b      	adds	r3, r7, #1
 8001574:	1c0a      	adds	r2, r1, #0
 8001576:	701a      	strb	r2, [r3, #0]
  /* Check the parameters */
  assert_param(IS_GPIO_PIN(GPIO_Pin));
  assert_param(IS_GPIO_PIN_ACTION(PinState));

  if (PinState != GPIO_PIN_RESET)
 8001578:	1c7b      	adds	r3, r7, #1
 800157a:	781b      	ldrb	r3, [r3, #0]
 800157c:	2b00      	cmp	r3, #0
 800157e:	d004      	beq.n	800158a <HAL_GPIO_WritePin+0x2a>
  {
    GPIOx->BSRR = (uint32_t)GPIO_Pin;
 8001580:	1cbb      	adds	r3, r7, #2
 8001582:	881a      	ldrh	r2, [r3, #0]
 8001584:	687b      	ldr	r3, [r7, #4]
 8001586:	619a      	str	r2, [r3, #24]
  }
  else
  {
    GPIOx->BRR = (uint32_t)GPIO_Pin;
  }
}
 8001588:	e003      	b.n	8001592 <HAL_GPIO_WritePin+0x32>
    GPIOx->BRR = (uint32_t)GPIO_Pin;
 800158a:	1cbb      	adds	r3, r7, #2
 800158c:	881a      	ldrh	r2, [r3, #0]
 800158e:	687b      	ldr	r3, [r7, #4]
 8001590:	629a      	str	r2, [r3, #40]	; 0x28
}
 8001592:	46c0      	nop			; (mov r8, r8)
 8001594:	46bd      	mov	sp, r7
 8001596:	b002      	add	sp, #8
 8001598:	bd80      	pop	{r7, pc}

0800159a <HAL_GPIO_TogglePin>:
  * @param  GPIO_Pin specifies the pin to be toggled.
  *         This parameter can be any combination of GPIO_Pin_x where x can be (0..15).
  * @retval None
  */
void HAL_GPIO_TogglePin(GPIO_TypeDef *GPIOx, uint16_t GPIO_Pin)
{
 800159a:	b580      	push	{r7, lr}
 800159c:	b084      	sub	sp, #16
 800159e:	af00      	add	r7, sp, #0
 80015a0:	6078      	str	r0, [r7, #4]
 80015a2:	000a      	movs	r2, r1
 80015a4:	1cbb      	adds	r3, r7, #2
 80015a6:	801a      	strh	r2, [r3, #0]

  /* Check the parameters */
  assert_param(IS_GPIO_PIN(GPIO_Pin));

  /* get current Output Data Register value */
  odr = GPIOx->ODR;
 80015a8:	687b      	ldr	r3, [r7, #4]
 80015aa:	695b      	ldr	r3, [r3, #20]
 80015ac:	60fb      	str	r3, [r7, #12]

  /* Set selected pins that were at low level, and reset ones that were high */
  GPIOx->BSRR = ((odr & GPIO_Pin) << GPIO_NUMBER) | (~odr & GPIO_Pin);
 80015ae:	1cbb      	adds	r3, r7, #2
 80015b0:	881b      	ldrh	r3, [r3, #0]
 80015b2:	68fa      	ldr	r2, [r7, #12]
 80015b4:	4013      	ands	r3, r2
 80015b6:	041a      	lsls	r2, r3, #16
 80015b8:	68fb      	ldr	r3, [r7, #12]
 80015ba:	43db      	mvns	r3, r3
 80015bc:	1cb9      	adds	r1, r7, #2
 80015be:	8809      	ldrh	r1, [r1, #0]
 80015c0:	400b      	ands	r3, r1
 80015c2:	431a      	orrs	r2, r3
 80015c4:	687b      	ldr	r3, [r7, #4]
 80015c6:	619a      	str	r2, [r3, #24]
}
 80015c8:	46c0      	nop			; (mov r8, r8)
 80015ca:	46bd      	mov	sp, r7
 80015cc:	b004      	add	sp, #16
 80015ce:	bd80      	pop	{r7, pc}

080015d0 <HAL_PWREx_ControlVoltageScaling>:
  *        cleared before returning the status. If the flag is not cleared within
  *        6 microseconds, HAL_TIMEOUT status is reported.
  * @retval HAL Status
  */
HAL_StatusTypeDef HAL_PWREx_ControlVoltageScaling(uint32_t VoltageScaling)
{
 80015d0:	b580      	push	{r7, lr}
 80015d2:	b084      	sub	sp, #16
 80015d4:	af00      	add	r7, sp, #0
 80015d6:	6078      	str	r0, [r7, #4]
  uint32_t wait_loop_index;

  assert_param(IS_PWR_VOLTAGE_SCALING_RANGE(VoltageScaling));

  /* Modify voltage scaling range */
  MODIFY_REG(PWR->CR1, PWR_CR1_VOS, VoltageScaling);
 80015d8:	4b19      	ldr	r3, [pc, #100]	; (8001640 <HAL_PWREx_ControlVoltageScaling+0x70>)
 80015da:	681b      	ldr	r3, [r3, #0]
 80015dc:	4a19      	ldr	r2, [pc, #100]	; (8001644 <HAL_PWREx_ControlVoltageScaling+0x74>)
 80015de:	4013      	ands	r3, r2
 80015e0:	0019      	movs	r1, r3
 80015e2:	4b17      	ldr	r3, [pc, #92]	; (8001640 <HAL_PWREx_ControlVoltageScaling+0x70>)
 80015e4:	687a      	ldr	r2, [r7, #4]
 80015e6:	430a      	orrs	r2, r1
 80015e8:	601a      	str	r2, [r3, #0]

  /* In case of Range 1 selected, we need to ensure that main regulator reaches new value */
  if (VoltageScaling == PWR_REGULATOR_VOLTAGE_SCALE1)
 80015ea:	687a      	ldr	r2, [r7, #4]
 80015ec:	2380      	movs	r3, #128	; 0x80
 80015ee:	009b      	lsls	r3, r3, #2
 80015f0:	429a      	cmp	r2, r3
 80015f2:	d11f      	bne.n	8001634 <HAL_PWREx_ControlVoltageScaling+0x64>
  {
    /* Set timeout value */
    wait_loop_index = ((PWR_VOSF_SETTING_DELAY_6_US * SystemCoreClock) / 1000000U) + 1U;
 80015f4:	4b14      	ldr	r3, [pc, #80]	; (8001648 <HAL_PWREx_ControlVoltageScaling+0x78>)
 80015f6:	681a      	ldr	r2, [r3, #0]
 80015f8:	0013      	movs	r3, r2
 80015fa:	005b      	lsls	r3, r3, #1
 80015fc:	189b      	adds	r3, r3, r2
 80015fe:	005b      	lsls	r3, r3, #1
 8001600:	4912      	ldr	r1, [pc, #72]	; (800164c <HAL_PWREx_ControlVoltageScaling+0x7c>)
 8001602:	0018      	movs	r0, r3
 8001604:	f7fe fd7e 	bl	8000104 <__udivsi3>
 8001608:	0003      	movs	r3, r0
 800160a:	3301      	adds	r3, #1
 800160c:	60fb      	str	r3, [r7, #12]

    /* Wait until VOSF is reset */
    while (HAL_IS_BIT_SET(PWR->SR2, PWR_SR2_VOSF))
 800160e:	e008      	b.n	8001622 <HAL_PWREx_ControlVoltageScaling+0x52>
    {
      if (wait_loop_index != 0U)
 8001610:	68fb      	ldr	r3, [r7, #12]
 8001612:	2b00      	cmp	r3, #0
 8001614:	d003      	beq.n	800161e <HAL_PWREx_ControlVoltageScaling+0x4e>
      {
        wait_loop_index--;
 8001616:	68fb      	ldr	r3, [r7, #12]
 8001618:	3b01      	subs	r3, #1
 800161a:	60fb      	str	r3, [r7, #12]
 800161c:	e001      	b.n	8001622 <HAL_PWREx_ControlVoltageScaling+0x52>
      }
      else
      {
        return HAL_TIMEOUT;
 800161e:	2303      	movs	r3, #3
 8001620:	e009      	b.n	8001636 <HAL_PWREx_ControlVoltageScaling+0x66>
    while (HAL_IS_BIT_SET(PWR->SR2, PWR_SR2_VOSF))
 8001622:	4b07      	ldr	r3, [pc, #28]	; (8001640 <HAL_PWREx_ControlVoltageScaling+0x70>)
 8001624:	695a      	ldr	r2, [r3, #20]
 8001626:	2380      	movs	r3, #128	; 0x80
 8001628:	00db      	lsls	r3, r3, #3
 800162a:	401a      	ands	r2, r3
 800162c:	2380      	movs	r3, #128	; 0x80
 800162e:	00db      	lsls	r3, r3, #3
 8001630:	429a      	cmp	r2, r3
 8001632:	d0ed      	beq.n	8001610 <HAL_PWREx_ControlVoltageScaling+0x40>
      }
    }
  }

  return HAL_OK;
 8001634:	2300      	movs	r3, #0
}
 8001636:	0018      	movs	r0, r3
 8001638:	46bd      	mov	sp, r7
 800163a:	b004      	add	sp, #16
 800163c:	bd80      	pop	{r7, pc}
 800163e:	46c0      	nop			; (mov r8, r8)
 8001640:	40007000 	.word	0x40007000
 8001644:	fffff9ff 	.word	0xfffff9ff
 8001648:	20000000 	.word	0x20000000
 800164c:	000f4240 	.word	0x000f4240

08001650 <LL_RCC_GetAPB1Prescaler>:
  *         @arg @ref LL_RCC_APB1_DIV_4
  *         @arg @ref LL_RCC_APB1_DIV_8
  *         @arg @ref LL_RCC_APB1_DIV_16
  */
__STATIC_INLINE uint32_t LL_RCC_GetAPB1Prescaler(void)
{
 8001650:	b580      	push	{r7, lr}
 8001652:	af00      	add	r7, sp, #0
  return (uint32_t)(READ_BIT(RCC->CFGR, RCC_CFGR_PPRE));
 8001654:	4b03      	ldr	r3, [pc, #12]	; (8001664 <LL_RCC_GetAPB1Prescaler+0x14>)
 8001656:	689a      	ldr	r2, [r3, #8]
 8001658:	23e0      	movs	r3, #224	; 0xe0
 800165a:	01db      	lsls	r3, r3, #7
 800165c:	4013      	ands	r3, r2
}
 800165e:	0018      	movs	r0, r3
 8001660:	46bd      	mov	sp, r7
 8001662:	bd80      	pop	{r7, pc}
 8001664:	40021000 	.word	0x40021000

08001668 <HAL_RCC_OscConfig>:
  *         supported by this function. User should request a transition to LSE Off
  *         first and then to LSE On or LSE Bypass.
  * @retval HAL status
  */
HAL_StatusTypeDef HAL_RCC_OscConfig(RCC_OscInitTypeDef  *RCC_OscInitStruct)
{
 8001668:	b580      	push	{r7, lr}
 800166a:	b088      	sub	sp, #32
 800166c:	af00      	add	r7, sp, #0
 800166e:	6078      	str	r0, [r7, #4]
  uint32_t tickstart;
  uint32_t temp_sysclksrc;
  uint32_t temp_pllckcfg;

  /* Check Null pointer */
  if (RCC_OscInitStruct == NULL)
 8001670:	687b      	ldr	r3, [r7, #4]
 8001672:	2b00      	cmp	r3, #0
 8001674:	d102      	bne.n	800167c <HAL_RCC_OscConfig+0x14>
  {
    return HAL_ERROR;
 8001676:	2301      	movs	r3, #1
 8001678:	f000 fb50 	bl	8001d1c <HAL_RCC_OscConfig+0x6b4>

  /* Check the parameters */
  assert_param(IS_RCC_OSCILLATORTYPE(RCC_OscInitStruct->OscillatorType));

  /*------------------------------- HSE Configuration ------------------------*/
  if (((RCC_OscInitStruct->OscillatorType) & RCC_OSCILLATORTYPE_HSE) == RCC_OSCILLATORTYPE_HSE)
 800167c:	687b      	ldr	r3, [r7, #4]
 800167e:	681b      	ldr	r3, [r3, #0]
 8001680:	2201      	movs	r2, #1
 8001682:	4013      	ands	r3, r2
 8001684:	d100      	bne.n	8001688 <HAL_RCC_OscConfig+0x20>
 8001686:	e07c      	b.n	8001782 <HAL_RCC_OscConfig+0x11a>
  {
    /* Check the parameters */
    assert_param(IS_RCC_HSE(RCC_OscInitStruct->HSEState));

    temp_sysclksrc = __HAL_RCC_GET_SYSCLK_SOURCE();
 8001688:	4bc3      	ldr	r3, [pc, #780]	; (8001998 <HAL_RCC_OscConfig+0x330>)
 800168a:	689b      	ldr	r3, [r3, #8]
 800168c:	2238      	movs	r2, #56	; 0x38
 800168e:	4013      	ands	r3, r2
 8001690:	61bb      	str	r3, [r7, #24]
    temp_pllckcfg = __HAL_RCC_GET_PLL_OSCSOURCE();
 8001692:	4bc1      	ldr	r3, [pc, #772]	; (8001998 <HAL_RCC_OscConfig+0x330>)
 8001694:	68db      	ldr	r3, [r3, #12]
 8001696:	2203      	movs	r2, #3
 8001698:	4013      	ands	r3, r2
 800169a:	617b      	str	r3, [r7, #20]

    /* When the HSE is used as system clock or clock source for PLL in these cases it is not allowed to be disabled */
    if (((temp_sysclksrc == RCC_SYSCLKSOURCE_STATUS_PLLCLK) && (temp_pllckcfg == RCC_PLLSOURCE_HSE))
 800169c:	69bb      	ldr	r3, [r7, #24]
 800169e:	2b10      	cmp	r3, #16
 80016a0:	d102      	bne.n	80016a8 <HAL_RCC_OscConfig+0x40>
 80016a2:	697b      	ldr	r3, [r7, #20]
 80016a4:	2b03      	cmp	r3, #3
 80016a6:	d002      	beq.n	80016ae <HAL_RCC_OscConfig+0x46>
        || (temp_sysclksrc == RCC_SYSCLKSOURCE_STATUS_HSE))
 80016a8:	69bb      	ldr	r3, [r7, #24]
 80016aa:	2b08      	cmp	r3, #8
 80016ac:	d10b      	bne.n	80016c6 <HAL_RCC_OscConfig+0x5e>
    {
      if ((READ_BIT(RCC->CR, RCC_CR_HSERDY) != 0U) && (RCC_OscInitStruct->HSEState == RCC_HSE_OFF))
 80016ae:	4bba      	ldr	r3, [pc, #744]	; (8001998 <HAL_RCC_OscConfig+0x330>)
 80016b0:	681a      	ldr	r2, [r3, #0]
 80016b2:	2380      	movs	r3, #128	; 0x80
 80016b4:	029b      	lsls	r3, r3, #10
 80016b6:	4013      	ands	r3, r2
 80016b8:	d062      	beq.n	8001780 <HAL_RCC_OscConfig+0x118>
 80016ba:	687b      	ldr	r3, [r7, #4]
 80016bc:	685b      	ldr	r3, [r3, #4]
 80016be:	2b00      	cmp	r3, #0
 80016c0:	d15e      	bne.n	8001780 <HAL_RCC_OscConfig+0x118>
      {
        return HAL_ERROR;
 80016c2:	2301      	movs	r3, #1
 80016c4:	e32a      	b.n	8001d1c <HAL_RCC_OscConfig+0x6b4>
      }
    }
    else
    {
      /* Set the new HSE configuration ---------------------------------------*/
      __HAL_RCC_HSE_CONFIG(RCC_OscInitStruct->HSEState);
 80016c6:	687b      	ldr	r3, [r7, #4]
 80016c8:	685a      	ldr	r2, [r3, #4]
 80016ca:	2380      	movs	r3, #128	; 0x80
 80016cc:	025b      	lsls	r3, r3, #9
 80016ce:	429a      	cmp	r2, r3
 80016d0:	d107      	bne.n	80016e2 <HAL_RCC_OscConfig+0x7a>
 80016d2:	4bb1      	ldr	r3, [pc, #708]	; (8001998 <HAL_RCC_OscConfig+0x330>)
 80016d4:	681a      	ldr	r2, [r3, #0]
 80016d6:	4bb0      	ldr	r3, [pc, #704]	; (8001998 <HAL_RCC_OscConfig+0x330>)
 80016d8:	2180      	movs	r1, #128	; 0x80
 80016da:	0249      	lsls	r1, r1, #9
 80016dc:	430a      	orrs	r2, r1
 80016de:	601a      	str	r2, [r3, #0]
 80016e0:	e020      	b.n	8001724 <HAL_RCC_OscConfig+0xbc>
 80016e2:	687b      	ldr	r3, [r7, #4]
 80016e4:	685a      	ldr	r2, [r3, #4]
 80016e6:	23a0      	movs	r3, #160	; 0xa0
 80016e8:	02db      	lsls	r3, r3, #11
 80016ea:	429a      	cmp	r2, r3
 80016ec:	d10e      	bne.n	800170c <HAL_RCC_OscConfig+0xa4>
 80016ee:	4baa      	ldr	r3, [pc, #680]	; (8001998 <HAL_RCC_OscConfig+0x330>)
 80016f0:	681a      	ldr	r2, [r3, #0]
 80016f2:	4ba9      	ldr	r3, [pc, #676]	; (8001998 <HAL_RCC_OscConfig+0x330>)
 80016f4:	2180      	movs	r1, #128	; 0x80
 80016f6:	02c9      	lsls	r1, r1, #11
 80016f8:	430a      	orrs	r2, r1
 80016fa:	601a      	str	r2, [r3, #0]
 80016fc:	4ba6      	ldr	r3, [pc, #664]	; (8001998 <HAL_RCC_OscConfig+0x330>)
 80016fe:	681a      	ldr	r2, [r3, #0]
 8001700:	4ba5      	ldr	r3, [pc, #660]	; (8001998 <HAL_RCC_OscConfig+0x330>)
 8001702:	2180      	movs	r1, #128	; 0x80
 8001704:	0249      	lsls	r1, r1, #9
 8001706:	430a      	orrs	r2, r1
 8001708:	601a      	str	r2, [r3, #0]
 800170a:	e00b      	b.n	8001724 <HAL_RCC_OscConfig+0xbc>
 800170c:	4ba2      	ldr	r3, [pc, #648]	; (8001998 <HAL_RCC_OscConfig+0x330>)
 800170e:	681a      	ldr	r2, [r3, #0]
 8001710:	4ba1      	ldr	r3, [pc, #644]	; (8001998 <HAL_RCC_OscConfig+0x330>)
 8001712:	49a2      	ldr	r1, [pc, #648]	; (800199c <HAL_RCC_OscConfig+0x334>)
 8001714:	400a      	ands	r2, r1
 8001716:	601a      	str	r2, [r3, #0]
 8001718:	4b9f      	ldr	r3, [pc, #636]	; (8001998 <HAL_RCC_OscConfig+0x330>)
 800171a:	681a      	ldr	r2, [r3, #0]
 800171c:	4b9e      	ldr	r3, [pc, #632]	; (8001998 <HAL_RCC_OscConfig+0x330>)
 800171e:	49a0      	ldr	r1, [pc, #640]	; (80019a0 <HAL_RCC_OscConfig+0x338>)
 8001720:	400a      	ands	r2, r1
 8001722:	601a      	str	r2, [r3, #0]

      /* Check the HSE State */
      if (RCC_OscInitStruct->HSEState != RCC_HSE_OFF)
 8001724:	687b      	ldr	r3, [r7, #4]
 8001726:	685b      	ldr	r3, [r3, #4]
 8001728:	2b00      	cmp	r3, #0
 800172a:	d014      	beq.n	8001756 <HAL_RCC_OscConfig+0xee>
      {
        /* Get Start Tick*/
        tickstart = HAL_GetTick();
 800172c:	f7ff fcee 	bl	800110c <HAL_GetTick>
 8001730:	0003      	movs	r3, r0
 8001732:	613b      	str	r3, [r7, #16]

        /* Wait till HSE is ready */
        while (READ_BIT(RCC->CR, RCC_CR_HSERDY) == 0U)
 8001734:	e008      	b.n	8001748 <HAL_RCC_OscConfig+0xe0>
        {
          if ((HAL_GetTick() - tickstart) > HSE_TIMEOUT_VALUE)
 8001736:	f7ff fce9 	bl	800110c <HAL_GetTick>
 800173a:	0002      	movs	r2, r0
 800173c:	693b      	ldr	r3, [r7, #16]
 800173e:	1ad3      	subs	r3, r2, r3
 8001740:	2b64      	cmp	r3, #100	; 0x64
 8001742:	d901      	bls.n	8001748 <HAL_RCC_OscConfig+0xe0>
          {
            return HAL_TIMEOUT;
 8001744:	2303      	movs	r3, #3
 8001746:	e2e9      	b.n	8001d1c <HAL_RCC_OscConfig+0x6b4>
        while (READ_BIT(RCC->CR, RCC_CR_HSERDY) == 0U)
 8001748:	4b93      	ldr	r3, [pc, #588]	; (8001998 <HAL_RCC_OscConfig+0x330>)
 800174a:	681a      	ldr	r2, [r3, #0]
 800174c:	2380      	movs	r3, #128	; 0x80
 800174e:	029b      	lsls	r3, r3, #10
 8001750:	4013      	ands	r3, r2
 8001752:	d0f0      	beq.n	8001736 <HAL_RCC_OscConfig+0xce>
 8001754:	e015      	b.n	8001782 <HAL_RCC_OscConfig+0x11a>
        }
      }
      else
      {
        /* Get Start Tick*/
        tickstart = HAL_GetTick();
 8001756:	f7ff fcd9 	bl	800110c <HAL_GetTick>
 800175a:	0003      	movs	r3, r0
 800175c:	613b      	str	r3, [r7, #16]

        /* Wait till HSE is disabled */
        while (READ_BIT(RCC->CR, RCC_CR_HSERDY) != 0U)
 800175e:	e008      	b.n	8001772 <HAL_RCC_OscConfig+0x10a>
        {
          if ((HAL_GetTick() - tickstart) > HSE_TIMEOUT_VALUE)
 8001760:	f7ff fcd4 	bl	800110c <HAL_GetTick>
 8001764:	0002      	movs	r2, r0
 8001766:	693b      	ldr	r3, [r7, #16]
 8001768:	1ad3      	subs	r3, r2, r3
 800176a:	2b64      	cmp	r3, #100	; 0x64
 800176c:	d901      	bls.n	8001772 <HAL_RCC_OscConfig+0x10a>
          {
            return HAL_TIMEOUT;
 800176e:	2303      	movs	r3, #3
 8001770:	e2d4      	b.n	8001d1c <HAL_RCC_OscConfig+0x6b4>
        while (READ_BIT(RCC->CR, RCC_CR_HSERDY) != 0U)
 8001772:	4b89      	ldr	r3, [pc, #548]	; (8001998 <HAL_RCC_OscConfig+0x330>)
 8001774:	681a      	ldr	r2, [r3, #0]
 8001776:	2380      	movs	r3, #128	; 0x80
 8001778:	029b      	lsls	r3, r3, #10
 800177a:	4013      	ands	r3, r2
 800177c:	d1f0      	bne.n	8001760 <HAL_RCC_OscConfig+0xf8>
 800177e:	e000      	b.n	8001782 <HAL_RCC_OscConfig+0x11a>
      if ((READ_BIT(RCC->CR, RCC_CR_HSERDY) != 0U) && (RCC_OscInitStruct->HSEState == RCC_HSE_OFF))
 8001780:	46c0      	nop			; (mov r8, r8)
        }
      }
    }
  }
  /*----------------------------- HSI Configuration --------------------------*/
  if (((RCC_OscInitStruct->OscillatorType) & RCC_OSCILLATORTYPE_HSI) == RCC_OSCILLATORTYPE_HSI)
 8001782:	687b      	ldr	r3, [r7, #4]
 8001784:	681b      	ldr	r3, [r3, #0]
 8001786:	2202      	movs	r2, #2
 8001788:	4013      	ands	r3, r2
 800178a:	d100      	bne.n	800178e <HAL_RCC_OscConfig+0x126>
 800178c:	e099      	b.n	80018c2 <HAL_RCC_OscConfig+0x25a>
    assert_param(IS_RCC_HSI(RCC_OscInitStruct->HSIState));
    assert_param(IS_RCC_HSI_CALIBRATION_VALUE(RCC_OscInitStruct->HSICalibrationValue));
    assert_param(IS_RCC_HSIDIV(RCC_OscInitStruct->HSIDiv));

    /* Check if HSI16 is used as system clock or as PLL source when PLL is selected as system clock */
    temp_sysclksrc = __HAL_RCC_GET_SYSCLK_SOURCE();
 800178e:	4b82      	ldr	r3, [pc, #520]	; (8001998 <HAL_RCC_OscConfig+0x330>)
 8001790:	689b      	ldr	r3, [r3, #8]
 8001792:	2238      	movs	r2, #56	; 0x38
 8001794:	4013      	ands	r3, r2
 8001796:	61bb      	str	r3, [r7, #24]
    temp_pllckcfg = __HAL_RCC_GET_PLL_OSCSOURCE();
 8001798:	4b7f      	ldr	r3, [pc, #508]	; (8001998 <HAL_RCC_OscConfig+0x330>)
 800179a:	68db      	ldr	r3, [r3, #12]
 800179c:	2203      	movs	r2, #3
 800179e:	4013      	ands	r3, r2
 80017a0:	617b      	str	r3, [r7, #20]
    if (((temp_sysclksrc == RCC_SYSCLKSOURCE_STATUS_PLLCLK) && (temp_pllckcfg == RCC_PLLSOURCE_HSI))
 80017a2:	69bb      	ldr	r3, [r7, #24]
 80017a4:	2b10      	cmp	r3, #16
 80017a6:	d102      	bne.n	80017ae <HAL_RCC_OscConfig+0x146>
 80017a8:	697b      	ldr	r3, [r7, #20]
 80017aa:	2b02      	cmp	r3, #2
 80017ac:	d002      	beq.n	80017b4 <HAL_RCC_OscConfig+0x14c>
        || (temp_sysclksrc == RCC_SYSCLKSOURCE_STATUS_HSI))
 80017ae:	69bb      	ldr	r3, [r7, #24]
 80017b0:	2b00      	cmp	r3, #0
 80017b2:	d135      	bne.n	8001820 <HAL_RCC_OscConfig+0x1b8>
    {
      /* When HSI is used as system clock or as PLL input clock it can not be disabled */
      if ((READ_BIT(RCC->CR, RCC_CR_HSIRDY) != 0U) && (RCC_OscInitStruct->HSIState == RCC_HSI_OFF))
 80017b4:	4b78      	ldr	r3, [pc, #480]	; (8001998 <HAL_RCC_OscConfig+0x330>)
 80017b6:	681a      	ldr	r2, [r3, #0]
 80017b8:	2380      	movs	r3, #128	; 0x80
 80017ba:	00db      	lsls	r3, r3, #3
 80017bc:	4013      	ands	r3, r2
 80017be:	d005      	beq.n	80017cc <HAL_RCC_OscConfig+0x164>
 80017c0:	687b      	ldr	r3, [r7, #4]
 80017c2:	68db      	ldr	r3, [r3, #12]
 80017c4:	2b00      	cmp	r3, #0
 80017c6:	d101      	bne.n	80017cc <HAL_RCC_OscConfig+0x164>
      {
        return HAL_ERROR;
 80017c8:	2301      	movs	r3, #1
 80017ca:	e2a7      	b.n	8001d1c <HAL_RCC_OscConfig+0x6b4>
      }
      /* Otherwise, just the calibration is allowed */
      else
      {
        /* Adjusts the Internal High Speed oscillator (HSI) calibration value.*/
        __HAL_RCC_HSI_CALIBRATIONVALUE_ADJUST(RCC_OscInitStruct->HSICalibrationValue);
 80017cc:	4b72      	ldr	r3, [pc, #456]	; (8001998 <HAL_RCC_OscConfig+0x330>)
 80017ce:	685b      	ldr	r3, [r3, #4]
 80017d0:	4a74      	ldr	r2, [pc, #464]	; (80019a4 <HAL_RCC_OscConfig+0x33c>)
 80017d2:	4013      	ands	r3, r2
 80017d4:	0019      	movs	r1, r3
 80017d6:	687b      	ldr	r3, [r7, #4]
 80017d8:	695b      	ldr	r3, [r3, #20]
 80017da:	021a      	lsls	r2, r3, #8
 80017dc:	4b6e      	ldr	r3, [pc, #440]	; (8001998 <HAL_RCC_OscConfig+0x330>)
 80017de:	430a      	orrs	r2, r1
 80017e0:	605a      	str	r2, [r3, #4]

        if (temp_sysclksrc == RCC_SYSCLKSOURCE_STATUS_HSI)
 80017e2:	69bb      	ldr	r3, [r7, #24]
 80017e4:	2b00      	cmp	r3, #0
 80017e6:	d112      	bne.n	800180e <HAL_RCC_OscConfig+0x1a6>
        {
          /* Adjust the HSI16 division factor */
          __HAL_RCC_HSI_CONFIG(RCC_OscInitStruct->HSIDiv);
 80017e8:	4b6b      	ldr	r3, [pc, #428]	; (8001998 <HAL_RCC_OscConfig+0x330>)
 80017ea:	681b      	ldr	r3, [r3, #0]
 80017ec:	4a6e      	ldr	r2, [pc, #440]	; (80019a8 <HAL_RCC_OscConfig+0x340>)
 80017ee:	4013      	ands	r3, r2
 80017f0:	0019      	movs	r1, r3
 80017f2:	687b      	ldr	r3, [r7, #4]
 80017f4:	691a      	ldr	r2, [r3, #16]
 80017f6:	4b68      	ldr	r3, [pc, #416]	; (8001998 <HAL_RCC_OscConfig+0x330>)
 80017f8:	430a      	orrs	r2, r1
 80017fa:	601a      	str	r2, [r3, #0]

          /* Update the SystemCoreClock global variable with HSISYS value  */
          SystemCoreClock = (HSI_VALUE / (1UL << ((READ_BIT(RCC->CR, RCC_CR_HSIDIV)) >> RCC_CR_HSIDIV_Pos)));
 80017fc:	4b66      	ldr	r3, [pc, #408]	; (8001998 <HAL_RCC_OscConfig+0x330>)
 80017fe:	681b      	ldr	r3, [r3, #0]
 8001800:	0adb      	lsrs	r3, r3, #11
 8001802:	2207      	movs	r2, #7
 8001804:	4013      	ands	r3, r2
 8001806:	4a69      	ldr	r2, [pc, #420]	; (80019ac <HAL_RCC_OscConfig+0x344>)
 8001808:	40da      	lsrs	r2, r3
 800180a:	4b69      	ldr	r3, [pc, #420]	; (80019b0 <HAL_RCC_OscConfig+0x348>)
 800180c:	601a      	str	r2, [r3, #0]
        }

        /* Adapt Systick interrupt period */
        if (HAL_InitTick(uwTickPrio) != HAL_OK)
 800180e:	4b69      	ldr	r3, [pc, #420]	; (80019b4 <HAL_RCC_OscConfig+0x34c>)
 8001810:	681b      	ldr	r3, [r3, #0]
 8001812:	0018      	movs	r0, r3
 8001814:	f7ff fc1e 	bl	8001054 <HAL_InitTick>
 8001818:	1e03      	subs	r3, r0, #0
 800181a:	d051      	beq.n	80018c0 <HAL_RCC_OscConfig+0x258>
        {
          return HAL_ERROR;
 800181c:	2301      	movs	r3, #1
 800181e:	e27d      	b.n	8001d1c <HAL_RCC_OscConfig+0x6b4>
      }
    }
    else
    {
      /* Check the HSI State */
      if (RCC_OscInitStruct->HSIState != RCC_HSI_OFF)
 8001820:	687b      	ldr	r3, [r7, #4]
 8001822:	68db      	ldr	r3, [r3, #12]
 8001824:	2b00      	cmp	r3, #0
 8001826:	d030      	beq.n	800188a <HAL_RCC_OscConfig+0x222>
      {
        /* Configure the HSI16 division factor */
        __HAL_RCC_HSI_CONFIG(RCC_OscInitStruct->HSIDiv);
 8001828:	4b5b      	ldr	r3, [pc, #364]	; (8001998 <HAL_RCC_OscConfig+0x330>)
 800182a:	681b      	ldr	r3, [r3, #0]
 800182c:	4a5e      	ldr	r2, [pc, #376]	; (80019a8 <HAL_RCC_OscConfig+0x340>)
 800182e:	4013      	ands	r3, r2
 8001830:	0019      	movs	r1, r3
 8001832:	687b      	ldr	r3, [r7, #4]
 8001834:	691a      	ldr	r2, [r3, #16]
 8001836:	4b58      	ldr	r3, [pc, #352]	; (8001998 <HAL_RCC_OscConfig+0x330>)
 8001838:	430a      	orrs	r2, r1
 800183a:	601a      	str	r2, [r3, #0]

        /* Enable the Internal High Speed oscillator (HSI16). */
        __HAL_RCC_HSI_ENABLE();
 800183c:	4b56      	ldr	r3, [pc, #344]	; (8001998 <HAL_RCC_OscConfig+0x330>)
 800183e:	681a      	ldr	r2, [r3, #0]
 8001840:	4b55      	ldr	r3, [pc, #340]	; (8001998 <HAL_RCC_OscConfig+0x330>)
 8001842:	2180      	movs	r1, #128	; 0x80
 8001844:	0049      	lsls	r1, r1, #1
 8001846:	430a      	orrs	r2, r1
 8001848:	601a      	str	r2, [r3, #0]

        /* Get Start Tick*/
        tickstart = HAL_GetTick();
 800184a:	f7ff fc5f 	bl	800110c <HAL_GetTick>
 800184e:	0003      	movs	r3, r0
 8001850:	613b      	str	r3, [r7, #16]

        /* Wait till HSI is ready */
        while (READ_BIT(RCC->CR, RCC_CR_HSIRDY) == 0U)
 8001852:	e008      	b.n	8001866 <HAL_RCC_OscConfig+0x1fe>
        {
          if ((HAL_GetTick() - tickstart) > HSI_TIMEOUT_VALUE)
 8001854:	f7ff fc5a 	bl	800110c <HAL_GetTick>
 8001858:	0002      	movs	r2, r0
 800185a:	693b      	ldr	r3, [r7, #16]
 800185c:	1ad3      	subs	r3, r2, r3
 800185e:	2b02      	cmp	r3, #2
 8001860:	d901      	bls.n	8001866 <HAL_RCC_OscConfig+0x1fe>
          {
            return HAL_TIMEOUT;
 8001862:	2303      	movs	r3, #3
 8001864:	e25a      	b.n	8001d1c <HAL_RCC_OscConfig+0x6b4>
        while (READ_BIT(RCC->CR, RCC_CR_HSIRDY) == 0U)
 8001866:	4b4c      	ldr	r3, [pc, #304]	; (8001998 <HAL_RCC_OscConfig+0x330>)
 8001868:	681a      	ldr	r2, [r3, #0]
 800186a:	2380      	movs	r3, #128	; 0x80
 800186c:	00db      	lsls	r3, r3, #3
 800186e:	4013      	ands	r3, r2
 8001870:	d0f0      	beq.n	8001854 <HAL_RCC_OscConfig+0x1ec>
          }
        }

        /* Adjusts the Internal High Speed oscillator (HSI) calibration value.*/
        __HAL_RCC_HSI_CALIBRATIONVALUE_ADJUST(RCC_OscInitStruct->HSICalibrationValue);
 8001872:	4b49      	ldr	r3, [pc, #292]	; (8001998 <HAL_RCC_OscConfig+0x330>)
 8001874:	685b      	ldr	r3, [r3, #4]
 8001876:	4a4b      	ldr	r2, [pc, #300]	; (80019a4 <HAL_RCC_OscConfig+0x33c>)
 8001878:	4013      	ands	r3, r2
 800187a:	0019      	movs	r1, r3
 800187c:	687b      	ldr	r3, [r7, #4]
 800187e:	695b      	ldr	r3, [r3, #20]
 8001880:	021a      	lsls	r2, r3, #8
 8001882:	4b45      	ldr	r3, [pc, #276]	; (8001998 <HAL_RCC_OscConfig+0x330>)
 8001884:	430a      	orrs	r2, r1
 8001886:	605a      	str	r2, [r3, #4]
 8001888:	e01b      	b.n	80018c2 <HAL_RCC_OscConfig+0x25a>
      }
      else
      {
        /* Disable the Internal High Speed oscillator (HSI16). */
        __HAL_RCC_HSI_DISABLE();
 800188a:	4b43      	ldr	r3, [pc, #268]	; (8001998 <HAL_RCC_OscConfig+0x330>)
 800188c:	681a      	ldr	r2, [r3, #0]
 800188e:	4b42      	ldr	r3, [pc, #264]	; (8001998 <HAL_RCC_OscConfig+0x330>)
 8001890:	4949      	ldr	r1, [pc, #292]	; (80019b8 <HAL_RCC_OscConfig+0x350>)
 8001892:	400a      	ands	r2, r1
 8001894:	601a      	str	r2, [r3, #0]

        /* Get Start Tick*/
        tickstart = HAL_GetTick();
 8001896:	f7ff fc39 	bl	800110c <HAL_GetTick>
 800189a:	0003      	movs	r3, r0
 800189c:	613b      	str	r3, [r7, #16]

        /* Wait till HSI is disabled */
        while (READ_BIT(RCC->CR, RCC_CR_HSIRDY) != 0U)
 800189e:	e008      	b.n	80018b2 <HAL_RCC_OscConfig+0x24a>
        {
          if ((HAL_GetTick() - tickstart) > HSI_TIMEOUT_VALUE)
 80018a0:	f7ff fc34 	bl	800110c <HAL_GetTick>
 80018a4:	0002      	movs	r2, r0
 80018a6:	693b      	ldr	r3, [r7, #16]
 80018a8:	1ad3      	subs	r3, r2, r3
 80018aa:	2b02      	cmp	r3, #2
 80018ac:	d901      	bls.n	80018b2 <HAL_RCC_OscConfig+0x24a>
          {
            return HAL_TIMEOUT;
 80018ae:	2303      	movs	r3, #3
 80018b0:	e234      	b.n	8001d1c <HAL_RCC_OscConfig+0x6b4>
        while (READ_BIT(RCC->CR, RCC_CR_HSIRDY) != 0U)
 80018b2:	4b39      	ldr	r3, [pc, #228]	; (8001998 <HAL_RCC_OscConfig+0x330>)
 80018b4:	681a      	ldr	r2, [r3, #0]
 80018b6:	2380      	movs	r3, #128	; 0x80
 80018b8:	00db      	lsls	r3, r3, #3
 80018ba:	4013      	ands	r3, r2
 80018bc:	d1f0      	bne.n	80018a0 <HAL_RCC_OscConfig+0x238>
 80018be:	e000      	b.n	80018c2 <HAL_RCC_OscConfig+0x25a>
      if ((READ_BIT(RCC->CR, RCC_CR_HSIRDY) != 0U) && (RCC_OscInitStruct->HSIState == RCC_HSI_OFF))
 80018c0:	46c0      	nop			; (mov r8, r8)
        }
      }
    }
  }
  /*------------------------------ LSI Configuration -------------------------*/
  if (((RCC_OscInitStruct->OscillatorType) & RCC_OSCILLATORTYPE_LSI) == RCC_OSCILLATORTYPE_LSI)
 80018c2:	687b      	ldr	r3, [r7, #4]
 80018c4:	681b      	ldr	r3, [r3, #0]
 80018c6:	2208      	movs	r2, #8
 80018c8:	4013      	ands	r3, r2
 80018ca:	d047      	beq.n	800195c <HAL_RCC_OscConfig+0x2f4>
  {
    /* Check the parameters */
    assert_param(IS_RCC_LSI(RCC_OscInitStruct->LSIState));

    /* Check if LSI is used as system clock */
    if (__HAL_RCC_GET_SYSCLK_SOURCE() == RCC_SYSCLKSOURCE_STATUS_LSI)
 80018cc:	4b32      	ldr	r3, [pc, #200]	; (8001998 <HAL_RCC_OscConfig+0x330>)
 80018ce:	689b      	ldr	r3, [r3, #8]
 80018d0:	2238      	movs	r2, #56	; 0x38
 80018d2:	4013      	ands	r3, r2
 80018d4:	2b18      	cmp	r3, #24
 80018d6:	d10a      	bne.n	80018ee <HAL_RCC_OscConfig+0x286>
    {
      /* When LSI is used as system clock it will not be disabled */
      if ((((RCC->CSR) & RCC_CSR_LSIRDY) != 0U) && (RCC_OscInitStruct->LSIState == RCC_LSI_OFF))
 80018d8:	4b2f      	ldr	r3, [pc, #188]	; (8001998 <HAL_RCC_OscConfig+0x330>)
 80018da:	6e1b      	ldr	r3, [r3, #96]	; 0x60
 80018dc:	2202      	movs	r2, #2
 80018de:	4013      	ands	r3, r2
 80018e0:	d03c      	beq.n	800195c <HAL_RCC_OscConfig+0x2f4>
 80018e2:	687b      	ldr	r3, [r7, #4]
 80018e4:	699b      	ldr	r3, [r3, #24]
 80018e6:	2b00      	cmp	r3, #0
 80018e8:	d138      	bne.n	800195c <HAL_RCC_OscConfig+0x2f4>
      {
        return HAL_ERROR;
 80018ea:	2301      	movs	r3, #1
 80018ec:	e216      	b.n	8001d1c <HAL_RCC_OscConfig+0x6b4>
      }
    }
    else
    {
      /* Check the LSI State */
      if (RCC_OscInitStruct->LSIState != RCC_LSI_OFF)
 80018ee:	687b      	ldr	r3, [r7, #4]
 80018f0:	699b      	ldr	r3, [r3, #24]
 80018f2:	2b00      	cmp	r3, #0
 80018f4:	d019      	beq.n	800192a <HAL_RCC_OscConfig+0x2c2>
      {
        /* Enable the Internal Low Speed oscillator (LSI). */
        __HAL_RCC_LSI_ENABLE();
 80018f6:	4b28      	ldr	r3, [pc, #160]	; (8001998 <HAL_RCC_OscConfig+0x330>)
 80018f8:	6e1a      	ldr	r2, [r3, #96]	; 0x60
 80018fa:	4b27      	ldr	r3, [pc, #156]	; (8001998 <HAL_RCC_OscConfig+0x330>)
 80018fc:	2101      	movs	r1, #1
 80018fe:	430a      	orrs	r2, r1
 8001900:	661a      	str	r2, [r3, #96]	; 0x60

        /* Get Start Tick*/
        tickstart = HAL_GetTick();
 8001902:	f7ff fc03 	bl	800110c <HAL_GetTick>
 8001906:	0003      	movs	r3, r0
 8001908:	613b      	str	r3, [r7, #16]

        /* Wait till LSI is ready */
        while (READ_BIT(RCC->CSR, RCC_CSR_LSIRDY) == 0U)
 800190a:	e008      	b.n	800191e <HAL_RCC_OscConfig+0x2b6>
        {
          if ((HAL_GetTick() - tickstart) > LSI_TIMEOUT_VALUE)
 800190c:	f7ff fbfe 	bl	800110c <HAL_GetTick>
 8001910:	0002      	movs	r2, r0
 8001912:	693b      	ldr	r3, [r7, #16]
 8001914:	1ad3      	subs	r3, r2, r3
 8001916:	2b02      	cmp	r3, #2
 8001918:	d901      	bls.n	800191e <HAL_RCC_OscConfig+0x2b6>
          {
            return HAL_TIMEOUT;
 800191a:	2303      	movs	r3, #3
 800191c:	e1fe      	b.n	8001d1c <HAL_RCC_OscConfig+0x6b4>
        while (READ_BIT(RCC->CSR, RCC_CSR_LSIRDY) == 0U)
 800191e:	4b1e      	ldr	r3, [pc, #120]	; (8001998 <HAL_RCC_OscConfig+0x330>)
 8001920:	6e1b      	ldr	r3, [r3, #96]	; 0x60
 8001922:	2202      	movs	r2, #2
 8001924:	4013      	ands	r3, r2
 8001926:	d0f1      	beq.n	800190c <HAL_RCC_OscConfig+0x2a4>
 8001928:	e018      	b.n	800195c <HAL_RCC_OscConfig+0x2f4>
        }
      }
      else
      {
        /* Disable the Internal Low Speed oscillator (LSI). */
        __HAL_RCC_LSI_DISABLE();
 800192a:	4b1b      	ldr	r3, [pc, #108]	; (8001998 <HAL_RCC_OscConfig+0x330>)
 800192c:	6e1a      	ldr	r2, [r3, #96]	; 0x60
 800192e:	4b1a      	ldr	r3, [pc, #104]	; (8001998 <HAL_RCC_OscConfig+0x330>)
 8001930:	2101      	movs	r1, #1
 8001932:	438a      	bics	r2, r1
 8001934:	661a      	str	r2, [r3, #96]	; 0x60

        /* Get Start Tick*/
        tickstart = HAL_GetTick();
 8001936:	f7ff fbe9 	bl	800110c <HAL_GetTick>
 800193a:	0003      	movs	r3, r0
 800193c:	613b      	str	r3, [r7, #16]

        /* Wait till LSI is disabled */
        while (READ_BIT(RCC->CSR, RCC_CSR_LSIRDY) != 0U)
 800193e:	e008      	b.n	8001952 <HAL_RCC_OscConfig+0x2ea>
        {
          if ((HAL_GetTick() - tickstart) > LSI_TIMEOUT_VALUE)
 8001940:	f7ff fbe4 	bl	800110c <HAL_GetTick>
 8001944:	0002      	movs	r2, r0
 8001946:	693b      	ldr	r3, [r7, #16]
 8001948:	1ad3      	subs	r3, r2, r3
 800194a:	2b02      	cmp	r3, #2
 800194c:	d901      	bls.n	8001952 <HAL_RCC_OscConfig+0x2ea>
          {
            return HAL_TIMEOUT;
 800194e:	2303      	movs	r3, #3
 8001950:	e1e4      	b.n	8001d1c <HAL_RCC_OscConfig+0x6b4>
        while (READ_BIT(RCC->CSR, RCC_CSR_LSIRDY) != 0U)
 8001952:	4b11      	ldr	r3, [pc, #68]	; (8001998 <HAL_RCC_OscConfig+0x330>)
 8001954:	6e1b      	ldr	r3, [r3, #96]	; 0x60
 8001956:	2202      	movs	r2, #2
 8001958:	4013      	ands	r3, r2
 800195a:	d1f1      	bne.n	8001940 <HAL_RCC_OscConfig+0x2d8>
        }
      }
    }
  }
  /*------------------------------ LSE Configuration -------------------------*/
  if (((RCC_OscInitStruct->OscillatorType) & RCC_OSCILLATORTYPE_LSE) == RCC_OSCILLATORTYPE_LSE)
 800195c:	687b      	ldr	r3, [r7, #4]
 800195e:	681b      	ldr	r3, [r3, #0]
 8001960:	2204      	movs	r2, #4
 8001962:	4013      	ands	r3, r2
 8001964:	d100      	bne.n	8001968 <HAL_RCC_OscConfig+0x300>
 8001966:	e0c7      	b.n	8001af8 <HAL_RCC_OscConfig+0x490>
  {
    FlagStatus       pwrclkchanged = RESET;
 8001968:	231f      	movs	r3, #31
 800196a:	18fb      	adds	r3, r7, r3
 800196c:	2200      	movs	r2, #0
 800196e:	701a      	strb	r2, [r3, #0]

    /* Check the parameters */
    assert_param(IS_RCC_LSE(RCC_OscInitStruct->LSEState));

    /* When the LSE is used as system clock, it is not allowed disable it */
    if (__HAL_RCC_GET_SYSCLK_SOURCE() == RCC_SYSCLKSOURCE_STATUS_LSE)
 8001970:	4b09      	ldr	r3, [pc, #36]	; (8001998 <HAL_RCC_OscConfig+0x330>)
 8001972:	689b      	ldr	r3, [r3, #8]
 8001974:	2238      	movs	r2, #56	; 0x38
 8001976:	4013      	ands	r3, r2
 8001978:	2b20      	cmp	r3, #32
 800197a:	d11f      	bne.n	80019bc <HAL_RCC_OscConfig+0x354>
    {
      if ((((RCC->BDCR) & RCC_BDCR_LSERDY) != 0U) && (RCC_OscInitStruct->LSEState == RCC_LSE_OFF))
 800197c:	4b06      	ldr	r3, [pc, #24]	; (8001998 <HAL_RCC_OscConfig+0x330>)
 800197e:	6ddb      	ldr	r3, [r3, #92]	; 0x5c
 8001980:	2202      	movs	r2, #2
 8001982:	4013      	ands	r3, r2
 8001984:	d100      	bne.n	8001988 <HAL_RCC_OscConfig+0x320>
 8001986:	e0b7      	b.n	8001af8 <HAL_RCC_OscConfig+0x490>
 8001988:	687b      	ldr	r3, [r7, #4]
 800198a:	689b      	ldr	r3, [r3, #8]
 800198c:	2b00      	cmp	r3, #0
 800198e:	d000      	beq.n	8001992 <HAL_RCC_OscConfig+0x32a>
 8001990:	e0b2      	b.n	8001af8 <HAL_RCC_OscConfig+0x490>
      {
        return HAL_ERROR;
 8001992:	2301      	movs	r3, #1
 8001994:	e1c2      	b.n	8001d1c <HAL_RCC_OscConfig+0x6b4>
 8001996:	46c0      	nop			; (mov r8, r8)
 8001998:	40021000 	.word	0x40021000
 800199c:	fffeffff 	.word	0xfffeffff
 80019a0:	fffbffff 	.word	0xfffbffff
 80019a4:	ffff80ff 	.word	0xffff80ff
 80019a8:	ffffc7ff 	.word	0xffffc7ff
 80019ac:	00f42400 	.word	0x00f42400
 80019b0:	20000000 	.word	0x20000000
 80019b4:	20000004 	.word	0x20000004
 80019b8:	fffffeff 	.word	0xfffffeff
    }
    else
    {
      /* Update LSE configuration in Backup Domain control register    */
      /* Requires to enable write access to Backup Domain of necessary */
      if (__HAL_RCC_PWR_IS_CLK_DISABLED() != 0U)
 80019bc:	4bb5      	ldr	r3, [pc, #724]	; (8001c94 <HAL_RCC_OscConfig+0x62c>)
 80019be:	6bda      	ldr	r2, [r3, #60]	; 0x3c
 80019c0:	2380      	movs	r3, #128	; 0x80
 80019c2:	055b      	lsls	r3, r3, #21
 80019c4:	4013      	ands	r3, r2
 80019c6:	d101      	bne.n	80019cc <HAL_RCC_OscConfig+0x364>
 80019c8:	2301      	movs	r3, #1
 80019ca:	e000      	b.n	80019ce <HAL_RCC_OscConfig+0x366>
 80019cc:	2300      	movs	r3, #0
 80019ce:	2b00      	cmp	r3, #0
 80019d0:	d011      	beq.n	80019f6 <HAL_RCC_OscConfig+0x38e>
      {
        __HAL_RCC_PWR_CLK_ENABLE();
 80019d2:	4bb0      	ldr	r3, [pc, #704]	; (8001c94 <HAL_RCC_OscConfig+0x62c>)
 80019d4:	6bda      	ldr	r2, [r3, #60]	; 0x3c
 80019d6:	4baf      	ldr	r3, [pc, #700]	; (8001c94 <HAL_RCC_OscConfig+0x62c>)
 80019d8:	2180      	movs	r1, #128	; 0x80
 80019da:	0549      	lsls	r1, r1, #21
 80019dc:	430a      	orrs	r2, r1
 80019de:	63da      	str	r2, [r3, #60]	; 0x3c
 80019e0:	4bac      	ldr	r3, [pc, #688]	; (8001c94 <HAL_RCC_OscConfig+0x62c>)
 80019e2:	6bda      	ldr	r2, [r3, #60]	; 0x3c
 80019e4:	2380      	movs	r3, #128	; 0x80
 80019e6:	055b      	lsls	r3, r3, #21
 80019e8:	4013      	ands	r3, r2
 80019ea:	60fb      	str	r3, [r7, #12]
 80019ec:	68fb      	ldr	r3, [r7, #12]
        pwrclkchanged = SET;
 80019ee:	231f      	movs	r3, #31
 80019f0:	18fb      	adds	r3, r7, r3
 80019f2:	2201      	movs	r2, #1
 80019f4:	701a      	strb	r2, [r3, #0]
      }

      if (HAL_IS_BIT_CLR(PWR->CR1, PWR_CR1_DBP))
 80019f6:	4ba8      	ldr	r3, [pc, #672]	; (8001c98 <HAL_RCC_OscConfig+0x630>)
 80019f8:	681a      	ldr	r2, [r3, #0]
 80019fa:	2380      	movs	r3, #128	; 0x80
 80019fc:	005b      	lsls	r3, r3, #1
 80019fe:	4013      	ands	r3, r2
 8001a00:	d11a      	bne.n	8001a38 <HAL_RCC_OscConfig+0x3d0>
      {
        /* Enable write access to Backup domain */
        SET_BIT(PWR->CR1, PWR_CR1_DBP);
 8001a02:	4ba5      	ldr	r3, [pc, #660]	; (8001c98 <HAL_RCC_OscConfig+0x630>)
 8001a04:	681a      	ldr	r2, [r3, #0]
 8001a06:	4ba4      	ldr	r3, [pc, #656]	; (8001c98 <HAL_RCC_OscConfig+0x630>)
 8001a08:	2180      	movs	r1, #128	; 0x80
 8001a0a:	0049      	lsls	r1, r1, #1
 8001a0c:	430a      	orrs	r2, r1
 8001a0e:	601a      	str	r2, [r3, #0]

        /* Wait for Backup domain Write protection disable */
        tickstart = HAL_GetTick();
 8001a10:	f7ff fb7c 	bl	800110c <HAL_GetTick>
 8001a14:	0003      	movs	r3, r0
 8001a16:	613b      	str	r3, [r7, #16]

        while (HAL_IS_BIT_CLR(PWR->CR1, PWR_CR1_DBP))
 8001a18:	e008      	b.n	8001a2c <HAL_RCC_OscConfig+0x3c4>
        {
          if ((HAL_GetTick() - tickstart) > RCC_DBP_TIMEOUT_VALUE)
 8001a1a:	f7ff fb77 	bl	800110c <HAL_GetTick>
 8001a1e:	0002      	movs	r2, r0
 8001a20:	693b      	ldr	r3, [r7, #16]
 8001a22:	1ad3      	subs	r3, r2, r3
 8001a24:	2b02      	cmp	r3, #2
 8001a26:	d901      	bls.n	8001a2c <HAL_RCC_OscConfig+0x3c4>
          {
            return HAL_TIMEOUT;
 8001a28:	2303      	movs	r3, #3
 8001a2a:	e177      	b.n	8001d1c <HAL_RCC_OscConfig+0x6b4>
        while (HAL_IS_BIT_CLR(PWR->CR1, PWR_CR1_DBP))
 8001a2c:	4b9a      	ldr	r3, [pc, #616]	; (8001c98 <HAL_RCC_OscConfig+0x630>)
 8001a2e:	681a      	ldr	r2, [r3, #0]
 8001a30:	2380      	movs	r3, #128	; 0x80
 8001a32:	005b      	lsls	r3, r3, #1
 8001a34:	4013      	ands	r3, r2
 8001a36:	d0f0      	beq.n	8001a1a <HAL_RCC_OscConfig+0x3b2>
          }
        }
      }

      /* Set the new LSE configuration -----------------------------------------*/
      __HAL_RCC_LSE_CONFIG(RCC_OscInitStruct->LSEState);
 8001a38:	687b      	ldr	r3, [r7, #4]
 8001a3a:	689b      	ldr	r3, [r3, #8]
 8001a3c:	2b01      	cmp	r3, #1
 8001a3e:	d106      	bne.n	8001a4e <HAL_RCC_OscConfig+0x3e6>
 8001a40:	4b94      	ldr	r3, [pc, #592]	; (8001c94 <HAL_RCC_OscConfig+0x62c>)
 8001a42:	6dda      	ldr	r2, [r3, #92]	; 0x5c
 8001a44:	4b93      	ldr	r3, [pc, #588]	; (8001c94 <HAL_RCC_OscConfig+0x62c>)
 8001a46:	2101      	movs	r1, #1
 8001a48:	430a      	orrs	r2, r1
 8001a4a:	65da      	str	r2, [r3, #92]	; 0x5c
 8001a4c:	e01c      	b.n	8001a88 <HAL_RCC_OscConfig+0x420>
 8001a4e:	687b      	ldr	r3, [r7, #4]
 8001a50:	689b      	ldr	r3, [r3, #8]
 8001a52:	2b05      	cmp	r3, #5
 8001a54:	d10c      	bne.n	8001a70 <HAL_RCC_OscConfig+0x408>
 8001a56:	4b8f      	ldr	r3, [pc, #572]	; (8001c94 <HAL_RCC_OscConfig+0x62c>)
 8001a58:	6dda      	ldr	r2, [r3, #92]	; 0x5c
 8001a5a:	4b8e      	ldr	r3, [pc, #568]	; (8001c94 <HAL_RCC_OscConfig+0x62c>)
 8001a5c:	2104      	movs	r1, #4
 8001a5e:	430a      	orrs	r2, r1
 8001a60:	65da      	str	r2, [r3, #92]	; 0x5c
 8001a62:	4b8c      	ldr	r3, [pc, #560]	; (8001c94 <HAL_RCC_OscConfig+0x62c>)
 8001a64:	6dda      	ldr	r2, [r3, #92]	; 0x5c
 8001a66:	4b8b      	ldr	r3, [pc, #556]	; (8001c94 <HAL_RCC_OscConfig+0x62c>)
 8001a68:	2101      	movs	r1, #1
 8001a6a:	430a      	orrs	r2, r1
 8001a6c:	65da      	str	r2, [r3, #92]	; 0x5c
 8001a6e:	e00b      	b.n	8001a88 <HAL_RCC_OscConfig+0x420>
 8001a70:	4b88      	ldr	r3, [pc, #544]	; (8001c94 <HAL_RCC_OscConfig+0x62c>)
 8001a72:	6dda      	ldr	r2, [r3, #92]	; 0x5c
 8001a74:	4b87      	ldr	r3, [pc, #540]	; (8001c94 <HAL_RCC_OscConfig+0x62c>)
 8001a76:	2101      	movs	r1, #1
 8001a78:	438a      	bics	r2, r1
 8001a7a:	65da      	str	r2, [r3, #92]	; 0x5c
 8001a7c:	4b85      	ldr	r3, [pc, #532]	; (8001c94 <HAL_RCC_OscConfig+0x62c>)
 8001a7e:	6dda      	ldr	r2, [r3, #92]	; 0x5c
 8001a80:	4b84      	ldr	r3, [pc, #528]	; (8001c94 <HAL_RCC_OscConfig+0x62c>)
 8001a82:	2104      	movs	r1, #4
 8001a84:	438a      	bics	r2, r1
 8001a86:	65da      	str	r2, [r3, #92]	; 0x5c

      /* Check the LSE State */
      if (RCC_OscInitStruct->LSEState != RCC_LSE_OFF)
 8001a88:	687b      	ldr	r3, [r7, #4]
 8001a8a:	689b      	ldr	r3, [r3, #8]
 8001a8c:	2b00      	cmp	r3, #0
 8001a8e:	d014      	beq.n	8001aba <HAL_RCC_OscConfig+0x452>
      {
        /* Get Start Tick*/
        tickstart = HAL_GetTick();
 8001a90:	f7ff fb3c 	bl	800110c <HAL_GetTick>
 8001a94:	0003      	movs	r3, r0
 8001a96:	613b      	str	r3, [r7, #16]

        /* Wait till LSE is ready */
        while (READ_BIT(RCC->BDCR, RCC_BDCR_LSERDY) == 0U)
 8001a98:	e009      	b.n	8001aae <HAL_RCC_OscConfig+0x446>
        {
          if ((HAL_GetTick() - tickstart) > RCC_LSE_TIMEOUT_VALUE)
 8001a9a:	f7ff fb37 	bl	800110c <HAL_GetTick>
 8001a9e:	0002      	movs	r2, r0
 8001aa0:	693b      	ldr	r3, [r7, #16]
 8001aa2:	1ad3      	subs	r3, r2, r3
 8001aa4:	4a7d      	ldr	r2, [pc, #500]	; (8001c9c <HAL_RCC_OscConfig+0x634>)
 8001aa6:	4293      	cmp	r3, r2
 8001aa8:	d901      	bls.n	8001aae <HAL_RCC_OscConfig+0x446>
          {
            return HAL_TIMEOUT;
 8001aaa:	2303      	movs	r3, #3
 8001aac:	e136      	b.n	8001d1c <HAL_RCC_OscConfig+0x6b4>
        while (READ_BIT(RCC->BDCR, RCC_BDCR_LSERDY) == 0U)
 8001aae:	4b79      	ldr	r3, [pc, #484]	; (8001c94 <HAL_RCC_OscConfig+0x62c>)
 8001ab0:	6ddb      	ldr	r3, [r3, #92]	; 0x5c
 8001ab2:	2202      	movs	r2, #2
 8001ab4:	4013      	ands	r3, r2
 8001ab6:	d0f0      	beq.n	8001a9a <HAL_RCC_OscConfig+0x432>
 8001ab8:	e013      	b.n	8001ae2 <HAL_RCC_OscConfig+0x47a>
        }
      }
      else
      {
        /* Get Start Tick*/
        tickstart = HAL_GetTick();
 8001aba:	f7ff fb27 	bl	800110c <HAL_GetTick>
 8001abe:	0003      	movs	r3, r0
 8001ac0:	613b      	str	r3, [r7, #16]

        /* Wait till LSE is disabled */
        while (READ_BIT(RCC->BDCR, RCC_BDCR_LSERDY) != 0U)
 8001ac2:	e009      	b.n	8001ad8 <HAL_RCC_OscConfig+0x470>
        {
          if ((HAL_GetTick() - tickstart) > RCC_LSE_TIMEOUT_VALUE)
 8001ac4:	f7ff fb22 	bl	800110c <HAL_GetTick>
 8001ac8:	0002      	movs	r2, r0
 8001aca:	693b      	ldr	r3, [r7, #16]
 8001acc:	1ad3      	subs	r3, r2, r3
 8001ace:	4a73      	ldr	r2, [pc, #460]	; (8001c9c <HAL_RCC_OscConfig+0x634>)
 8001ad0:	4293      	cmp	r3, r2
 8001ad2:	d901      	bls.n	8001ad8 <HAL_RCC_OscConfig+0x470>
          {
            return HAL_TIMEOUT;
 8001ad4:	2303      	movs	r3, #3
 8001ad6:	e121      	b.n	8001d1c <HAL_RCC_OscConfig+0x6b4>
        while (READ_BIT(RCC->BDCR, RCC_BDCR_LSERDY) != 0U)
 8001ad8:	4b6e      	ldr	r3, [pc, #440]	; (8001c94 <HAL_RCC_OscConfig+0x62c>)
 8001ada:	6ddb      	ldr	r3, [r3, #92]	; 0x5c
 8001adc:	2202      	movs	r2, #2
 8001ade:	4013      	ands	r3, r2
 8001ae0:	d1f0      	bne.n	8001ac4 <HAL_RCC_OscConfig+0x45c>
          }
        }
      }

      /* Restore clock configuration if changed */
      if (pwrclkchanged == SET)
 8001ae2:	231f      	movs	r3, #31
 8001ae4:	18fb      	adds	r3, r7, r3
 8001ae6:	781b      	ldrb	r3, [r3, #0]
 8001ae8:	2b01      	cmp	r3, #1
 8001aea:	d105      	bne.n	8001af8 <HAL_RCC_OscConfig+0x490>
      {
        __HAL_RCC_PWR_CLK_DISABLE();
 8001aec:	4b69      	ldr	r3, [pc, #420]	; (8001c94 <HAL_RCC_OscConfig+0x62c>)
 8001aee:	6bda      	ldr	r2, [r3, #60]	; 0x3c
 8001af0:	4b68      	ldr	r3, [pc, #416]	; (8001c94 <HAL_RCC_OscConfig+0x62c>)
 8001af2:	496b      	ldr	r1, [pc, #428]	; (8001ca0 <HAL_RCC_OscConfig+0x638>)
 8001af4:	400a      	ands	r2, r1
 8001af6:	63da      	str	r2, [r3, #60]	; 0x3c
      }
    }
  }
#if defined(RCC_HSI48_SUPPORT)
  /*------------------------------ HSI48 Configuration -----------------------*/
  if (((RCC_OscInitStruct->OscillatorType) & RCC_OSCILLATORTYPE_HSI48) == RCC_OSCILLATORTYPE_HSI48)
 8001af8:	687b      	ldr	r3, [r7, #4]
 8001afa:	681b      	ldr	r3, [r3, #0]
 8001afc:	2220      	movs	r2, #32
 8001afe:	4013      	ands	r3, r2
 8001b00:	d039      	beq.n	8001b76 <HAL_RCC_OscConfig+0x50e>
  {
    /* Check the parameters */
    assert_param(IS_RCC_HSI48(RCC_OscInitStruct->HSI48State));

    /* Check the LSI State */
    if (RCC_OscInitStruct->HSI48State != RCC_HSI48_OFF)
 8001b02:	687b      	ldr	r3, [r7, #4]
 8001b04:	69db      	ldr	r3, [r3, #28]
 8001b06:	2b00      	cmp	r3, #0
 8001b08:	d01b      	beq.n	8001b42 <HAL_RCC_OscConfig+0x4da>
    {
      /* Enable the Internal Low Speed oscillator (HSI48). */
      __HAL_RCC_HSI48_ENABLE();
 8001b0a:	4b62      	ldr	r3, [pc, #392]	; (8001c94 <HAL_RCC_OscConfig+0x62c>)
 8001b0c:	681a      	ldr	r2, [r3, #0]
 8001b0e:	4b61      	ldr	r3, [pc, #388]	; (8001c94 <HAL_RCC_OscConfig+0x62c>)
 8001b10:	2180      	movs	r1, #128	; 0x80
 8001b12:	03c9      	lsls	r1, r1, #15
 8001b14:	430a      	orrs	r2, r1
 8001b16:	601a      	str	r2, [r3, #0]

      /* Get Start Tick*/
      tickstart = HAL_GetTick();
 8001b18:	f7ff faf8 	bl	800110c <HAL_GetTick>
 8001b1c:	0003      	movs	r3, r0
 8001b1e:	613b      	str	r3, [r7, #16]

      /* Wait till HSI48 is ready */
      while (READ_BIT(RCC->CR, RCC_CR_HSI48RDY) == 0U)
 8001b20:	e008      	b.n	8001b34 <HAL_RCC_OscConfig+0x4cc>
      {
        if ((HAL_GetTick() - tickstart) > HSI48_TIMEOUT_VALUE)
 8001b22:	f7ff faf3 	bl	800110c <HAL_GetTick>
 8001b26:	0002      	movs	r2, r0
 8001b28:	693b      	ldr	r3, [r7, #16]
 8001b2a:	1ad3      	subs	r3, r2, r3
 8001b2c:	2b02      	cmp	r3, #2
 8001b2e:	d901      	bls.n	8001b34 <HAL_RCC_OscConfig+0x4cc>
        {
          return HAL_TIMEOUT;
 8001b30:	2303      	movs	r3, #3
 8001b32:	e0f3      	b.n	8001d1c <HAL_RCC_OscConfig+0x6b4>
      while (READ_BIT(RCC->CR, RCC_CR_HSI48RDY) == 0U)
 8001b34:	4b57      	ldr	r3, [pc, #348]	; (8001c94 <HAL_RCC_OscConfig+0x62c>)
 8001b36:	681a      	ldr	r2, [r3, #0]
 8001b38:	2380      	movs	r3, #128	; 0x80
 8001b3a:	041b      	lsls	r3, r3, #16
 8001b3c:	4013      	ands	r3, r2
 8001b3e:	d0f0      	beq.n	8001b22 <HAL_RCC_OscConfig+0x4ba>
 8001b40:	e019      	b.n	8001b76 <HAL_RCC_OscConfig+0x50e>
      }
    }
    else
    {
      /* Disable the Internal Low Speed oscillator (HSI48). */
      __HAL_RCC_HSI48_DISABLE();
 8001b42:	4b54      	ldr	r3, [pc, #336]	; (8001c94 <HAL_RCC_OscConfig+0x62c>)
 8001b44:	681a      	ldr	r2, [r3, #0]
 8001b46:	4b53      	ldr	r3, [pc, #332]	; (8001c94 <HAL_RCC_OscConfig+0x62c>)
 8001b48:	4956      	ldr	r1, [pc, #344]	; (8001ca4 <HAL_RCC_OscConfig+0x63c>)
 8001b4a:	400a      	ands	r2, r1
 8001b4c:	601a      	str	r2, [r3, #0]

      /* Get Start Tick*/
      tickstart = HAL_GetTick();
 8001b4e:	f7ff fadd 	bl	800110c <HAL_GetTick>
 8001b52:	0003      	movs	r3, r0
 8001b54:	613b      	str	r3, [r7, #16]

      /* Wait till HSI48 is disabled */
      while (READ_BIT(RCC->CR, RCC_CR_HSI48RDY) != 0U)
 8001b56:	e008      	b.n	8001b6a <HAL_RCC_OscConfig+0x502>
      {
        if ((HAL_GetTick() - tickstart) > HSI48_TIMEOUT_VALUE)
 8001b58:	f7ff fad8 	bl	800110c <HAL_GetTick>
 8001b5c:	0002      	movs	r2, r0
 8001b5e:	693b      	ldr	r3, [r7, #16]
 8001b60:	1ad3      	subs	r3, r2, r3
 8001b62:	2b02      	cmp	r3, #2
 8001b64:	d901      	bls.n	8001b6a <HAL_RCC_OscConfig+0x502>
        {
          return HAL_TIMEOUT;
 8001b66:	2303      	movs	r3, #3
 8001b68:	e0d8      	b.n	8001d1c <HAL_RCC_OscConfig+0x6b4>
      while (READ_BIT(RCC->CR, RCC_CR_HSI48RDY) != 0U)
 8001b6a:	4b4a      	ldr	r3, [pc, #296]	; (8001c94 <HAL_RCC_OscConfig+0x62c>)
 8001b6c:	681a      	ldr	r2, [r3, #0]
 8001b6e:	2380      	movs	r3, #128	; 0x80
 8001b70:	041b      	lsls	r3, r3, #16
 8001b72:	4013      	ands	r3, r2
 8001b74:	d1f0      	bne.n	8001b58 <HAL_RCC_OscConfig+0x4f0>
#endif /* RCC_HSI48_SUPPORT */
  /*-------------------------------- PLL Configuration -----------------------*/
  /* Check the parameters */
  assert_param(IS_RCC_PLL(RCC_OscInitStruct->PLL.PLLState));

  if (RCC_OscInitStruct->PLL.PLLState != RCC_PLL_NONE)
 8001b76:	687b      	ldr	r3, [r7, #4]
 8001b78:	6a1b      	ldr	r3, [r3, #32]
 8001b7a:	2b00      	cmp	r3, #0
 8001b7c:	d100      	bne.n	8001b80 <HAL_RCC_OscConfig+0x518>
 8001b7e:	e0cc      	b.n	8001d1a <HAL_RCC_OscConfig+0x6b2>
  {
    /* Check if the PLL is used as system clock or not */
    if (__HAL_RCC_GET_SYSCLK_SOURCE() != RCC_SYSCLKSOURCE_STATUS_PLLCLK)
 8001b80:	4b44      	ldr	r3, [pc, #272]	; (8001c94 <HAL_RCC_OscConfig+0x62c>)
 8001b82:	689b      	ldr	r3, [r3, #8]
 8001b84:	2238      	movs	r2, #56	; 0x38
 8001b86:	4013      	ands	r3, r2
 8001b88:	2b10      	cmp	r3, #16
 8001b8a:	d100      	bne.n	8001b8e <HAL_RCC_OscConfig+0x526>
 8001b8c:	e07b      	b.n	8001c86 <HAL_RCC_OscConfig+0x61e>
    {
      if (RCC_OscInitStruct->PLL.PLLState == RCC_PLL_ON)
 8001b8e:	687b      	ldr	r3, [r7, #4]
 8001b90:	6a1b      	ldr	r3, [r3, #32]
 8001b92:	2b02      	cmp	r3, #2
 8001b94:	d156      	bne.n	8001c44 <HAL_RCC_OscConfig+0x5dc>
        assert_param(IS_RCC_PLLQ_VALUE(RCC_OscInitStruct->PLL.PLLQ));
#endif /* RCC_PLLQ_SUPPORT */
        assert_param(IS_RCC_PLLR_VALUE(RCC_OscInitStruct->PLL.PLLR));

        /* Disable the main PLL. */
        __HAL_RCC_PLL_DISABLE();
 8001b96:	4b3f      	ldr	r3, [pc, #252]	; (8001c94 <HAL_RCC_OscConfig+0x62c>)
 8001b98:	681a      	ldr	r2, [r3, #0]
 8001b9a:	4b3e      	ldr	r3, [pc, #248]	; (8001c94 <HAL_RCC_OscConfig+0x62c>)
 8001b9c:	4942      	ldr	r1, [pc, #264]	; (8001ca8 <HAL_RCC_OscConfig+0x640>)
 8001b9e:	400a      	ands	r2, r1
 8001ba0:	601a      	str	r2, [r3, #0]

        /* Get Start Tick*/
        tickstart = HAL_GetTick();
 8001ba2:	f7ff fab3 	bl	800110c <HAL_GetTick>
 8001ba6:	0003      	movs	r3, r0
 8001ba8:	613b      	str	r3, [r7, #16]

        /* Wait till PLL is ready */
        while (READ_BIT(RCC->CR, RCC_CR_PLLRDY) != 0U)
 8001baa:	e008      	b.n	8001bbe <HAL_RCC_OscConfig+0x556>
        {
          if ((HAL_GetTick() - tickstart) > PLL_TIMEOUT_VALUE)
 8001bac:	f7ff faae 	bl	800110c <HAL_GetTick>
 8001bb0:	0002      	movs	r2, r0
 8001bb2:	693b      	ldr	r3, [r7, #16]
 8001bb4:	1ad3      	subs	r3, r2, r3
 8001bb6:	2b02      	cmp	r3, #2
 8001bb8:	d901      	bls.n	8001bbe <HAL_RCC_OscConfig+0x556>
          {
            return HAL_TIMEOUT;
 8001bba:	2303      	movs	r3, #3
 8001bbc:	e0ae      	b.n	8001d1c <HAL_RCC_OscConfig+0x6b4>
        while (READ_BIT(RCC->CR, RCC_CR_PLLRDY) != 0U)
 8001bbe:	4b35      	ldr	r3, [pc, #212]	; (8001c94 <HAL_RCC_OscConfig+0x62c>)
 8001bc0:	681a      	ldr	r2, [r3, #0]
 8001bc2:	2380      	movs	r3, #128	; 0x80
 8001bc4:	049b      	lsls	r3, r3, #18
 8001bc6:	4013      	ands	r3, r2
 8001bc8:	d1f0      	bne.n	8001bac <HAL_RCC_OscConfig+0x544>
          }
        }

        /* Configure the main PLL clock source, multiplication and division factors. */
#if defined(RCC_PLLQ_SUPPORT)
        __HAL_RCC_PLL_CONFIG(RCC_OscInitStruct->PLL.PLLSource,
 8001bca:	4b32      	ldr	r3, [pc, #200]	; (8001c94 <HAL_RCC_OscConfig+0x62c>)
 8001bcc:	68db      	ldr	r3, [r3, #12]
 8001bce:	4a37      	ldr	r2, [pc, #220]	; (8001cac <HAL_RCC_OscConfig+0x644>)
 8001bd0:	4013      	ands	r3, r2
 8001bd2:	0019      	movs	r1, r3
 8001bd4:	687b      	ldr	r3, [r7, #4]
 8001bd6:	6a5a      	ldr	r2, [r3, #36]	; 0x24
 8001bd8:	687b      	ldr	r3, [r7, #4]
 8001bda:	6a9b      	ldr	r3, [r3, #40]	; 0x28
 8001bdc:	431a      	orrs	r2, r3
 8001bde:	687b      	ldr	r3, [r7, #4]
 8001be0:	6adb      	ldr	r3, [r3, #44]	; 0x2c
 8001be2:	021b      	lsls	r3, r3, #8
 8001be4:	431a      	orrs	r2, r3
 8001be6:	687b      	ldr	r3, [r7, #4]
 8001be8:	6b1b      	ldr	r3, [r3, #48]	; 0x30
 8001bea:	431a      	orrs	r2, r3
 8001bec:	687b      	ldr	r3, [r7, #4]
 8001bee:	6b5b      	ldr	r3, [r3, #52]	; 0x34
 8001bf0:	431a      	orrs	r2, r3
 8001bf2:	687b      	ldr	r3, [r7, #4]
 8001bf4:	6b9b      	ldr	r3, [r3, #56]	; 0x38
 8001bf6:	431a      	orrs	r2, r3
 8001bf8:	4b26      	ldr	r3, [pc, #152]	; (8001c94 <HAL_RCC_OscConfig+0x62c>)
 8001bfa:	430a      	orrs	r2, r1
 8001bfc:	60da      	str	r2, [r3, #12]
                             RCC_OscInitStruct->PLL.PLLP,
                             RCC_OscInitStruct->PLL.PLLR);
#endif /* RCC_PLLQ_SUPPORT */

        /* Enable the main PLL. */
        __HAL_RCC_PLL_ENABLE();
 8001bfe:	4b25      	ldr	r3, [pc, #148]	; (8001c94 <HAL_RCC_OscConfig+0x62c>)
 8001c00:	681a      	ldr	r2, [r3, #0]
 8001c02:	4b24      	ldr	r3, [pc, #144]	; (8001c94 <HAL_RCC_OscConfig+0x62c>)
 8001c04:	2180      	movs	r1, #128	; 0x80
 8001c06:	0449      	lsls	r1, r1, #17
 8001c08:	430a      	orrs	r2, r1
 8001c0a:	601a      	str	r2, [r3, #0]

        /* Enable PLLR Clock output. */
        __HAL_RCC_PLLCLKOUT_ENABLE(RCC_PLLRCLK);
 8001c0c:	4b21      	ldr	r3, [pc, #132]	; (8001c94 <HAL_RCC_OscConfig+0x62c>)
 8001c0e:	68da      	ldr	r2, [r3, #12]
 8001c10:	4b20      	ldr	r3, [pc, #128]	; (8001c94 <HAL_RCC_OscConfig+0x62c>)
 8001c12:	2180      	movs	r1, #128	; 0x80
 8001c14:	0549      	lsls	r1, r1, #21
 8001c16:	430a      	orrs	r2, r1
 8001c18:	60da      	str	r2, [r3, #12]

        /* Get Start Tick*/
        tickstart = HAL_GetTick();
 8001c1a:	f7ff fa77 	bl	800110c <HAL_GetTick>
 8001c1e:	0003      	movs	r3, r0
 8001c20:	613b      	str	r3, [r7, #16]

        /* Wait till PLL is ready */
        while (READ_BIT(RCC->CR, RCC_CR_PLLRDY) == 0U)
 8001c22:	e008      	b.n	8001c36 <HAL_RCC_OscConfig+0x5ce>
        {
          if ((HAL_GetTick() - tickstart) > PLL_TIMEOUT_VALUE)
 8001c24:	f7ff fa72 	bl	800110c <HAL_GetTick>
 8001c28:	0002      	movs	r2, r0
 8001c2a:	693b      	ldr	r3, [r7, #16]
 8001c2c:	1ad3      	subs	r3, r2, r3
 8001c2e:	2b02      	cmp	r3, #2
 8001c30:	d901      	bls.n	8001c36 <HAL_RCC_OscConfig+0x5ce>
          {
            return HAL_TIMEOUT;
 8001c32:	2303      	movs	r3, #3
 8001c34:	e072      	b.n	8001d1c <HAL_RCC_OscConfig+0x6b4>
        while (READ_BIT(RCC->CR, RCC_CR_PLLRDY) == 0U)
 8001c36:	4b17      	ldr	r3, [pc, #92]	; (8001c94 <HAL_RCC_OscConfig+0x62c>)
 8001c38:	681a      	ldr	r2, [r3, #0]
 8001c3a:	2380      	movs	r3, #128	; 0x80
 8001c3c:	049b      	lsls	r3, r3, #18
 8001c3e:	4013      	ands	r3, r2
 8001c40:	d0f0      	beq.n	8001c24 <HAL_RCC_OscConfig+0x5bc>
 8001c42:	e06a      	b.n	8001d1a <HAL_RCC_OscConfig+0x6b2>
        }
      }
      else
      {
        /* Disable the main PLL. */
        __HAL_RCC_PLL_DISABLE();
 8001c44:	4b13      	ldr	r3, [pc, #76]	; (8001c94 <HAL_RCC_OscConfig+0x62c>)
 8001c46:	681a      	ldr	r2, [r3, #0]
 8001c48:	4b12      	ldr	r3, [pc, #72]	; (8001c94 <HAL_RCC_OscConfig+0x62c>)
 8001c4a:	4917      	ldr	r1, [pc, #92]	; (8001ca8 <HAL_RCC_OscConfig+0x640>)
 8001c4c:	400a      	ands	r2, r1
 8001c4e:	601a      	str	r2, [r3, #0]

        /* Get Start Tick*/
        tickstart = HAL_GetTick();
 8001c50:	f7ff fa5c 	bl	800110c <HAL_GetTick>
 8001c54:	0003      	movs	r3, r0
 8001c56:	613b      	str	r3, [r7, #16]

        /* Wait till PLL is disabled */
        while (READ_BIT(RCC->CR, RCC_CR_PLLRDY) != 0U)
 8001c58:	e008      	b.n	8001c6c <HAL_RCC_OscConfig+0x604>
        {
          if ((HAL_GetTick() - tickstart) > PLL_TIMEOUT_VALUE)
 8001c5a:	f7ff fa57 	bl	800110c <HAL_GetTick>
 8001c5e:	0002      	movs	r2, r0
 8001c60:	693b      	ldr	r3, [r7, #16]
 8001c62:	1ad3      	subs	r3, r2, r3
 8001c64:	2b02      	cmp	r3, #2
 8001c66:	d901      	bls.n	8001c6c <HAL_RCC_OscConfig+0x604>
          {
            return HAL_TIMEOUT;
 8001c68:	2303      	movs	r3, #3
 8001c6a:	e057      	b.n	8001d1c <HAL_RCC_OscConfig+0x6b4>
        while (READ_BIT(RCC->CR, RCC_CR_PLLRDY) != 0U)
 8001c6c:	4b09      	ldr	r3, [pc, #36]	; (8001c94 <HAL_RCC_OscConfig+0x62c>)
 8001c6e:	681a      	ldr	r2, [r3, #0]
 8001c70:	2380      	movs	r3, #128	; 0x80
 8001c72:	049b      	lsls	r3, r3, #18
 8001c74:	4013      	ands	r3, r2
 8001c76:	d1f0      	bne.n	8001c5a <HAL_RCC_OscConfig+0x5f2>
          }
        }
        /* Unselect main PLL clock source and disable main PLL outputs to save power */
#if defined(RCC_PLLQ_SUPPORT)
        RCC->PLLCFGR &= ~(RCC_PLLCFGR_PLLSRC | RCC_PLLCFGR_PLLPEN | RCC_PLLCFGR_PLLQEN | RCC_PLLCFGR_PLLREN);
 8001c78:	4b06      	ldr	r3, [pc, #24]	; (8001c94 <HAL_RCC_OscConfig+0x62c>)
 8001c7a:	68da      	ldr	r2, [r3, #12]
 8001c7c:	4b05      	ldr	r3, [pc, #20]	; (8001c94 <HAL_RCC_OscConfig+0x62c>)
 8001c7e:	490c      	ldr	r1, [pc, #48]	; (8001cb0 <HAL_RCC_OscConfig+0x648>)
 8001c80:	400a      	ands	r2, r1
 8001c82:	60da      	str	r2, [r3, #12]
 8001c84:	e049      	b.n	8001d1a <HAL_RCC_OscConfig+0x6b2>
      }
    }
    else
    {
      /* Check if there is a request to disable the PLL used as System clock source */
      if ((RCC_OscInitStruct->PLL.PLLState) == RCC_PLL_OFF)
 8001c86:	687b      	ldr	r3, [r7, #4]
 8001c88:	6a1b      	ldr	r3, [r3, #32]
 8001c8a:	2b01      	cmp	r3, #1
 8001c8c:	d112      	bne.n	8001cb4 <HAL_RCC_OscConfig+0x64c>
      {
        return HAL_ERROR;
 8001c8e:	2301      	movs	r3, #1
 8001c90:	e044      	b.n	8001d1c <HAL_RCC_OscConfig+0x6b4>
 8001c92:	46c0      	nop			; (mov r8, r8)
 8001c94:	40021000 	.word	0x40021000
 8001c98:	40007000 	.word	0x40007000
 8001c9c:	00001388 	.word	0x00001388
 8001ca0:	efffffff 	.word	0xefffffff
 8001ca4:	ffbfffff 	.word	0xffbfffff
 8001ca8:	feffffff 	.word	0xfeffffff
 8001cac:	11c1808c 	.word	0x11c1808c
 8001cb0:	eefefffc 	.word	0xeefefffc
      }
      else
      {
        /* Do not return HAL_ERROR if request repeats the current configuration */
        temp_pllckcfg = RCC->PLLCFGR;
 8001cb4:	4b1b      	ldr	r3, [pc, #108]	; (8001d24 <HAL_RCC_OscConfig+0x6bc>)
 8001cb6:	68db      	ldr	r3, [r3, #12]
 8001cb8:	617b      	str	r3, [r7, #20]
        if ((READ_BIT(temp_pllckcfg, RCC_PLLCFGR_PLLSRC) != RCC_OscInitStruct->PLL.PLLSource) ||
 8001cba:	697b      	ldr	r3, [r7, #20]
 8001cbc:	2203      	movs	r2, #3
 8001cbe:	401a      	ands	r2, r3
 8001cc0:	687b      	ldr	r3, [r7, #4]
 8001cc2:	6a5b      	ldr	r3, [r3, #36]	; 0x24
 8001cc4:	429a      	cmp	r2, r3
 8001cc6:	d126      	bne.n	8001d16 <HAL_RCC_OscConfig+0x6ae>
            (READ_BIT(temp_pllckcfg, RCC_PLLCFGR_PLLM) != RCC_OscInitStruct->PLL.PLLM) ||
 8001cc8:	697b      	ldr	r3, [r7, #20]
 8001cca:	2270      	movs	r2, #112	; 0x70
 8001ccc:	401a      	ands	r2, r3
 8001cce:	687b      	ldr	r3, [r7, #4]
 8001cd0:	6a9b      	ldr	r3, [r3, #40]	; 0x28
        if ((READ_BIT(temp_pllckcfg, RCC_PLLCFGR_PLLSRC) != RCC_OscInitStruct->PLL.PLLSource) ||
 8001cd2:	429a      	cmp	r2, r3
 8001cd4:	d11f      	bne.n	8001d16 <HAL_RCC_OscConfig+0x6ae>
            (READ_BIT(temp_pllckcfg, RCC_PLLCFGR_PLLN) != (RCC_OscInitStruct->PLL.PLLN << RCC_PLLCFGR_PLLN_Pos)) ||
 8001cd6:	697a      	ldr	r2, [r7, #20]
 8001cd8:	23fe      	movs	r3, #254	; 0xfe
 8001cda:	01db      	lsls	r3, r3, #7
 8001cdc:	401a      	ands	r2, r3
 8001cde:	687b      	ldr	r3, [r7, #4]
 8001ce0:	6adb      	ldr	r3, [r3, #44]	; 0x2c
 8001ce2:	021b      	lsls	r3, r3, #8
            (READ_BIT(temp_pllckcfg, RCC_PLLCFGR_PLLM) != RCC_OscInitStruct->PLL.PLLM) ||
 8001ce4:	429a      	cmp	r2, r3
 8001ce6:	d116      	bne.n	8001d16 <HAL_RCC_OscConfig+0x6ae>
            (READ_BIT(temp_pllckcfg, RCC_PLLCFGR_PLLP) != RCC_OscInitStruct->PLL.PLLP) ||
 8001ce8:	697a      	ldr	r2, [r7, #20]
 8001cea:	23f8      	movs	r3, #248	; 0xf8
 8001cec:	039b      	lsls	r3, r3, #14
 8001cee:	401a      	ands	r2, r3
 8001cf0:	687b      	ldr	r3, [r7, #4]
 8001cf2:	6b1b      	ldr	r3, [r3, #48]	; 0x30
            (READ_BIT(temp_pllckcfg, RCC_PLLCFGR_PLLN) != (RCC_OscInitStruct->PLL.PLLN << RCC_PLLCFGR_PLLN_Pos)) ||
 8001cf4:	429a      	cmp	r2, r3
 8001cf6:	d10e      	bne.n	8001d16 <HAL_RCC_OscConfig+0x6ae>
#if defined (RCC_PLLQ_SUPPORT)
            (READ_BIT(temp_pllckcfg, RCC_PLLCFGR_PLLQ) != RCC_OscInitStruct->PLL.PLLQ) ||
 8001cf8:	697a      	ldr	r2, [r7, #20]
 8001cfa:	23e0      	movs	r3, #224	; 0xe0
 8001cfc:	051b      	lsls	r3, r3, #20
 8001cfe:	401a      	ands	r2, r3
 8001d00:	687b      	ldr	r3, [r7, #4]
 8001d02:	6b5b      	ldr	r3, [r3, #52]	; 0x34
            (READ_BIT(temp_pllckcfg, RCC_PLLCFGR_PLLP) != RCC_OscInitStruct->PLL.PLLP) ||
 8001d04:	429a      	cmp	r2, r3
 8001d06:	d106      	bne.n	8001d16 <HAL_RCC_OscConfig+0x6ae>
#endif /* RCC_PLLQ_SUPPORT */
            (READ_BIT(temp_pllckcfg, RCC_PLLCFGR_PLLR) != RCC_OscInitStruct->PLL.PLLR))
 8001d08:	697b      	ldr	r3, [r7, #20]
 8001d0a:	0f5b      	lsrs	r3, r3, #29
 8001d0c:	075a      	lsls	r2, r3, #29
 8001d0e:	687b      	ldr	r3, [r7, #4]
 8001d10:	6b9b      	ldr	r3, [r3, #56]	; 0x38
            (READ_BIT(temp_pllckcfg, RCC_PLLCFGR_PLLQ) != RCC_OscInitStruct->PLL.PLLQ) ||
 8001d12:	429a      	cmp	r2, r3
 8001d14:	d001      	beq.n	8001d1a <HAL_RCC_OscConfig+0x6b2>
        {
          return HAL_ERROR;
 8001d16:	2301      	movs	r3, #1
 8001d18:	e000      	b.n	8001d1c <HAL_RCC_OscConfig+0x6b4>
        }
      }
    }
  }
  return HAL_OK;
 8001d1a:	2300      	movs	r3, #0
}
 8001d1c:	0018      	movs	r0, r3
 8001d1e:	46bd      	mov	sp, r7
 8001d20:	b008      	add	sp, #32
 8001d22:	bd80      	pop	{r7, pc}
 8001d24:	40021000 	.word	0x40021000

08001d28 <HAL_RCC_ClockConfig>:
  *         HPRE[3:0] bits to ensure that HCLK not exceed the maximum allowed frequency
  *         (for more details refer to section above "Initialization/de-initialization functions")
  * @retval None
  */
HAL_StatusTypeDef HAL_RCC_ClockConfig(RCC_ClkInitTypeDef  *RCC_ClkInitStruct, uint32_t FLatency)
{
 8001d28:	b580      	push	{r7, lr}
 8001d2a:	b084      	sub	sp, #16
 8001d2c:	af00      	add	r7, sp, #0
 8001d2e:	6078      	str	r0, [r7, #4]
 8001d30:	6039      	str	r1, [r7, #0]
  uint32_t tickstart;

  /* Check Null pointer */
  if (RCC_ClkInitStruct == NULL)
 8001d32:	687b      	ldr	r3, [r7, #4]
 8001d34:	2b00      	cmp	r3, #0
 8001d36:	d101      	bne.n	8001d3c <HAL_RCC_ClockConfig+0x14>
  {
    return HAL_ERROR;
 8001d38:	2301      	movs	r3, #1
 8001d3a:	e0e9      	b.n	8001f10 <HAL_RCC_ClockConfig+0x1e8>
  /* To correctly read data from FLASH memory, the number of wait states (LATENCY)
    must be correctly programmed according to the frequency of the FLASH clock
    (HCLK) and the supply voltage of the device. */

  /* Increasing the number of wait states because of higher CPU frequency */
  if (FLatency > __HAL_FLASH_GET_LATENCY())
 8001d3c:	4b76      	ldr	r3, [pc, #472]	; (8001f18 <HAL_RCC_ClockConfig+0x1f0>)
 8001d3e:	681b      	ldr	r3, [r3, #0]
 8001d40:	2207      	movs	r2, #7
 8001d42:	4013      	ands	r3, r2
 8001d44:	683a      	ldr	r2, [r7, #0]
 8001d46:	429a      	cmp	r2, r3
 8001d48:	d91e      	bls.n	8001d88 <HAL_RCC_ClockConfig+0x60>
  {
    /* Program the new number of wait states to the LATENCY bits in the FLASH_ACR register */
    __HAL_FLASH_SET_LATENCY(FLatency);
 8001d4a:	4b73      	ldr	r3, [pc, #460]	; (8001f18 <HAL_RCC_ClockConfig+0x1f0>)
 8001d4c:	681b      	ldr	r3, [r3, #0]
 8001d4e:	2207      	movs	r2, #7
 8001d50:	4393      	bics	r3, r2
 8001d52:	0019      	movs	r1, r3
 8001d54:	4b70      	ldr	r3, [pc, #448]	; (8001f18 <HAL_RCC_ClockConfig+0x1f0>)
 8001d56:	683a      	ldr	r2, [r7, #0]
 8001d58:	430a      	orrs	r2, r1
 8001d5a:	601a      	str	r2, [r3, #0]

    /* Check that the new number of wait states is taken into account to access the Flash
    memory by polling the FLASH_ACR register */
    tickstart = HAL_GetTick();
 8001d5c:	f7ff f9d6 	bl	800110c <HAL_GetTick>
 8001d60:	0003      	movs	r3, r0
 8001d62:	60fb      	str	r3, [r7, #12]

    while ((FLASH->ACR & FLASH_ACR_LATENCY) != FLatency)
 8001d64:	e009      	b.n	8001d7a <HAL_RCC_ClockConfig+0x52>
    {
      if ((HAL_GetTick() - tickstart) > CLOCKSWITCH_TIMEOUT_VALUE)
 8001d66:	f7ff f9d1 	bl	800110c <HAL_GetTick>
 8001d6a:	0002      	movs	r2, r0
 8001d6c:	68fb      	ldr	r3, [r7, #12]
 8001d6e:	1ad3      	subs	r3, r2, r3
 8001d70:	4a6a      	ldr	r2, [pc, #424]	; (8001f1c <HAL_RCC_ClockConfig+0x1f4>)
 8001d72:	4293      	cmp	r3, r2
 8001d74:	d901      	bls.n	8001d7a <HAL_RCC_ClockConfig+0x52>
      {
        return HAL_TIMEOUT;
 8001d76:	2303      	movs	r3, #3
 8001d78:	e0ca      	b.n	8001f10 <HAL_RCC_ClockConfig+0x1e8>
    while ((FLASH->ACR & FLASH_ACR_LATENCY) != FLatency)
 8001d7a:	4b67      	ldr	r3, [pc, #412]	; (8001f18 <HAL_RCC_ClockConfig+0x1f0>)
 8001d7c:	681b      	ldr	r3, [r3, #0]
 8001d7e:	2207      	movs	r2, #7
 8001d80:	4013      	ands	r3, r2
 8001d82:	683a      	ldr	r2, [r7, #0]
 8001d84:	429a      	cmp	r2, r3
 8001d86:	d1ee      	bne.n	8001d66 <HAL_RCC_ClockConfig+0x3e>
      }
    }
  }

  /*-------------------------- HCLK Configuration --------------------------*/
  if (((RCC_ClkInitStruct->ClockType) & RCC_CLOCKTYPE_HCLK) == RCC_CLOCKTYPE_HCLK)
 8001d88:	687b      	ldr	r3, [r7, #4]
 8001d8a:	681b      	ldr	r3, [r3, #0]
 8001d8c:	2202      	movs	r2, #2
 8001d8e:	4013      	ands	r3, r2
 8001d90:	d015      	beq.n	8001dbe <HAL_RCC_ClockConfig+0x96>
  {
    /* Set the highest APB divider in order to ensure that we do not go through
       a non-spec phase whatever we decrease or increase HCLK. */
    if (((RCC_ClkInitStruct->ClockType) & RCC_CLOCKTYPE_PCLK1) == RCC_CLOCKTYPE_PCLK1)
 8001d92:	687b      	ldr	r3, [r7, #4]
 8001d94:	681b      	ldr	r3, [r3, #0]
 8001d96:	2204      	movs	r2, #4
 8001d98:	4013      	ands	r3, r2
 8001d9a:	d006      	beq.n	8001daa <HAL_RCC_ClockConfig+0x82>
    {
      MODIFY_REG(RCC->CFGR, RCC_CFGR_PPRE, RCC_HCLK_DIV16);
 8001d9c:	4b60      	ldr	r3, [pc, #384]	; (8001f20 <HAL_RCC_ClockConfig+0x1f8>)
 8001d9e:	689a      	ldr	r2, [r3, #8]
 8001da0:	4b5f      	ldr	r3, [pc, #380]	; (8001f20 <HAL_RCC_ClockConfig+0x1f8>)
 8001da2:	21e0      	movs	r1, #224	; 0xe0
 8001da4:	01c9      	lsls	r1, r1, #7
 8001da6:	430a      	orrs	r2, r1
 8001da8:	609a      	str	r2, [r3, #8]
    }

    /* Set the new HCLK clock divider */
    assert_param(IS_RCC_HCLK(RCC_ClkInitStruct->AHBCLKDivider));
    MODIFY_REG(RCC->CFGR, RCC_CFGR_HPRE, RCC_ClkInitStruct->AHBCLKDivider);
 8001daa:	4b5d      	ldr	r3, [pc, #372]	; (8001f20 <HAL_RCC_ClockConfig+0x1f8>)
 8001dac:	689b      	ldr	r3, [r3, #8]
 8001dae:	4a5d      	ldr	r2, [pc, #372]	; (8001f24 <HAL_RCC_ClockConfig+0x1fc>)
 8001db0:	4013      	ands	r3, r2
 8001db2:	0019      	movs	r1, r3
 8001db4:	687b      	ldr	r3, [r7, #4]
 8001db6:	689a      	ldr	r2, [r3, #8]
 8001db8:	4b59      	ldr	r3, [pc, #356]	; (8001f20 <HAL_RCC_ClockConfig+0x1f8>)
 8001dba:	430a      	orrs	r2, r1
 8001dbc:	609a      	str	r2, [r3, #8]
  }

  /*------------------------- SYSCLK Configuration ---------------------------*/
  if (((RCC_ClkInitStruct->ClockType) & RCC_CLOCKTYPE_SYSCLK) == RCC_CLOCKTYPE_SYSCLK)
 8001dbe:	687b      	ldr	r3, [r7, #4]
 8001dc0:	681b      	ldr	r3, [r3, #0]
 8001dc2:	2201      	movs	r2, #1
 8001dc4:	4013      	ands	r3, r2
 8001dc6:	d057      	beq.n	8001e78 <HAL_RCC_ClockConfig+0x150>
  {
    assert_param(IS_RCC_SYSCLKSOURCE(RCC_ClkInitStruct->SYSCLKSource));

    /* HSE is selected as System Clock Source */
    if (RCC_ClkInitStruct->SYSCLKSource == RCC_SYSCLKSOURCE_HSE)
 8001dc8:	687b      	ldr	r3, [r7, #4]
 8001dca:	685b      	ldr	r3, [r3, #4]
 8001dcc:	2b01      	cmp	r3, #1
 8001dce:	d107      	bne.n	8001de0 <HAL_RCC_ClockConfig+0xb8>
    {
      /* Check the HSE ready flag */
      if (READ_BIT(RCC->CR, RCC_CR_HSERDY) == 0U)
 8001dd0:	4b53      	ldr	r3, [pc, #332]	; (8001f20 <HAL_RCC_ClockConfig+0x1f8>)
 8001dd2:	681a      	ldr	r2, [r3, #0]
 8001dd4:	2380      	movs	r3, #128	; 0x80
 8001dd6:	029b      	lsls	r3, r3, #10
 8001dd8:	4013      	ands	r3, r2
 8001dda:	d12b      	bne.n	8001e34 <HAL_RCC_ClockConfig+0x10c>
      {
        return HAL_ERROR;
 8001ddc:	2301      	movs	r3, #1
 8001dde:	e097      	b.n	8001f10 <HAL_RCC_ClockConfig+0x1e8>
      }
    }
    /* PLL is selected as System Clock Source */
    else if (RCC_ClkInitStruct->SYSCLKSource == RCC_SYSCLKSOURCE_PLLCLK)
 8001de0:	687b      	ldr	r3, [r7, #4]
 8001de2:	685b      	ldr	r3, [r3, #4]
 8001de4:	2b02      	cmp	r3, #2
 8001de6:	d107      	bne.n	8001df8 <HAL_RCC_ClockConfig+0xd0>
    {
      /* Check the PLL ready flag */
      if (READ_BIT(RCC->CR, RCC_CR_PLLRDY) == 0U)
 8001de8:	4b4d      	ldr	r3, [pc, #308]	; (8001f20 <HAL_RCC_ClockConfig+0x1f8>)
 8001dea:	681a      	ldr	r2, [r3, #0]
 8001dec:	2380      	movs	r3, #128	; 0x80
 8001dee:	049b      	lsls	r3, r3, #18
 8001df0:	4013      	ands	r3, r2
 8001df2:	d11f      	bne.n	8001e34 <HAL_RCC_ClockConfig+0x10c>
      {
        return HAL_ERROR;
 8001df4:	2301      	movs	r3, #1
 8001df6:	e08b      	b.n	8001f10 <HAL_RCC_ClockConfig+0x1e8>
      }
    }
    /* HSI is selected as System Clock Source */
    else if (RCC_ClkInitStruct->SYSCLKSource == RCC_SYSCLKSOURCE_HSI)
 8001df8:	687b      	ldr	r3, [r7, #4]
 8001dfa:	685b      	ldr	r3, [r3, #4]
 8001dfc:	2b00      	cmp	r3, #0
 8001dfe:	d107      	bne.n	8001e10 <HAL_RCC_ClockConfig+0xe8>
    {
      /* Check the HSI ready flag */
      if (READ_BIT(RCC->CR, RCC_CR_HSIRDY) == 0U)
 8001e00:	4b47      	ldr	r3, [pc, #284]	; (8001f20 <HAL_RCC_ClockConfig+0x1f8>)
 8001e02:	681a      	ldr	r2, [r3, #0]
 8001e04:	2380      	movs	r3, #128	; 0x80
 8001e06:	00db      	lsls	r3, r3, #3
 8001e08:	4013      	ands	r3, r2
 8001e0a:	d113      	bne.n	8001e34 <HAL_RCC_ClockConfig+0x10c>
      {
        return HAL_ERROR;
 8001e0c:	2301      	movs	r3, #1
 8001e0e:	e07f      	b.n	8001f10 <HAL_RCC_ClockConfig+0x1e8>
      }
    }
    /* LSI is selected as System Clock Source */
    else if (RCC_ClkInitStruct->SYSCLKSource == RCC_SYSCLKSOURCE_LSI)
 8001e10:	687b      	ldr	r3, [r7, #4]
 8001e12:	685b      	ldr	r3, [r3, #4]
 8001e14:	2b03      	cmp	r3, #3
 8001e16:	d106      	bne.n	8001e26 <HAL_RCC_ClockConfig+0xfe>
    {
      /* Check the LSI ready flag */
      if (READ_BIT(RCC->CSR, RCC_CSR_LSIRDY) == 0U)
 8001e18:	4b41      	ldr	r3, [pc, #260]	; (8001f20 <HAL_RCC_ClockConfig+0x1f8>)
 8001e1a:	6e1b      	ldr	r3, [r3, #96]	; 0x60
 8001e1c:	2202      	movs	r2, #2
 8001e1e:	4013      	ands	r3, r2
 8001e20:	d108      	bne.n	8001e34 <HAL_RCC_ClockConfig+0x10c>
      {
        return HAL_ERROR;
 8001e22:	2301      	movs	r3, #1
 8001e24:	e074      	b.n	8001f10 <HAL_RCC_ClockConfig+0x1e8>
    }
    /* LSE is selected as System Clock Source */
    else
    {
      /* Check the LSE ready flag */
      if (READ_BIT(RCC->BDCR, RCC_BDCR_LSERDY) == 0U)
 8001e26:	4b3e      	ldr	r3, [pc, #248]	; (8001f20 <HAL_RCC_ClockConfig+0x1f8>)
 8001e28:	6ddb      	ldr	r3, [r3, #92]	; 0x5c
 8001e2a:	2202      	movs	r2, #2
 8001e2c:	4013      	ands	r3, r2
 8001e2e:	d101      	bne.n	8001e34 <HAL_RCC_ClockConfig+0x10c>
      {
        return HAL_ERROR;
 8001e30:	2301      	movs	r3, #1
 8001e32:	e06d      	b.n	8001f10 <HAL_RCC_ClockConfig+0x1e8>
      }
    }
    MODIFY_REG(RCC->CFGR, RCC_CFGR_SW, RCC_ClkInitStruct->SYSCLKSource);
 8001e34:	4b3a      	ldr	r3, [pc, #232]	; (8001f20 <HAL_RCC_ClockConfig+0x1f8>)
 8001e36:	689b      	ldr	r3, [r3, #8]
 8001e38:	2207      	movs	r2, #7
 8001e3a:	4393      	bics	r3, r2
 8001e3c:	0019      	movs	r1, r3
 8001e3e:	687b      	ldr	r3, [r7, #4]
 8001e40:	685a      	ldr	r2, [r3, #4]
 8001e42:	4b37      	ldr	r3, [pc, #220]	; (8001f20 <HAL_RCC_ClockConfig+0x1f8>)
 8001e44:	430a      	orrs	r2, r1
 8001e46:	609a      	str	r2, [r3, #8]

    /* Get Start Tick*/
    tickstart = HAL_GetTick();
 8001e48:	f7ff f960 	bl	800110c <HAL_GetTick>
 8001e4c:	0003      	movs	r3, r0
 8001e4e:	60fb      	str	r3, [r7, #12]

    while (__HAL_RCC_GET_SYSCLK_SOURCE() != (RCC_ClkInitStruct->SYSCLKSource << RCC_CFGR_SWS_Pos))
 8001e50:	e009      	b.n	8001e66 <HAL_RCC_ClockConfig+0x13e>
    {
      if ((HAL_GetTick() - tickstart) > CLOCKSWITCH_TIMEOUT_VALUE)
 8001e52:	f7ff f95b 	bl	800110c <HAL_GetTick>
 8001e56:	0002      	movs	r2, r0
 8001e58:	68fb      	ldr	r3, [r7, #12]
 8001e5a:	1ad3      	subs	r3, r2, r3
 8001e5c:	4a2f      	ldr	r2, [pc, #188]	; (8001f1c <HAL_RCC_ClockConfig+0x1f4>)
 8001e5e:	4293      	cmp	r3, r2
 8001e60:	d901      	bls.n	8001e66 <HAL_RCC_ClockConfig+0x13e>
      {
        return HAL_TIMEOUT;
 8001e62:	2303      	movs	r3, #3
 8001e64:	e054      	b.n	8001f10 <HAL_RCC_ClockConfig+0x1e8>
    while (__HAL_RCC_GET_SYSCLK_SOURCE() != (RCC_ClkInitStruct->SYSCLKSource << RCC_CFGR_SWS_Pos))
 8001e66:	4b2e      	ldr	r3, [pc, #184]	; (8001f20 <HAL_RCC_ClockConfig+0x1f8>)
 8001e68:	689b      	ldr	r3, [r3, #8]
 8001e6a:	2238      	movs	r2, #56	; 0x38
 8001e6c:	401a      	ands	r2, r3
 8001e6e:	687b      	ldr	r3, [r7, #4]
 8001e70:	685b      	ldr	r3, [r3, #4]
 8001e72:	00db      	lsls	r3, r3, #3
 8001e74:	429a      	cmp	r2, r3
 8001e76:	d1ec      	bne.n	8001e52 <HAL_RCC_ClockConfig+0x12a>
      }
    }
  }

  /* Decreasing the number of wait states because of lower CPU frequency */
  if (FLatency < __HAL_FLASH_GET_LATENCY())
 8001e78:	4b27      	ldr	r3, [pc, #156]	; (8001f18 <HAL_RCC_ClockConfig+0x1f0>)
 8001e7a:	681b      	ldr	r3, [r3, #0]
 8001e7c:	2207      	movs	r2, #7
 8001e7e:	4013      	ands	r3, r2
 8001e80:	683a      	ldr	r2, [r7, #0]
 8001e82:	429a      	cmp	r2, r3
 8001e84:	d21e      	bcs.n	8001ec4 <HAL_RCC_ClockConfig+0x19c>
  {
    /* Program the new number of wait states to the LATENCY bits in the FLASH_ACR register */
    __HAL_FLASH_SET_LATENCY(FLatency);
 8001e86:	4b24      	ldr	r3, [pc, #144]	; (8001f18 <HAL_RCC_ClockConfig+0x1f0>)
 8001e88:	681b      	ldr	r3, [r3, #0]
 8001e8a:	2207      	movs	r2, #7
 8001e8c:	4393      	bics	r3, r2
 8001e8e:	0019      	movs	r1, r3
 8001e90:	4b21      	ldr	r3, [pc, #132]	; (8001f18 <HAL_RCC_ClockConfig+0x1f0>)
 8001e92:	683a      	ldr	r2, [r7, #0]
 8001e94:	430a      	orrs	r2, r1
 8001e96:	601a      	str	r2, [r3, #0]

    /* Check that the new number of wait states is taken into account to access the Flash
    memory by polling the FLASH_ACR register */
    tickstart = HAL_GetTick();
 8001e98:	f7ff f938 	bl	800110c <HAL_GetTick>
 8001e9c:	0003      	movs	r3, r0
 8001e9e:	60fb      	str	r3, [r7, #12]

    while ((FLASH->ACR & FLASH_ACR_LATENCY) != FLatency)
 8001ea0:	e009      	b.n	8001eb6 <HAL_RCC_ClockConfig+0x18e>
    {
      if ((HAL_GetTick() - tickstart) > CLOCKSWITCH_TIMEOUT_VALUE)
 8001ea2:	f7ff f933 	bl	800110c <HAL_GetTick>
 8001ea6:	0002      	movs	r2, r0
 8001ea8:	68fb      	ldr	r3, [r7, #12]
 8001eaa:	1ad3      	subs	r3, r2, r3
 8001eac:	4a1b      	ldr	r2, [pc, #108]	; (8001f1c <HAL_RCC_ClockConfig+0x1f4>)
 8001eae:	4293      	cmp	r3, r2
 8001eb0:	d901      	bls.n	8001eb6 <HAL_RCC_ClockConfig+0x18e>
      {
        return HAL_TIMEOUT;
 8001eb2:	2303      	movs	r3, #3
 8001eb4:	e02c      	b.n	8001f10 <HAL_RCC_ClockConfig+0x1e8>
    while ((FLASH->ACR & FLASH_ACR_LATENCY) != FLatency)
 8001eb6:	4b18      	ldr	r3, [pc, #96]	; (8001f18 <HAL_RCC_ClockConfig+0x1f0>)
 8001eb8:	681b      	ldr	r3, [r3, #0]
 8001eba:	2207      	movs	r2, #7
 8001ebc:	4013      	ands	r3, r2
 8001ebe:	683a      	ldr	r2, [r7, #0]
 8001ec0:	429a      	cmp	r2, r3
 8001ec2:	d1ee      	bne.n	8001ea2 <HAL_RCC_ClockConfig+0x17a>
      }
    }
  }

  /*-------------------------- PCLK1 Configuration ---------------------------*/
  if (((RCC_ClkInitStruct->ClockType) & RCC_CLOCKTYPE_PCLK1) == RCC_CLOCKTYPE_PCLK1)
 8001ec4:	687b      	ldr	r3, [r7, #4]
 8001ec6:	681b      	ldr	r3, [r3, #0]
 8001ec8:	2204      	movs	r2, #4
 8001eca:	4013      	ands	r3, r2
 8001ecc:	d009      	beq.n	8001ee2 <HAL_RCC_ClockConfig+0x1ba>
  {
    assert_param(IS_RCC_PCLK(RCC_ClkInitStruct->APB1CLKDivider));
    MODIFY_REG(RCC->CFGR, RCC_CFGR_PPRE, RCC_ClkInitStruct->APB1CLKDivider);
 8001ece:	4b14      	ldr	r3, [pc, #80]	; (8001f20 <HAL_RCC_ClockConfig+0x1f8>)
 8001ed0:	689b      	ldr	r3, [r3, #8]
 8001ed2:	4a15      	ldr	r2, [pc, #84]	; (8001f28 <HAL_RCC_ClockConfig+0x200>)
 8001ed4:	4013      	ands	r3, r2
 8001ed6:	0019      	movs	r1, r3
 8001ed8:	687b      	ldr	r3, [r7, #4]
 8001eda:	68da      	ldr	r2, [r3, #12]
 8001edc:	4b10      	ldr	r3, [pc, #64]	; (8001f20 <HAL_RCC_ClockConfig+0x1f8>)
 8001ede:	430a      	orrs	r2, r1
 8001ee0:	609a      	str	r2, [r3, #8]
  }

  /* Update the SystemCoreClock global variable */
  SystemCoreClock = (HAL_RCC_GetSysClockFreq() >> ((AHBPrescTable[(RCC->CFGR & RCC_CFGR_HPRE) >> RCC_CFGR_HPRE_Pos]) & 0x1FU));
 8001ee2:	f000 f829 	bl	8001f38 <HAL_RCC_GetSysClockFreq>
 8001ee6:	0001      	movs	r1, r0
 8001ee8:	4b0d      	ldr	r3, [pc, #52]	; (8001f20 <HAL_RCC_ClockConfig+0x1f8>)
 8001eea:	689b      	ldr	r3, [r3, #8]
 8001eec:	0a1b      	lsrs	r3, r3, #8
 8001eee:	220f      	movs	r2, #15
 8001ef0:	401a      	ands	r2, r3
 8001ef2:	4b0e      	ldr	r3, [pc, #56]	; (8001f2c <HAL_RCC_ClockConfig+0x204>)
 8001ef4:	0092      	lsls	r2, r2, #2
 8001ef6:	58d3      	ldr	r3, [r2, r3]
 8001ef8:	221f      	movs	r2, #31
 8001efa:	4013      	ands	r3, r2
 8001efc:	000a      	movs	r2, r1
 8001efe:	40da      	lsrs	r2, r3
 8001f00:	4b0b      	ldr	r3, [pc, #44]	; (8001f30 <HAL_RCC_ClockConfig+0x208>)
 8001f02:	601a      	str	r2, [r3, #0]

  /* Configure the source of time base considering new system clocks settings*/
  return HAL_InitTick(uwTickPrio);
 8001f04:	4b0b      	ldr	r3, [pc, #44]	; (8001f34 <HAL_RCC_ClockConfig+0x20c>)
 8001f06:	681b      	ldr	r3, [r3, #0]
 8001f08:	0018      	movs	r0, r3
 8001f0a:	f7ff f8a3 	bl	8001054 <HAL_InitTick>
 8001f0e:	0003      	movs	r3, r0
}
 8001f10:	0018      	movs	r0, r3
 8001f12:	46bd      	mov	sp, r7
 8001f14:	b004      	add	sp, #16
 8001f16:	bd80      	pop	{r7, pc}
 8001f18:	40022000 	.word	0x40022000
 8001f1c:	00001388 	.word	0x00001388
 8001f20:	40021000 	.word	0x40021000
 8001f24:	fffff0ff 	.word	0xfffff0ff
 8001f28:	ffff8fff 	.word	0xffff8fff
 8001f2c:	08004460 	.word	0x08004460
 8001f30:	20000000 	.word	0x20000000
 8001f34:	20000004 	.word	0x20000004

08001f38 <HAL_RCC_GetSysClockFreq>:
  *
  *
  * @retval SYSCLK frequency
  */
uint32_t HAL_RCC_GetSysClockFreq(void)
{
 8001f38:	b580      	push	{r7, lr}
 8001f3a:	b086      	sub	sp, #24
 8001f3c:	af00      	add	r7, sp, #0
  uint32_t pllvco, pllsource, pllr, pllm, hsidiv;
  uint32_t sysclockfreq;

  if (__HAL_RCC_GET_SYSCLK_SOURCE() == RCC_SYSCLKSOURCE_STATUS_HSI)
 8001f3e:	4b3c      	ldr	r3, [pc, #240]	; (8002030 <HAL_RCC_GetSysClockFreq+0xf8>)
 8001f40:	689b      	ldr	r3, [r3, #8]
 8001f42:	2238      	movs	r2, #56	; 0x38
 8001f44:	4013      	ands	r3, r2
 8001f46:	d10f      	bne.n	8001f68 <HAL_RCC_GetSysClockFreq+0x30>
  {
    /* HSISYS can be derived for HSI16 */
    hsidiv = (1UL << ((READ_BIT(RCC->CR, RCC_CR_HSIDIV)) >> RCC_CR_HSIDIV_Pos));
 8001f48:	4b39      	ldr	r3, [pc, #228]	; (8002030 <HAL_RCC_GetSysClockFreq+0xf8>)
 8001f4a:	681b      	ldr	r3, [r3, #0]
 8001f4c:	0adb      	lsrs	r3, r3, #11
 8001f4e:	2207      	movs	r2, #7
 8001f50:	4013      	ands	r3, r2
 8001f52:	2201      	movs	r2, #1
 8001f54:	409a      	lsls	r2, r3
 8001f56:	0013      	movs	r3, r2
 8001f58:	603b      	str	r3, [r7, #0]

    /* HSI used as system clock source */
    sysclockfreq = (HSI_VALUE / hsidiv);
 8001f5a:	6839      	ldr	r1, [r7, #0]
 8001f5c:	4835      	ldr	r0, [pc, #212]	; (8002034 <HAL_RCC_GetSysClockFreq+0xfc>)
 8001f5e:	f7fe f8d1 	bl	8000104 <__udivsi3>
 8001f62:	0003      	movs	r3, r0
 8001f64:	613b      	str	r3, [r7, #16]
 8001f66:	e05d      	b.n	8002024 <HAL_RCC_GetSysClockFreq+0xec>
  }
  else if (__HAL_RCC_GET_SYSCLK_SOURCE() == RCC_SYSCLKSOURCE_STATUS_HSE)
 8001f68:	4b31      	ldr	r3, [pc, #196]	; (8002030 <HAL_RCC_GetSysClockFreq+0xf8>)
 8001f6a:	689b      	ldr	r3, [r3, #8]
 8001f6c:	2238      	movs	r2, #56	; 0x38
 8001f6e:	4013      	ands	r3, r2
 8001f70:	2b08      	cmp	r3, #8
 8001f72:	d102      	bne.n	8001f7a <HAL_RCC_GetSysClockFreq+0x42>
  {
    /* HSE used as system clock source */
    sysclockfreq = HSE_VALUE;
 8001f74:	4b30      	ldr	r3, [pc, #192]	; (8002038 <HAL_RCC_GetSysClockFreq+0x100>)
 8001f76:	613b      	str	r3, [r7, #16]
 8001f78:	e054      	b.n	8002024 <HAL_RCC_GetSysClockFreq+0xec>
  }
  else if (__HAL_RCC_GET_SYSCLK_SOURCE() == RCC_SYSCLKSOURCE_STATUS_PLLCLK)
 8001f7a:	4b2d      	ldr	r3, [pc, #180]	; (8002030 <HAL_RCC_GetSysClockFreq+0xf8>)
 8001f7c:	689b      	ldr	r3, [r3, #8]
 8001f7e:	2238      	movs	r2, #56	; 0x38
 8001f80:	4013      	ands	r3, r2
 8001f82:	2b10      	cmp	r3, #16
 8001f84:	d138      	bne.n	8001ff8 <HAL_RCC_GetSysClockFreq+0xc0>
    /* PLL used as system clock  source */

    /* PLL_VCO = ((HSE_VALUE or HSI_VALUE)/ PLLM) * PLLN
    SYSCLK = PLL_VCO / PLLR
    */
    pllsource = (RCC->PLLCFGR & RCC_PLLCFGR_PLLSRC);
 8001f86:	4b2a      	ldr	r3, [pc, #168]	; (8002030 <HAL_RCC_GetSysClockFreq+0xf8>)
 8001f88:	68db      	ldr	r3, [r3, #12]
 8001f8a:	2203      	movs	r2, #3
 8001f8c:	4013      	ands	r3, r2
 8001f8e:	60fb      	str	r3, [r7, #12]
    pllm = ((RCC->PLLCFGR & RCC_PLLCFGR_PLLM) >> RCC_PLLCFGR_PLLM_Pos) + 1U ;
 8001f90:	4b27      	ldr	r3, [pc, #156]	; (8002030 <HAL_RCC_GetSysClockFreq+0xf8>)
 8001f92:	68db      	ldr	r3, [r3, #12]
 8001f94:	091b      	lsrs	r3, r3, #4
 8001f96:	2207      	movs	r2, #7
 8001f98:	4013      	ands	r3, r2
 8001f9a:	3301      	adds	r3, #1
 8001f9c:	60bb      	str	r3, [r7, #8]

    switch (pllsource)
 8001f9e:	68fb      	ldr	r3, [r7, #12]
 8001fa0:	2b03      	cmp	r3, #3
 8001fa2:	d10d      	bne.n	8001fc0 <HAL_RCC_GetSysClockFreq+0x88>
    {
      case RCC_PLLSOURCE_HSE:  /* HSE used as PLL clock source */
        pllvco = (HSE_VALUE / pllm) * ((RCC->PLLCFGR & RCC_PLLCFGR_PLLN) >> RCC_PLLCFGR_PLLN_Pos);
 8001fa4:	68b9      	ldr	r1, [r7, #8]
 8001fa6:	4824      	ldr	r0, [pc, #144]	; (8002038 <HAL_RCC_GetSysClockFreq+0x100>)
 8001fa8:	f7fe f8ac 	bl	8000104 <__udivsi3>
 8001fac:	0003      	movs	r3, r0
 8001fae:	0019      	movs	r1, r3
 8001fb0:	4b1f      	ldr	r3, [pc, #124]	; (8002030 <HAL_RCC_GetSysClockFreq+0xf8>)
 8001fb2:	68db      	ldr	r3, [r3, #12]
 8001fb4:	0a1b      	lsrs	r3, r3, #8
 8001fb6:	227f      	movs	r2, #127	; 0x7f
 8001fb8:	4013      	ands	r3, r2
 8001fba:	434b      	muls	r3, r1
 8001fbc:	617b      	str	r3, [r7, #20]
        break;
 8001fbe:	e00d      	b.n	8001fdc <HAL_RCC_GetSysClockFreq+0xa4>

      case RCC_PLLSOURCE_HSI:  /* HSI16 used as PLL clock source */
      default:                 /* HSI16 used as PLL clock source */
        pllvco = (HSI_VALUE / pllm) * ((RCC->PLLCFGR & RCC_PLLCFGR_PLLN) >> RCC_PLLCFGR_PLLN_Pos) ;
 8001fc0:	68b9      	ldr	r1, [r7, #8]
 8001fc2:	481c      	ldr	r0, [pc, #112]	; (8002034 <HAL_RCC_GetSysClockFreq+0xfc>)
 8001fc4:	f7fe f89e 	bl	8000104 <__udivsi3>
 8001fc8:	0003      	movs	r3, r0
 8001fca:	0019      	movs	r1, r3
 8001fcc:	4b18      	ldr	r3, [pc, #96]	; (8002030 <HAL_RCC_GetSysClockFreq+0xf8>)
 8001fce:	68db      	ldr	r3, [r3, #12]
 8001fd0:	0a1b      	lsrs	r3, r3, #8
 8001fd2:	227f      	movs	r2, #127	; 0x7f
 8001fd4:	4013      	ands	r3, r2
 8001fd6:	434b      	muls	r3, r1
 8001fd8:	617b      	str	r3, [r7, #20]
        break;
 8001fda:	46c0      	nop			; (mov r8, r8)
    }
    pllr = (((RCC->PLLCFGR & RCC_PLLCFGR_PLLR) >> RCC_PLLCFGR_PLLR_Pos) + 1U);
 8001fdc:	4b14      	ldr	r3, [pc, #80]	; (8002030 <HAL_RCC_GetSysClockFreq+0xf8>)
 8001fde:	68db      	ldr	r3, [r3, #12]
 8001fe0:	0f5b      	lsrs	r3, r3, #29
 8001fe2:	2207      	movs	r2, #7
 8001fe4:	4013      	ands	r3, r2
 8001fe6:	3301      	adds	r3, #1
 8001fe8:	607b      	str	r3, [r7, #4]
    sysclockfreq = pllvco / pllr;
 8001fea:	6879      	ldr	r1, [r7, #4]
 8001fec:	6978      	ldr	r0, [r7, #20]
 8001fee:	f7fe f889 	bl	8000104 <__udivsi3>
 8001ff2:	0003      	movs	r3, r0
 8001ff4:	613b      	str	r3, [r7, #16]
 8001ff6:	e015      	b.n	8002024 <HAL_RCC_GetSysClockFreq+0xec>
  }
  else if (__HAL_RCC_GET_SYSCLK_SOURCE() == RCC_SYSCLKSOURCE_STATUS_LSE)
 8001ff8:	4b0d      	ldr	r3, [pc, #52]	; (8002030 <HAL_RCC_GetSysClockFreq+0xf8>)
 8001ffa:	689b      	ldr	r3, [r3, #8]
 8001ffc:	2238      	movs	r2, #56	; 0x38
 8001ffe:	4013      	ands	r3, r2
 8002000:	2b20      	cmp	r3, #32
 8002002:	d103      	bne.n	800200c <HAL_RCC_GetSysClockFreq+0xd4>
  {
    /* LSE used as system clock source */
    sysclockfreq = LSE_VALUE;
 8002004:	2380      	movs	r3, #128	; 0x80
 8002006:	021b      	lsls	r3, r3, #8
 8002008:	613b      	str	r3, [r7, #16]
 800200a:	e00b      	b.n	8002024 <HAL_RCC_GetSysClockFreq+0xec>
  }
  else if (__HAL_RCC_GET_SYSCLK_SOURCE() == RCC_SYSCLKSOURCE_STATUS_LSI)
 800200c:	4b08      	ldr	r3, [pc, #32]	; (8002030 <HAL_RCC_GetSysClockFreq+0xf8>)
 800200e:	689b      	ldr	r3, [r3, #8]
 8002010:	2238      	movs	r2, #56	; 0x38
 8002012:	4013      	ands	r3, r2
 8002014:	2b18      	cmp	r3, #24
 8002016:	d103      	bne.n	8002020 <HAL_RCC_GetSysClockFreq+0xe8>
  {
    /* LSI used as system clock source */
    sysclockfreq = LSI_VALUE;
 8002018:	23fa      	movs	r3, #250	; 0xfa
 800201a:	01db      	lsls	r3, r3, #7
 800201c:	613b      	str	r3, [r7, #16]
 800201e:	e001      	b.n	8002024 <HAL_RCC_GetSysClockFreq+0xec>
  }
  else
  {
    sysclockfreq = 0U;
 8002020:	2300      	movs	r3, #0
 8002022:	613b      	str	r3, [r7, #16]
  }

  return sysclockfreq;
 8002024:	693b      	ldr	r3, [r7, #16]
}
 8002026:	0018      	movs	r0, r3
 8002028:	46bd      	mov	sp, r7
 800202a:	b006      	add	sp, #24
 800202c:	bd80      	pop	{r7, pc}
 800202e:	46c0      	nop			; (mov r8, r8)
 8002030:	40021000 	.word	0x40021000
 8002034:	00f42400 	.word	0x00f42400
 8002038:	007a1200 	.word	0x007a1200

0800203c <HAL_RCC_GetHCLKFreq>:
  *
  * @note   The SystemCoreClock CMSIS variable is used to store System Clock Frequency.
  * @retval HCLK frequency in Hz
  */
uint32_t HAL_RCC_GetHCLKFreq(void)
{
 800203c:	b580      	push	{r7, lr}
 800203e:	af00      	add	r7, sp, #0
  return SystemCoreClock;
 8002040:	4b02      	ldr	r3, [pc, #8]	; (800204c <HAL_RCC_GetHCLKFreq+0x10>)
 8002042:	681b      	ldr	r3, [r3, #0]
}
 8002044:	0018      	movs	r0, r3
 8002046:	46bd      	mov	sp, r7
 8002048:	bd80      	pop	{r7, pc}
 800204a:	46c0      	nop			; (mov r8, r8)
 800204c:	20000000 	.word	0x20000000

08002050 <HAL_RCC_GetPCLK1Freq>:
  * @note   Each time PCLK1 changes, this function must be called to update the
  *         right PCLK1 value. Otherwise, any configuration based on this function will be incorrect.
  * @retval PCLK1 frequency in Hz
  */
uint32_t HAL_RCC_GetPCLK1Freq(void)
{
 8002050:	b5b0      	push	{r4, r5, r7, lr}
 8002052:	af00      	add	r7, sp, #0
  /* Get HCLK source and Compute PCLK1 frequency ---------------------------*/
  return ((uint32_t)(__LL_RCC_CALC_PCLK1_FREQ(HAL_RCC_GetHCLKFreq(), LL_RCC_GetAPB1Prescaler())));
 8002054:	f7ff fff2 	bl	800203c <HAL_RCC_GetHCLKFreq>
 8002058:	0004      	movs	r4, r0
 800205a:	f7ff faf9 	bl	8001650 <LL_RCC_GetAPB1Prescaler>
 800205e:	0003      	movs	r3, r0
 8002060:	0b1a      	lsrs	r2, r3, #12
 8002062:	4b05      	ldr	r3, [pc, #20]	; (8002078 <HAL_RCC_GetPCLK1Freq+0x28>)
 8002064:	0092      	lsls	r2, r2, #2
 8002066:	58d3      	ldr	r3, [r2, r3]
 8002068:	221f      	movs	r2, #31
 800206a:	4013      	ands	r3, r2
 800206c:	40dc      	lsrs	r4, r3
 800206e:	0023      	movs	r3, r4
}
 8002070:	0018      	movs	r0, r3
 8002072:	46bd      	mov	sp, r7
 8002074:	bdb0      	pop	{r4, r5, r7, pc}
 8002076:	46c0      	nop			; (mov r8, r8)
 8002078:	080044a0 	.word	0x080044a0

0800207c <HAL_RCCEx_PeriphCLKConfig>:
  *         the RTC clock source: in this case the access to Backup domain is enabled.
  *
  * @retval HAL status
  */
HAL_StatusTypeDef HAL_RCCEx_PeriphCLKConfig(RCC_PeriphCLKInitTypeDef  *PeriphClkInit)
{
 800207c:	b580      	push	{r7, lr}
 800207e:	b086      	sub	sp, #24
 8002080:	af00      	add	r7, sp, #0
 8002082:	6078      	str	r0, [r7, #4]
  uint32_t tmpregister;
  uint32_t tickstart;
  HAL_StatusTypeDef ret    = HAL_OK;   /* Intermediate status */
 8002084:	2313      	movs	r3, #19
 8002086:	18fb      	adds	r3, r7, r3
 8002088:	2200      	movs	r2, #0
 800208a:	701a      	strb	r2, [r3, #0]
  HAL_StatusTypeDef status = HAL_OK;   /* Final status */
 800208c:	2312      	movs	r3, #18
 800208e:	18fb      	adds	r3, r7, r3
 8002090:	2200      	movs	r2, #0
 8002092:	701a      	strb	r2, [r3, #0]

  /* Check the parameters */
  assert_param(IS_RCC_PERIPHCLOCK(PeriphClkInit->PeriphClockSelection));

  /*-------------------------- RTC clock source configuration ----------------------*/
  if ((PeriphClkInit->PeriphClockSelection & RCC_PERIPHCLK_RTC) == RCC_PERIPHCLK_RTC)
 8002094:	687b      	ldr	r3, [r7, #4]
 8002096:	681a      	ldr	r2, [r3, #0]
 8002098:	2380      	movs	r3, #128	; 0x80
 800209a:	029b      	lsls	r3, r3, #10
 800209c:	4013      	ands	r3, r2
 800209e:	d100      	bne.n	80020a2 <HAL_RCCEx_PeriphCLKConfig+0x26>
 80020a0:	e0ad      	b.n	80021fe <HAL_RCCEx_PeriphCLKConfig+0x182>
  {
    FlagStatus       pwrclkchanged = RESET;
 80020a2:	2011      	movs	r0, #17
 80020a4:	183b      	adds	r3, r7, r0
 80020a6:	2200      	movs	r2, #0
 80020a8:	701a      	strb	r2, [r3, #0]

    /* Check for RTC Parameters used to output RTCCLK */
    assert_param(IS_RCC_RTCCLKSOURCE(PeriphClkInit->RTCClockSelection));

    /* Enable Power Clock */
    if (__HAL_RCC_PWR_IS_CLK_DISABLED())
 80020aa:	4b47      	ldr	r3, [pc, #284]	; (80021c8 <HAL_RCCEx_PeriphCLKConfig+0x14c>)
 80020ac:	6bda      	ldr	r2, [r3, #60]	; 0x3c
 80020ae:	2380      	movs	r3, #128	; 0x80
 80020b0:	055b      	lsls	r3, r3, #21
 80020b2:	4013      	ands	r3, r2
 80020b4:	d110      	bne.n	80020d8 <HAL_RCCEx_PeriphCLKConfig+0x5c>
    {
      __HAL_RCC_PWR_CLK_ENABLE();
 80020b6:	4b44      	ldr	r3, [pc, #272]	; (80021c8 <HAL_RCCEx_PeriphCLKConfig+0x14c>)
 80020b8:	6bda      	ldr	r2, [r3, #60]	; 0x3c
 80020ba:	4b43      	ldr	r3, [pc, #268]	; (80021c8 <HAL_RCCEx_PeriphCLKConfig+0x14c>)
 80020bc:	2180      	movs	r1, #128	; 0x80
 80020be:	0549      	lsls	r1, r1, #21
 80020c0:	430a      	orrs	r2, r1
 80020c2:	63da      	str	r2, [r3, #60]	; 0x3c
 80020c4:	4b40      	ldr	r3, [pc, #256]	; (80021c8 <HAL_RCCEx_PeriphCLKConfig+0x14c>)
 80020c6:	6bda      	ldr	r2, [r3, #60]	; 0x3c
 80020c8:	2380      	movs	r3, #128	; 0x80
 80020ca:	055b      	lsls	r3, r3, #21
 80020cc:	4013      	ands	r3, r2
 80020ce:	60bb      	str	r3, [r7, #8]
 80020d0:	68bb      	ldr	r3, [r7, #8]
      pwrclkchanged = SET;
 80020d2:	183b      	adds	r3, r7, r0
 80020d4:	2201      	movs	r2, #1
 80020d6:	701a      	strb	r2, [r3, #0]
    }

    /* Enable write access to Backup domain */
    SET_BIT(PWR->CR1, PWR_CR1_DBP);
 80020d8:	4b3c      	ldr	r3, [pc, #240]	; (80021cc <HAL_RCCEx_PeriphCLKConfig+0x150>)
 80020da:	681a      	ldr	r2, [r3, #0]
 80020dc:	4b3b      	ldr	r3, [pc, #236]	; (80021cc <HAL_RCCEx_PeriphCLKConfig+0x150>)
 80020de:	2180      	movs	r1, #128	; 0x80
 80020e0:	0049      	lsls	r1, r1, #1
 80020e2:	430a      	orrs	r2, r1
 80020e4:	601a      	str	r2, [r3, #0]

    /* Wait for Backup domain Write protection disable */
    tickstart = HAL_GetTick();
 80020e6:	f7ff f811 	bl	800110c <HAL_GetTick>
 80020ea:	0003      	movs	r3, r0
 80020ec:	60fb      	str	r3, [r7, #12]

    while ((PWR->CR1 & PWR_CR1_DBP) == 0U)
 80020ee:	e00b      	b.n	8002108 <HAL_RCCEx_PeriphCLKConfig+0x8c>
    {
      if ((HAL_GetTick() - tickstart) > RCC_DBP_TIMEOUT_VALUE)
 80020f0:	f7ff f80c 	bl	800110c <HAL_GetTick>
 80020f4:	0002      	movs	r2, r0
 80020f6:	68fb      	ldr	r3, [r7, #12]
 80020f8:	1ad3      	subs	r3, r2, r3
 80020fa:	2b02      	cmp	r3, #2
 80020fc:	d904      	bls.n	8002108 <HAL_RCCEx_PeriphCLKConfig+0x8c>
      {
        ret = HAL_TIMEOUT;
 80020fe:	2313      	movs	r3, #19
 8002100:	18fb      	adds	r3, r7, r3
 8002102:	2203      	movs	r2, #3
 8002104:	701a      	strb	r2, [r3, #0]
        break;
 8002106:	e005      	b.n	8002114 <HAL_RCCEx_PeriphCLKConfig+0x98>
    while ((PWR->CR1 & PWR_CR1_DBP) == 0U)
 8002108:	4b30      	ldr	r3, [pc, #192]	; (80021cc <HAL_RCCEx_PeriphCLKConfig+0x150>)
 800210a:	681a      	ldr	r2, [r3, #0]
 800210c:	2380      	movs	r3, #128	; 0x80
 800210e:	005b      	lsls	r3, r3, #1
 8002110:	4013      	ands	r3, r2
 8002112:	d0ed      	beq.n	80020f0 <HAL_RCCEx_PeriphCLKConfig+0x74>
      }
    }

    if (ret == HAL_OK)
 8002114:	2313      	movs	r3, #19
 8002116:	18fb      	adds	r3, r7, r3
 8002118:	781b      	ldrb	r3, [r3, #0]
 800211a:	2b00      	cmp	r3, #0
 800211c:	d15e      	bne.n	80021dc <HAL_RCCEx_PeriphCLKConfig+0x160>
    {
      /* Reset the Backup domain only if the RTC Clock source selection is modified from default */
      tmpregister = READ_BIT(RCC->BDCR, RCC_BDCR_RTCSEL);
 800211e:	4b2a      	ldr	r3, [pc, #168]	; (80021c8 <HAL_RCCEx_PeriphCLKConfig+0x14c>)
 8002120:	6dda      	ldr	r2, [r3, #92]	; 0x5c
 8002122:	23c0      	movs	r3, #192	; 0xc0
 8002124:	009b      	lsls	r3, r3, #2
 8002126:	4013      	ands	r3, r2
 8002128:	617b      	str	r3, [r7, #20]

      /* Reset the Backup domain only if the RTC Clock source selection is modified */
      if ((tmpregister != RCC_RTCCLKSOURCE_NONE) && (tmpregister != PeriphClkInit->RTCClockSelection))
 800212a:	697b      	ldr	r3, [r7, #20]
 800212c:	2b00      	cmp	r3, #0
 800212e:	d019      	beq.n	8002164 <HAL_RCCEx_PeriphCLKConfig+0xe8>
 8002130:	687b      	ldr	r3, [r7, #4]
 8002132:	6c1b      	ldr	r3, [r3, #64]	; 0x40
 8002134:	697a      	ldr	r2, [r7, #20]
 8002136:	429a      	cmp	r2, r3
 8002138:	d014      	beq.n	8002164 <HAL_RCCEx_PeriphCLKConfig+0xe8>
      {
        /* Store the content of BDCR register before the reset of Backup Domain */
        tmpregister = READ_BIT(RCC->BDCR, ~(RCC_BDCR_RTCSEL));
 800213a:	4b23      	ldr	r3, [pc, #140]	; (80021c8 <HAL_RCCEx_PeriphCLKConfig+0x14c>)
 800213c:	6ddb      	ldr	r3, [r3, #92]	; 0x5c
 800213e:	4a24      	ldr	r2, [pc, #144]	; (80021d0 <HAL_RCCEx_PeriphCLKConfig+0x154>)
 8002140:	4013      	ands	r3, r2
 8002142:	617b      	str	r3, [r7, #20]
        /* RTC Clock selection can be changed only if the Backup Domain is reset */
        __HAL_RCC_BACKUPRESET_FORCE();
 8002144:	4b20      	ldr	r3, [pc, #128]	; (80021c8 <HAL_RCCEx_PeriphCLKConfig+0x14c>)
 8002146:	6dda      	ldr	r2, [r3, #92]	; 0x5c
 8002148:	4b1f      	ldr	r3, [pc, #124]	; (80021c8 <HAL_RCCEx_PeriphCLKConfig+0x14c>)
 800214a:	2180      	movs	r1, #128	; 0x80
 800214c:	0249      	lsls	r1, r1, #9
 800214e:	430a      	orrs	r2, r1
 8002150:	65da      	str	r2, [r3, #92]	; 0x5c
        __HAL_RCC_BACKUPRESET_RELEASE();
 8002152:	4b1d      	ldr	r3, [pc, #116]	; (80021c8 <HAL_RCCEx_PeriphCLKConfig+0x14c>)
 8002154:	6dda      	ldr	r2, [r3, #92]	; 0x5c
 8002156:	4b1c      	ldr	r3, [pc, #112]	; (80021c8 <HAL_RCCEx_PeriphCLKConfig+0x14c>)
 8002158:	491e      	ldr	r1, [pc, #120]	; (80021d4 <HAL_RCCEx_PeriphCLKConfig+0x158>)
 800215a:	400a      	ands	r2, r1
 800215c:	65da      	str	r2, [r3, #92]	; 0x5c
        /* Restore the Content of BDCR register */
        RCC->BDCR = tmpregister;
 800215e:	4b1a      	ldr	r3, [pc, #104]	; (80021c8 <HAL_RCCEx_PeriphCLKConfig+0x14c>)
 8002160:	697a      	ldr	r2, [r7, #20]
 8002162:	65da      	str	r2, [r3, #92]	; 0x5c
      }

      /* Wait for LSE reactivation if LSE was enable prior to Backup Domain reset */
      if (HAL_IS_BIT_SET(tmpregister, RCC_BDCR_LSEON))
 8002164:	697b      	ldr	r3, [r7, #20]
 8002166:	2201      	movs	r2, #1
 8002168:	4013      	ands	r3, r2
 800216a:	d016      	beq.n	800219a <HAL_RCCEx_PeriphCLKConfig+0x11e>
      {
        /* Get Start Tick*/
        tickstart = HAL_GetTick();
 800216c:	f7fe ffce 	bl	800110c <HAL_GetTick>
 8002170:	0003      	movs	r3, r0
 8002172:	60fb      	str	r3, [r7, #12]

        /* Wait till LSE is ready */
        while (READ_BIT(RCC->BDCR, RCC_BDCR_LSERDY) == 0U)
 8002174:	e00c      	b.n	8002190 <HAL_RCCEx_PeriphCLKConfig+0x114>
        {
          if ((HAL_GetTick() - tickstart) > RCC_LSE_TIMEOUT_VALUE)
 8002176:	f7fe ffc9 	bl	800110c <HAL_GetTick>
 800217a:	0002      	movs	r2, r0
 800217c:	68fb      	ldr	r3, [r7, #12]
 800217e:	1ad3      	subs	r3, r2, r3
 8002180:	4a15      	ldr	r2, [pc, #84]	; (80021d8 <HAL_RCCEx_PeriphCLKConfig+0x15c>)
 8002182:	4293      	cmp	r3, r2
 8002184:	d904      	bls.n	8002190 <HAL_RCCEx_PeriphCLKConfig+0x114>
          {
            ret = HAL_TIMEOUT;
 8002186:	2313      	movs	r3, #19
 8002188:	18fb      	adds	r3, r7, r3
 800218a:	2203      	movs	r2, #3
 800218c:	701a      	strb	r2, [r3, #0]
            break;
 800218e:	e004      	b.n	800219a <HAL_RCCEx_PeriphCLKConfig+0x11e>
        while (READ_BIT(RCC->BDCR, RCC_BDCR_LSERDY) == 0U)
 8002190:	4b0d      	ldr	r3, [pc, #52]	; (80021c8 <HAL_RCCEx_PeriphCLKConfig+0x14c>)
 8002192:	6ddb      	ldr	r3, [r3, #92]	; 0x5c
 8002194:	2202      	movs	r2, #2
 8002196:	4013      	ands	r3, r2
 8002198:	d0ed      	beq.n	8002176 <HAL_RCCEx_PeriphCLKConfig+0xfa>
          }
        }
      }

      if (ret == HAL_OK)
 800219a:	2313      	movs	r3, #19
 800219c:	18fb      	adds	r3, r7, r3
 800219e:	781b      	ldrb	r3, [r3, #0]
 80021a0:	2b00      	cmp	r3, #0
 80021a2:	d10a      	bne.n	80021ba <HAL_RCCEx_PeriphCLKConfig+0x13e>
      {
        /* Apply new RTC clock source selection */
        __HAL_RCC_RTC_CONFIG(PeriphClkInit->RTCClockSelection);
 80021a4:	4b08      	ldr	r3, [pc, #32]	; (80021c8 <HAL_RCCEx_PeriphCLKConfig+0x14c>)
 80021a6:	6ddb      	ldr	r3, [r3, #92]	; 0x5c
 80021a8:	4a09      	ldr	r2, [pc, #36]	; (80021d0 <HAL_RCCEx_PeriphCLKConfig+0x154>)
 80021aa:	4013      	ands	r3, r2
 80021ac:	0019      	movs	r1, r3
 80021ae:	687b      	ldr	r3, [r7, #4]
 80021b0:	6c1a      	ldr	r2, [r3, #64]	; 0x40
 80021b2:	4b05      	ldr	r3, [pc, #20]	; (80021c8 <HAL_RCCEx_PeriphCLKConfig+0x14c>)
 80021b4:	430a      	orrs	r2, r1
 80021b6:	65da      	str	r2, [r3, #92]	; 0x5c
 80021b8:	e016      	b.n	80021e8 <HAL_RCCEx_PeriphCLKConfig+0x16c>
      }
      else
      {
        /* set overall return value */
        status = ret;
 80021ba:	2312      	movs	r3, #18
 80021bc:	18fb      	adds	r3, r7, r3
 80021be:	2213      	movs	r2, #19
 80021c0:	18ba      	adds	r2, r7, r2
 80021c2:	7812      	ldrb	r2, [r2, #0]
 80021c4:	701a      	strb	r2, [r3, #0]
 80021c6:	e00f      	b.n	80021e8 <HAL_RCCEx_PeriphCLKConfig+0x16c>
 80021c8:	40021000 	.word	0x40021000
 80021cc:	40007000 	.word	0x40007000
 80021d0:	fffffcff 	.word	0xfffffcff
 80021d4:	fffeffff 	.word	0xfffeffff
 80021d8:	00001388 	.word	0x00001388
      }
    }
    else
    {
      /* set overall return value */
      status = ret;
 80021dc:	2312      	movs	r3, #18
 80021de:	18fb      	adds	r3, r7, r3
 80021e0:	2213      	movs	r2, #19
 80021e2:	18ba      	adds	r2, r7, r2
 80021e4:	7812      	ldrb	r2, [r2, #0]
 80021e6:	701a      	strb	r2, [r3, #0]
    }

    /* Restore clock configuration if changed */
    if (pwrclkchanged == SET)
 80021e8:	2311      	movs	r3, #17
 80021ea:	18fb      	adds	r3, r7, r3
 80021ec:	781b      	ldrb	r3, [r3, #0]
 80021ee:	2b01      	cmp	r3, #1
 80021f0:	d105      	bne.n	80021fe <HAL_RCCEx_PeriphCLKConfig+0x182>
    {
      __HAL_RCC_PWR_CLK_DISABLE();
 80021f2:	4bb6      	ldr	r3, [pc, #728]	; (80024cc <HAL_RCCEx_PeriphCLKConfig+0x450>)
 80021f4:	6bda      	ldr	r2, [r3, #60]	; 0x3c
 80021f6:	4bb5      	ldr	r3, [pc, #724]	; (80024cc <HAL_RCCEx_PeriphCLKConfig+0x450>)
 80021f8:	49b5      	ldr	r1, [pc, #724]	; (80024d0 <HAL_RCCEx_PeriphCLKConfig+0x454>)
 80021fa:	400a      	ands	r2, r1
 80021fc:	63da      	str	r2, [r3, #60]	; 0x3c
    }
  }

  /*-------------------------- USART1 clock source configuration -------------------*/
  if (((PeriphClkInit->PeriphClockSelection) & RCC_PERIPHCLK_USART1) == RCC_PERIPHCLK_USART1)
 80021fe:	687b      	ldr	r3, [r7, #4]
 8002200:	681b      	ldr	r3, [r3, #0]
 8002202:	2201      	movs	r2, #1
 8002204:	4013      	ands	r3, r2
 8002206:	d009      	beq.n	800221c <HAL_RCCEx_PeriphCLKConfig+0x1a0>
  {
    /* Check the parameters */
    assert_param(IS_RCC_USART1CLKSOURCE(PeriphClkInit->Usart1ClockSelection));

    /* Configure the USART1 clock source */
    __HAL_RCC_USART1_CONFIG(PeriphClkInit->Usart1ClockSelection);
 8002208:	4bb0      	ldr	r3, [pc, #704]	; (80024cc <HAL_RCCEx_PeriphCLKConfig+0x450>)
 800220a:	6d5b      	ldr	r3, [r3, #84]	; 0x54
 800220c:	2203      	movs	r2, #3
 800220e:	4393      	bics	r3, r2
 8002210:	0019      	movs	r1, r3
 8002212:	687b      	ldr	r3, [r7, #4]
 8002214:	685a      	ldr	r2, [r3, #4]
 8002216:	4bad      	ldr	r3, [pc, #692]	; (80024cc <HAL_RCCEx_PeriphCLKConfig+0x450>)
 8002218:	430a      	orrs	r2, r1
 800221a:	655a      	str	r2, [r3, #84]	; 0x54
  }

#if defined(RCC_CCIPR_USART2SEL)
  /*-------------------------- USART2 clock source configuration -------------------*/
  if (((PeriphClkInit->PeriphClockSelection) & RCC_PERIPHCLK_USART2) == RCC_PERIPHCLK_USART2)
 800221c:	687b      	ldr	r3, [r7, #4]
 800221e:	681b      	ldr	r3, [r3, #0]
 8002220:	2202      	movs	r2, #2
 8002222:	4013      	ands	r3, r2
 8002224:	d009      	beq.n	800223a <HAL_RCCEx_PeriphCLKConfig+0x1be>
  {
    /* Check the parameters */
    assert_param(IS_RCC_USART2CLKSOURCE(PeriphClkInit->Usart2ClockSelection));

    /* Configure the USART2 clock source */
    __HAL_RCC_USART2_CONFIG(PeriphClkInit->Usart2ClockSelection);
 8002226:	4ba9      	ldr	r3, [pc, #676]	; (80024cc <HAL_RCCEx_PeriphCLKConfig+0x450>)
 8002228:	6d5b      	ldr	r3, [r3, #84]	; 0x54
 800222a:	220c      	movs	r2, #12
 800222c:	4393      	bics	r3, r2
 800222e:	0019      	movs	r1, r3
 8002230:	687b      	ldr	r3, [r7, #4]
 8002232:	689a      	ldr	r2, [r3, #8]
 8002234:	4ba5      	ldr	r3, [pc, #660]	; (80024cc <HAL_RCCEx_PeriphCLKConfig+0x450>)
 8002236:	430a      	orrs	r2, r1
 8002238:	655a      	str	r2, [r3, #84]	; 0x54
  }
#endif /* RCC_CCIPR_USART2SEL */

#if defined(RCC_CCIPR_USART3SEL)
  /*-------------------------- USART3 clock source configuration -------------------*/
  if (((PeriphClkInit->PeriphClockSelection) & RCC_PERIPHCLK_USART3) == RCC_PERIPHCLK_USART3)
 800223a:	687b      	ldr	r3, [r7, #4]
 800223c:	681b      	ldr	r3, [r3, #0]
 800223e:	2204      	movs	r2, #4
 8002240:	4013      	ands	r3, r2
 8002242:	d009      	beq.n	8002258 <HAL_RCCEx_PeriphCLKConfig+0x1dc>
  {
    /* Check the parameters */
    assert_param(IS_RCC_USART3CLKSOURCE(PeriphClkInit->Usart3ClockSelection));

    /* Configure the USART3 clock source */
    __HAL_RCC_USART3_CONFIG(PeriphClkInit->Usart3ClockSelection);
 8002244:	4ba1      	ldr	r3, [pc, #644]	; (80024cc <HAL_RCCEx_PeriphCLKConfig+0x450>)
 8002246:	6d5b      	ldr	r3, [r3, #84]	; 0x54
 8002248:	2230      	movs	r2, #48	; 0x30
 800224a:	4393      	bics	r3, r2
 800224c:	0019      	movs	r1, r3
 800224e:	687b      	ldr	r3, [r7, #4]
 8002250:	68da      	ldr	r2, [r3, #12]
 8002252:	4b9e      	ldr	r3, [pc, #632]	; (80024cc <HAL_RCCEx_PeriphCLKConfig+0x450>)
 8002254:	430a      	orrs	r2, r1
 8002256:	655a      	str	r2, [r3, #84]	; 0x54
  }
#endif /* RCC_CCIPR_USART3SEL */

#if defined(LPUART1)
  /*-------------------------- LPUART1 clock source configuration ------------------*/
  if (((PeriphClkInit->PeriphClockSelection) & RCC_PERIPHCLK_LPUART1) == RCC_PERIPHCLK_LPUART1)
 8002258:	687b      	ldr	r3, [r7, #4]
 800225a:	681b      	ldr	r3, [r3, #0]
 800225c:	2210      	movs	r2, #16
 800225e:	4013      	ands	r3, r2
 8002260:	d009      	beq.n	8002276 <HAL_RCCEx_PeriphCLKConfig+0x1fa>
  {
    /* Check the parameters */
    assert_param(IS_RCC_LPUART1CLKSOURCE(PeriphClkInit->Lpuart1ClockSelection));

    /* Configure the LPUART1 clock source */
    __HAL_RCC_LPUART1_CONFIG(PeriphClkInit->Lpuart1ClockSelection);
 8002262:	4b9a      	ldr	r3, [pc, #616]	; (80024cc <HAL_RCCEx_PeriphCLKConfig+0x450>)
 8002264:	6d5b      	ldr	r3, [r3, #84]	; 0x54
 8002266:	4a9b      	ldr	r2, [pc, #620]	; (80024d4 <HAL_RCCEx_PeriphCLKConfig+0x458>)
 8002268:	4013      	ands	r3, r2
 800226a:	0019      	movs	r1, r3
 800226c:	687b      	ldr	r3, [r7, #4]
 800226e:	691a      	ldr	r2, [r3, #16]
 8002270:	4b96      	ldr	r3, [pc, #600]	; (80024cc <HAL_RCCEx_PeriphCLKConfig+0x450>)
 8002272:	430a      	orrs	r2, r1
 8002274:	655a      	str	r2, [r3, #84]	; 0x54
  }
#endif /* LPUART1 */

#if defined(LPUART2)
  /*-------------------------- LPUART2 clock source configuration ------------------*/
  if (((PeriphClkInit->PeriphClockSelection) & RCC_PERIPHCLK_LPUART2) == RCC_PERIPHCLK_LPUART2)
 8002276:	687b      	ldr	r3, [r7, #4]
 8002278:	681a      	ldr	r2, [r3, #0]
 800227a:	2380      	movs	r3, #128	; 0x80
 800227c:	015b      	lsls	r3, r3, #5
 800227e:	4013      	ands	r3, r2
 8002280:	d009      	beq.n	8002296 <HAL_RCCEx_PeriphCLKConfig+0x21a>
  {
    /* Check the parameters */
    assert_param(IS_RCC_LPUART2CLKSOURCE(PeriphClkInit->Lpuart2ClockSelection));

    /* Configure the LPUART clock source */
    __HAL_RCC_LPUART2_CONFIG(PeriphClkInit->Lpuart2ClockSelection);
 8002282:	4b92      	ldr	r3, [pc, #584]	; (80024cc <HAL_RCCEx_PeriphCLKConfig+0x450>)
 8002284:	6d5b      	ldr	r3, [r3, #84]	; 0x54
 8002286:	4a94      	ldr	r2, [pc, #592]	; (80024d8 <HAL_RCCEx_PeriphCLKConfig+0x45c>)
 8002288:	4013      	ands	r3, r2
 800228a:	0019      	movs	r1, r3
 800228c:	687b      	ldr	r3, [r7, #4]
 800228e:	695a      	ldr	r2, [r3, #20]
 8002290:	4b8e      	ldr	r3, [pc, #568]	; (80024cc <HAL_RCCEx_PeriphCLKConfig+0x450>)
 8002292:	430a      	orrs	r2, r1
 8002294:	655a      	str	r2, [r3, #84]	; 0x54
  }
#endif /* LPUART2 */

#if defined(RCC_CCIPR_LPTIM1SEL)
  /*-------------------------- LPTIM1 clock source configuration -------------------*/
  if (((PeriphClkInit->PeriphClockSelection) & RCC_PERIPHCLK_LPTIM1) == (RCC_PERIPHCLK_LPTIM1))
 8002296:	687b      	ldr	r3, [r7, #4]
 8002298:	681a      	ldr	r2, [r3, #0]
 800229a:	2380      	movs	r3, #128	; 0x80
 800229c:	009b      	lsls	r3, r3, #2
 800229e:	4013      	ands	r3, r2
 80022a0:	d009      	beq.n	80022b6 <HAL_RCCEx_PeriphCLKConfig+0x23a>
  {
    assert_param(IS_RCC_LPTIM1CLKSOURCE(PeriphClkInit->Lptim1ClockSelection));
    __HAL_RCC_LPTIM1_CONFIG(PeriphClkInit->Lptim1ClockSelection);
 80022a2:	4b8a      	ldr	r3, [pc, #552]	; (80024cc <HAL_RCCEx_PeriphCLKConfig+0x450>)
 80022a4:	6d5b      	ldr	r3, [r3, #84]	; 0x54
 80022a6:	4a8d      	ldr	r2, [pc, #564]	; (80024dc <HAL_RCCEx_PeriphCLKConfig+0x460>)
 80022a8:	4013      	ands	r3, r2
 80022aa:	0019      	movs	r1, r3
 80022ac:	687b      	ldr	r3, [r7, #4]
 80022ae:	6a9a      	ldr	r2, [r3, #40]	; 0x28
 80022b0:	4b86      	ldr	r3, [pc, #536]	; (80024cc <HAL_RCCEx_PeriphCLKConfig+0x450>)
 80022b2:	430a      	orrs	r2, r1
 80022b4:	655a      	str	r2, [r3, #84]	; 0x54
  }
#endif /* RCC_CCIPR_LPTIM1SEL */

#if defined(RCC_CCIPR_LPTIM2SEL)
  /*-------------------------- LPTIM2 clock source configuration -------------------*/
  if (((PeriphClkInit->PeriphClockSelection) & RCC_PERIPHCLK_LPTIM2) == (RCC_PERIPHCLK_LPTIM2))
 80022b6:	687b      	ldr	r3, [r7, #4]
 80022b8:	681a      	ldr	r2, [r3, #0]
 80022ba:	2380      	movs	r3, #128	; 0x80
 80022bc:	00db      	lsls	r3, r3, #3
 80022be:	4013      	ands	r3, r2
 80022c0:	d009      	beq.n	80022d6 <HAL_RCCEx_PeriphCLKConfig+0x25a>
  {
    assert_param(IS_RCC_LPTIM2CLKSOURCE(PeriphClkInit->Lptim2ClockSelection));
    __HAL_RCC_LPTIM2_CONFIG(PeriphClkInit->Lptim2ClockSelection);
 80022c2:	4b82      	ldr	r3, [pc, #520]	; (80024cc <HAL_RCCEx_PeriphCLKConfig+0x450>)
 80022c4:	6d5b      	ldr	r3, [r3, #84]	; 0x54
 80022c6:	4a86      	ldr	r2, [pc, #536]	; (80024e0 <HAL_RCCEx_PeriphCLKConfig+0x464>)
 80022c8:	4013      	ands	r3, r2
 80022ca:	0019      	movs	r1, r3
 80022cc:	687b      	ldr	r3, [r7, #4]
 80022ce:	6ada      	ldr	r2, [r3, #44]	; 0x2c
 80022d0:	4b7e      	ldr	r3, [pc, #504]	; (80024cc <HAL_RCCEx_PeriphCLKConfig+0x450>)
 80022d2:	430a      	orrs	r2, r1
 80022d4:	655a      	str	r2, [r3, #84]	; 0x54
  }
#endif /* RCC_CCIPR_LPTIM2SEL */

  /*-------------------------- I2C1 clock source configuration ---------------------*/
  if (((PeriphClkInit->PeriphClockSelection) & RCC_PERIPHCLK_I2C1) == RCC_PERIPHCLK_I2C1)
 80022d6:	687b      	ldr	r3, [r7, #4]
 80022d8:	681b      	ldr	r3, [r3, #0]
 80022da:	2220      	movs	r2, #32
 80022dc:	4013      	ands	r3, r2
 80022de:	d009      	beq.n	80022f4 <HAL_RCCEx_PeriphCLKConfig+0x278>
  {
    /* Check the parameters */
    assert_param(IS_RCC_I2C1CLKSOURCE(PeriphClkInit->I2c1ClockSelection));

    /* Configure the I2C1 clock source */
    __HAL_RCC_I2C1_CONFIG(PeriphClkInit->I2c1ClockSelection);
 80022e0:	4b7a      	ldr	r3, [pc, #488]	; (80024cc <HAL_RCCEx_PeriphCLKConfig+0x450>)
 80022e2:	6d5b      	ldr	r3, [r3, #84]	; 0x54
 80022e4:	4a7f      	ldr	r2, [pc, #508]	; (80024e4 <HAL_RCCEx_PeriphCLKConfig+0x468>)
 80022e6:	4013      	ands	r3, r2
 80022e8:	0019      	movs	r1, r3
 80022ea:	687b      	ldr	r3, [r7, #4]
 80022ec:	699a      	ldr	r2, [r3, #24]
 80022ee:	4b77      	ldr	r3, [pc, #476]	; (80024cc <HAL_RCCEx_PeriphCLKConfig+0x450>)
 80022f0:	430a      	orrs	r2, r1
 80022f2:	655a      	str	r2, [r3, #84]	; 0x54
  }

#if defined(RCC_CCIPR_I2C2SEL)
  /*-------------------------- I2C2 clock source configuration ---------------------*/
  if (((PeriphClkInit->PeriphClockSelection) & RCC_PERIPHCLK_I2C2) == RCC_PERIPHCLK_I2C2)
 80022f4:	687b      	ldr	r3, [r7, #4]
 80022f6:	681b      	ldr	r3, [r3, #0]
 80022f8:	2240      	movs	r2, #64	; 0x40
 80022fa:	4013      	ands	r3, r2
 80022fc:	d009      	beq.n	8002312 <HAL_RCCEx_PeriphCLKConfig+0x296>
  {
    /* Check the parameters */
    assert_param(IS_RCC_I2C2CLKSOURCE(PeriphClkInit->I2c2ClockSelection));

    /* Configure the I2C2 clock source */
    __HAL_RCC_I2C2_CONFIG(PeriphClkInit->I2c2ClockSelection);
 80022fe:	4b73      	ldr	r3, [pc, #460]	; (80024cc <HAL_RCCEx_PeriphCLKConfig+0x450>)
 8002300:	6d5b      	ldr	r3, [r3, #84]	; 0x54
 8002302:	4a79      	ldr	r2, [pc, #484]	; (80024e8 <HAL_RCCEx_PeriphCLKConfig+0x46c>)
 8002304:	4013      	ands	r3, r2
 8002306:	0019      	movs	r1, r3
 8002308:	687b      	ldr	r3, [r7, #4]
 800230a:	69da      	ldr	r2, [r3, #28]
 800230c:	4b6f      	ldr	r3, [pc, #444]	; (80024cc <HAL_RCCEx_PeriphCLKConfig+0x450>)
 800230e:	430a      	orrs	r2, r1
 8002310:	655a      	str	r2, [r3, #84]	; 0x54
      __HAL_RCC_PLLCLKOUT_ENABLE(RCC_PLLQCLK);
    }
  }
#endif /* RNG */
  /*-------------------------- ADC clock source configuration ----------------------*/
  if (((PeriphClkInit->PeriphClockSelection) & RCC_PERIPHCLK_ADC) == RCC_PERIPHCLK_ADC)
 8002312:	687b      	ldr	r3, [r7, #4]
 8002314:	681a      	ldr	r2, [r3, #0]
 8002316:	2380      	movs	r3, #128	; 0x80
 8002318:	01db      	lsls	r3, r3, #7
 800231a:	4013      	ands	r3, r2
 800231c:	d015      	beq.n	800234a <HAL_RCCEx_PeriphCLKConfig+0x2ce>
  {
    /* Check the parameters */
    assert_param(IS_RCC_ADCCLKSOURCE(PeriphClkInit->AdcClockSelection));

    /* Configure the ADC interface clock source */
    __HAL_RCC_ADC_CONFIG(PeriphClkInit->AdcClockSelection);
 800231e:	4b6b      	ldr	r3, [pc, #428]	; (80024cc <HAL_RCCEx_PeriphCLKConfig+0x450>)
 8002320:	6d5b      	ldr	r3, [r3, #84]	; 0x54
 8002322:	009b      	lsls	r3, r3, #2
 8002324:	0899      	lsrs	r1, r3, #2
 8002326:	687b      	ldr	r3, [r7, #4]
 8002328:	6b1a      	ldr	r2, [r3, #48]	; 0x30
 800232a:	4b68      	ldr	r3, [pc, #416]	; (80024cc <HAL_RCCEx_PeriphCLKConfig+0x450>)
 800232c:	430a      	orrs	r2, r1
 800232e:	655a      	str	r2, [r3, #84]	; 0x54

    if (PeriphClkInit->AdcClockSelection == RCC_ADCCLKSOURCE_PLLADC)
 8002330:	687b      	ldr	r3, [r7, #4]
 8002332:	6b1a      	ldr	r2, [r3, #48]	; 0x30
 8002334:	2380      	movs	r3, #128	; 0x80
 8002336:	05db      	lsls	r3, r3, #23
 8002338:	429a      	cmp	r2, r3
 800233a:	d106      	bne.n	800234a <HAL_RCCEx_PeriphCLKConfig+0x2ce>
    {
      /* Enable PLLPCLK output */
      __HAL_RCC_PLLCLKOUT_ENABLE(RCC_PLLPCLK);
 800233c:	4b63      	ldr	r3, [pc, #396]	; (80024cc <HAL_RCCEx_PeriphCLKConfig+0x450>)
 800233e:	68da      	ldr	r2, [r3, #12]
 8002340:	4b62      	ldr	r3, [pc, #392]	; (80024cc <HAL_RCCEx_PeriphCLKConfig+0x450>)
 8002342:	2180      	movs	r1, #128	; 0x80
 8002344:	0249      	lsls	r1, r1, #9
 8002346:	430a      	orrs	r2, r1
 8002348:	60da      	str	r2, [r3, #12]
    }
  }

#if defined(CEC)
  /*-------------------------- CEC clock source configuration ---------------------*/
  if (((PeriphClkInit->PeriphClockSelection) & RCC_PERIPHCLK_CEC) == RCC_PERIPHCLK_CEC)
 800234a:	687b      	ldr	r3, [r7, #4]
 800234c:	681a      	ldr	r2, [r3, #0]
 800234e:	2380      	movs	r3, #128	; 0x80
 8002350:	031b      	lsls	r3, r3, #12
 8002352:	4013      	ands	r3, r2
 8002354:	d009      	beq.n	800236a <HAL_RCCEx_PeriphCLKConfig+0x2ee>
  {
    /* Check the parameters */
    assert_param(IS_RCC_CECCLKSOURCE(PeriphClkInit->CecClockSelection));

    /* Configure the CEC clock source */
    __HAL_RCC_CEC_CONFIG(PeriphClkInit->CecClockSelection);
 8002356:	4b5d      	ldr	r3, [pc, #372]	; (80024cc <HAL_RCCEx_PeriphCLKConfig+0x450>)
 8002358:	6d5b      	ldr	r3, [r3, #84]	; 0x54
 800235a:	2240      	movs	r2, #64	; 0x40
 800235c:	4393      	bics	r3, r2
 800235e:	0019      	movs	r1, r3
 8002360:	687b      	ldr	r3, [r7, #4]
 8002362:	6b5a      	ldr	r2, [r3, #52]	; 0x34
 8002364:	4b59      	ldr	r3, [pc, #356]	; (80024cc <HAL_RCCEx_PeriphCLKConfig+0x450>)
 8002366:	430a      	orrs	r2, r1
 8002368:	655a      	str	r2, [r3, #84]	; 0x54
  }
#endif /* CEC */

#if defined(RCC_CCIPR_TIM1SEL)
  /*-------------------------- TIM1 clock source configuration ---------------------*/
  if (((PeriphClkInit->PeriphClockSelection) & RCC_PERIPHCLK_TIM1) == RCC_PERIPHCLK_TIM1)
 800236a:	687b      	ldr	r3, [r7, #4]
 800236c:	681a      	ldr	r2, [r3, #0]
 800236e:	2380      	movs	r3, #128	; 0x80
 8002370:	039b      	lsls	r3, r3, #14
 8002372:	4013      	ands	r3, r2
 8002374:	d016      	beq.n	80023a4 <HAL_RCCEx_PeriphCLKConfig+0x328>
  {
    /* Check the parameters */
    assert_param(IS_RCC_TIM1CLKSOURCE(PeriphClkInit->Tim1ClockSelection));

    /* Configure the TIM1 clock source */
    __HAL_RCC_TIM1_CONFIG(PeriphClkInit->Tim1ClockSelection);
 8002376:	4b55      	ldr	r3, [pc, #340]	; (80024cc <HAL_RCCEx_PeriphCLKConfig+0x450>)
 8002378:	6d5b      	ldr	r3, [r3, #84]	; 0x54
 800237a:	4a5c      	ldr	r2, [pc, #368]	; (80024ec <HAL_RCCEx_PeriphCLKConfig+0x470>)
 800237c:	4013      	ands	r3, r2
 800237e:	0019      	movs	r1, r3
 8002380:	687b      	ldr	r3, [r7, #4]
 8002382:	6b9a      	ldr	r2, [r3, #56]	; 0x38
 8002384:	4b51      	ldr	r3, [pc, #324]	; (80024cc <HAL_RCCEx_PeriphCLKConfig+0x450>)
 8002386:	430a      	orrs	r2, r1
 8002388:	655a      	str	r2, [r3, #84]	; 0x54

    if (PeriphClkInit->Tim1ClockSelection == RCC_TIM1CLKSOURCE_PLL)
 800238a:	687b      	ldr	r3, [r7, #4]
 800238c:	6b9a      	ldr	r2, [r3, #56]	; 0x38
 800238e:	2380      	movs	r3, #128	; 0x80
 8002390:	03db      	lsls	r3, r3, #15
 8002392:	429a      	cmp	r2, r3
 8002394:	d106      	bne.n	80023a4 <HAL_RCCEx_PeriphCLKConfig+0x328>
    {
      /* Enable PLLQCLK output */
      __HAL_RCC_PLLCLKOUT_ENABLE(RCC_PLLQCLK);
 8002396:	4b4d      	ldr	r3, [pc, #308]	; (80024cc <HAL_RCCEx_PeriphCLKConfig+0x450>)
 8002398:	68da      	ldr	r2, [r3, #12]
 800239a:	4b4c      	ldr	r3, [pc, #304]	; (80024cc <HAL_RCCEx_PeriphCLKConfig+0x450>)
 800239c:	2180      	movs	r1, #128	; 0x80
 800239e:	0449      	lsls	r1, r1, #17
 80023a0:	430a      	orrs	r2, r1
 80023a2:	60da      	str	r2, [r3, #12]
  }
#endif /* RCC_CCIPR_TIM1SEL */

#if defined(RCC_CCIPR_TIM15SEL)
  /*-------------------------- TIM15 clock source configuration ---------------------*/
  if (((PeriphClkInit->PeriphClockSelection) & RCC_PERIPHCLK_TIM15) == RCC_PERIPHCLK_TIM15)
 80023a4:	687b      	ldr	r3, [r7, #4]
 80023a6:	681a      	ldr	r2, [r3, #0]
 80023a8:	2380      	movs	r3, #128	; 0x80
 80023aa:	03db      	lsls	r3, r3, #15
 80023ac:	4013      	ands	r3, r2
 80023ae:	d016      	beq.n	80023de <HAL_RCCEx_PeriphCLKConfig+0x362>
  {
    /* Check the parameters */
    assert_param(IS_RCC_TIM15CLKSOURCE(PeriphClkInit->Tim15ClockSelection));

    /* Configure the TIM15 clock source */
    __HAL_RCC_TIM15_CONFIG(PeriphClkInit->Tim15ClockSelection);
 80023b0:	4b46      	ldr	r3, [pc, #280]	; (80024cc <HAL_RCCEx_PeriphCLKConfig+0x450>)
 80023b2:	6d5b      	ldr	r3, [r3, #84]	; 0x54
 80023b4:	4a4e      	ldr	r2, [pc, #312]	; (80024f0 <HAL_RCCEx_PeriphCLKConfig+0x474>)
 80023b6:	4013      	ands	r3, r2
 80023b8:	0019      	movs	r1, r3
 80023ba:	687b      	ldr	r3, [r7, #4]
 80023bc:	6bda      	ldr	r2, [r3, #60]	; 0x3c
 80023be:	4b43      	ldr	r3, [pc, #268]	; (80024cc <HAL_RCCEx_PeriphCLKConfig+0x450>)
 80023c0:	430a      	orrs	r2, r1
 80023c2:	655a      	str	r2, [r3, #84]	; 0x54

    if (PeriphClkInit->Tim15ClockSelection == RCC_TIM15CLKSOURCE_PLL)
 80023c4:	687b      	ldr	r3, [r7, #4]
 80023c6:	6bda      	ldr	r2, [r3, #60]	; 0x3c
 80023c8:	2380      	movs	r3, #128	; 0x80
 80023ca:	045b      	lsls	r3, r3, #17
 80023cc:	429a      	cmp	r2, r3
 80023ce:	d106      	bne.n	80023de <HAL_RCCEx_PeriphCLKConfig+0x362>
    {
      /* Enable PLLQCLK output */
      __HAL_RCC_PLLCLKOUT_ENABLE(RCC_PLLQCLK);
 80023d0:	4b3e      	ldr	r3, [pc, #248]	; (80024cc <HAL_RCCEx_PeriphCLKConfig+0x450>)
 80023d2:	68da      	ldr	r2, [r3, #12]
 80023d4:	4b3d      	ldr	r3, [pc, #244]	; (80024cc <HAL_RCCEx_PeriphCLKConfig+0x450>)
 80023d6:	2180      	movs	r1, #128	; 0x80
 80023d8:	0449      	lsls	r1, r1, #17
 80023da:	430a      	orrs	r2, r1
 80023dc:	60da      	str	r2, [r3, #12]
    }
  }
#endif /* RCC_CCIPR_TIM15SEL */

  /*-------------------------- I2S1 clock source configuration ---------------------*/
  if (((PeriphClkInit->PeriphClockSelection) & RCC_PERIPHCLK_I2S1) == RCC_PERIPHCLK_I2S1)
 80023de:	687b      	ldr	r3, [r7, #4]
 80023e0:	681a      	ldr	r2, [r3, #0]
 80023e2:	2380      	movs	r3, #128	; 0x80
 80023e4:	011b      	lsls	r3, r3, #4
 80023e6:	4013      	ands	r3, r2
 80023e8:	d014      	beq.n	8002414 <HAL_RCCEx_PeriphCLKConfig+0x398>
  {
    /* Check the parameters */
    assert_param(IS_RCC_I2S1CLKSOURCE(PeriphClkInit->I2s1ClockSelection));

    /* Configure the I2S1 clock source */
    __HAL_RCC_I2S1_CONFIG(PeriphClkInit->I2s1ClockSelection);
 80023ea:	4b38      	ldr	r3, [pc, #224]	; (80024cc <HAL_RCCEx_PeriphCLKConfig+0x450>)
 80023ec:	6d9b      	ldr	r3, [r3, #88]	; 0x58
 80023ee:	2203      	movs	r2, #3
 80023f0:	4393      	bics	r3, r2
 80023f2:	0019      	movs	r1, r3
 80023f4:	687b      	ldr	r3, [r7, #4]
 80023f6:	6a1a      	ldr	r2, [r3, #32]
 80023f8:	4b34      	ldr	r3, [pc, #208]	; (80024cc <HAL_RCCEx_PeriphCLKConfig+0x450>)
 80023fa:	430a      	orrs	r2, r1
 80023fc:	659a      	str	r2, [r3, #88]	; 0x58

    if (PeriphClkInit->I2s1ClockSelection == RCC_I2S1CLKSOURCE_PLL)
 80023fe:	687b      	ldr	r3, [r7, #4]
 8002400:	6a1b      	ldr	r3, [r3, #32]
 8002402:	2b01      	cmp	r3, #1
 8002404:	d106      	bne.n	8002414 <HAL_RCCEx_PeriphCLKConfig+0x398>
    {
      /* Enable PLLPCLK output */
      __HAL_RCC_PLLCLKOUT_ENABLE(RCC_PLLPCLK);
 8002406:	4b31      	ldr	r3, [pc, #196]	; (80024cc <HAL_RCCEx_PeriphCLKConfig+0x450>)
 8002408:	68da      	ldr	r2, [r3, #12]
 800240a:	4b30      	ldr	r3, [pc, #192]	; (80024cc <HAL_RCCEx_PeriphCLKConfig+0x450>)
 800240c:	2180      	movs	r1, #128	; 0x80
 800240e:	0249      	lsls	r1, r1, #9
 8002410:	430a      	orrs	r2, r1
 8002412:	60da      	str	r2, [r3, #12]
    }
  }

#if defined(RCC_CCIPR2_I2S2SEL)
  /*-------------------------- I2S2 clock source configuration ---------------------*/
  if (((PeriphClkInit->PeriphClockSelection) & RCC_PERIPHCLK_I2S2) == RCC_PERIPHCLK_I2S2)
 8002414:	687b      	ldr	r3, [r7, #4]
 8002416:	681a      	ldr	r2, [r3, #0]
 8002418:	2380      	movs	r3, #128	; 0x80
 800241a:	019b      	lsls	r3, r3, #6
 800241c:	4013      	ands	r3, r2
 800241e:	d014      	beq.n	800244a <HAL_RCCEx_PeriphCLKConfig+0x3ce>
  {
    /* Check the parameters */
    assert_param(IS_RCC_I2S2CLKSOURCE(PeriphClkInit->I2s2ClockSelection));

    /* Configure the I2S2 clock source */
    __HAL_RCC_I2S2_CONFIG(PeriphClkInit->I2s2ClockSelection);
 8002420:	4b2a      	ldr	r3, [pc, #168]	; (80024cc <HAL_RCCEx_PeriphCLKConfig+0x450>)
 8002422:	6d9b      	ldr	r3, [r3, #88]	; 0x58
 8002424:	220c      	movs	r2, #12
 8002426:	4393      	bics	r3, r2
 8002428:	0019      	movs	r1, r3
 800242a:	687b      	ldr	r3, [r7, #4]
 800242c:	6a5a      	ldr	r2, [r3, #36]	; 0x24
 800242e:	4b27      	ldr	r3, [pc, #156]	; (80024cc <HAL_RCCEx_PeriphCLKConfig+0x450>)
 8002430:	430a      	orrs	r2, r1
 8002432:	659a      	str	r2, [r3, #88]	; 0x58

    if (PeriphClkInit->I2s2ClockSelection == RCC_I2S2CLKSOURCE_PLL)
 8002434:	687b      	ldr	r3, [r7, #4]
 8002436:	6a5b      	ldr	r3, [r3, #36]	; 0x24
 8002438:	2b04      	cmp	r3, #4
 800243a:	d106      	bne.n	800244a <HAL_RCCEx_PeriphCLKConfig+0x3ce>
    {
      /* Enable PLLPCLK output */
      __HAL_RCC_PLLCLKOUT_ENABLE(RCC_PLLPCLK);
 800243c:	4b23      	ldr	r3, [pc, #140]	; (80024cc <HAL_RCCEx_PeriphCLKConfig+0x450>)
 800243e:	68da      	ldr	r2, [r3, #12]
 8002440:	4b22      	ldr	r3, [pc, #136]	; (80024cc <HAL_RCCEx_PeriphCLKConfig+0x450>)
 8002442:	2180      	movs	r1, #128	; 0x80
 8002444:	0249      	lsls	r1, r1, #9
 8002446:	430a      	orrs	r2, r1
 8002448:	60da      	str	r2, [r3, #12]
  }
#endif /* RCC_CCIPR2_I2S2SEL */

#if defined(STM32G0C1xx) || defined(STM32G0B1xx)  || defined(STM32G0B0xx)
  /*-------------------------- USB clock source configuration ---------------------*/
  if (((PeriphClkInit->PeriphClockSelection) & RCC_PERIPHCLK_USB) == RCC_PERIPHCLK_USB)
 800244a:	687b      	ldr	r3, [r7, #4]
 800244c:	681a      	ldr	r2, [r3, #0]
 800244e:	2380      	movs	r3, #128	; 0x80
 8002450:	045b      	lsls	r3, r3, #17
 8002452:	4013      	ands	r3, r2
 8002454:	d016      	beq.n	8002484 <HAL_RCCEx_PeriphCLKConfig+0x408>
  {
    /* Check the parameters */
    assert_param(IS_RCC_USBCLKSOURCE(PeriphClkInit->UsbClockSelection));

    /* Configure the USB clock source */
    __HAL_RCC_USB_CONFIG(PeriphClkInit->UsbClockSelection);
 8002456:	4b1d      	ldr	r3, [pc, #116]	; (80024cc <HAL_RCCEx_PeriphCLKConfig+0x450>)
 8002458:	6d9b      	ldr	r3, [r3, #88]	; 0x58
 800245a:	4a22      	ldr	r2, [pc, #136]	; (80024e4 <HAL_RCCEx_PeriphCLKConfig+0x468>)
 800245c:	4013      	ands	r3, r2
 800245e:	0019      	movs	r1, r3
 8002460:	687b      	ldr	r3, [r7, #4]
 8002462:	6c5a      	ldr	r2, [r3, #68]	; 0x44
 8002464:	4b19      	ldr	r3, [pc, #100]	; (80024cc <HAL_RCCEx_PeriphCLKConfig+0x450>)
 8002466:	430a      	orrs	r2, r1
 8002468:	659a      	str	r2, [r3, #88]	; 0x58

    if (PeriphClkInit->UsbClockSelection == RCC_USBCLKSOURCE_PLL)
 800246a:	687b      	ldr	r3, [r7, #4]
 800246c:	6c5a      	ldr	r2, [r3, #68]	; 0x44
 800246e:	2380      	movs	r3, #128	; 0x80
 8002470:	019b      	lsls	r3, r3, #6
 8002472:	429a      	cmp	r2, r3
 8002474:	d106      	bne.n	8002484 <HAL_RCCEx_PeriphCLKConfig+0x408>
    {
      /* Enable PLLQCLK output */
      __HAL_RCC_PLLCLKOUT_ENABLE(RCC_PLLQCLK);
 8002476:	4b15      	ldr	r3, [pc, #84]	; (80024cc <HAL_RCCEx_PeriphCLKConfig+0x450>)
 8002478:	68da      	ldr	r2, [r3, #12]
 800247a:	4b14      	ldr	r3, [pc, #80]	; (80024cc <HAL_RCCEx_PeriphCLKConfig+0x450>)
 800247c:	2180      	movs	r1, #128	; 0x80
 800247e:	0449      	lsls	r1, r1, #17
 8002480:	430a      	orrs	r2, r1
 8002482:	60da      	str	r2, [r3, #12]
  }
#endif /* STM32G0C1xx || STM32G0B1xx || STM32G0B0xx */

#if defined(FDCAN1) || defined(FDCAN2)
  /*-------------------------- FDCAN clock source configuration ---------------------*/
  if (((PeriphClkInit->PeriphClockSelection) & RCC_PERIPHCLK_FDCAN) == RCC_PERIPHCLK_FDCAN)
 8002484:	687b      	ldr	r3, [r7, #4]
 8002486:	681a      	ldr	r2, [r3, #0]
 8002488:	2380      	movs	r3, #128	; 0x80
 800248a:	049b      	lsls	r3, r3, #18
 800248c:	4013      	ands	r3, r2
 800248e:	d016      	beq.n	80024be <HAL_RCCEx_PeriphCLKConfig+0x442>
  {
    /* Check the parameters */
    assert_param(IS_RCC_FDCANCLKSOURCE(PeriphClkInit->FdcanClockSelection));

    /* Configure the FDCAN clock source */
    __HAL_RCC_FDCAN_CONFIG(PeriphClkInit->FdcanClockSelection);
 8002490:	4b0e      	ldr	r3, [pc, #56]	; (80024cc <HAL_RCCEx_PeriphCLKConfig+0x450>)
 8002492:	6d9b      	ldr	r3, [r3, #88]	; 0x58
 8002494:	4a10      	ldr	r2, [pc, #64]	; (80024d8 <HAL_RCCEx_PeriphCLKConfig+0x45c>)
 8002496:	4013      	ands	r3, r2
 8002498:	0019      	movs	r1, r3
 800249a:	687b      	ldr	r3, [r7, #4]
 800249c:	6c9a      	ldr	r2, [r3, #72]	; 0x48
 800249e:	4b0b      	ldr	r3, [pc, #44]	; (80024cc <HAL_RCCEx_PeriphCLKConfig+0x450>)
 80024a0:	430a      	orrs	r2, r1
 80024a2:	659a      	str	r2, [r3, #88]	; 0x58

    if (PeriphClkInit->FdcanClockSelection == RCC_FDCANCLKSOURCE_PLL)
 80024a4:	687b      	ldr	r3, [r7, #4]
 80024a6:	6c9a      	ldr	r2, [r3, #72]	; 0x48
 80024a8:	2380      	movs	r3, #128	; 0x80
 80024aa:	005b      	lsls	r3, r3, #1
 80024ac:	429a      	cmp	r2, r3
 80024ae:	d106      	bne.n	80024be <HAL_RCCEx_PeriphCLKConfig+0x442>
    {
      /* Enable PLLQCLK output */
      __HAL_RCC_PLLCLKOUT_ENABLE(RCC_PLLQCLK);
 80024b0:	4b06      	ldr	r3, [pc, #24]	; (80024cc <HAL_RCCEx_PeriphCLKConfig+0x450>)
 80024b2:	68da      	ldr	r2, [r3, #12]
 80024b4:	4b05      	ldr	r3, [pc, #20]	; (80024cc <HAL_RCCEx_PeriphCLKConfig+0x450>)
 80024b6:	2180      	movs	r1, #128	; 0x80
 80024b8:	0449      	lsls	r1, r1, #17
 80024ba:	430a      	orrs	r2, r1
 80024bc:	60da      	str	r2, [r3, #12]
    }
  }
#endif /* FDCAN1 || FDCAN2 */

  return status;
 80024be:	2312      	movs	r3, #18
 80024c0:	18fb      	adds	r3, r7, r3
 80024c2:	781b      	ldrb	r3, [r3, #0]
}
 80024c4:	0018      	movs	r0, r3
 80024c6:	46bd      	mov	sp, r7
 80024c8:	b006      	add	sp, #24
 80024ca:	bd80      	pop	{r7, pc}
 80024cc:	40021000 	.word	0x40021000
 80024d0:	efffffff 	.word	0xefffffff
 80024d4:	fffff3ff 	.word	0xfffff3ff
 80024d8:	fffffcff 	.word	0xfffffcff
 80024dc:	fff3ffff 	.word	0xfff3ffff
 80024e0:	ffcfffff 	.word	0xffcfffff
 80024e4:	ffffcfff 	.word	0xffffcfff
 80024e8:	ffff3fff 	.word	0xffff3fff
 80024ec:	ffbfffff 	.word	0xffbfffff
 80024f0:	feffffff 	.word	0xfeffffff

080024f4 <HAL_TIM_Base_Init>:
  *         Ex: call @ref HAL_TIM_Base_DeInit() before HAL_TIM_Base_Init()
  * @param  htim TIM Base handle
  * @retval HAL status
  */
HAL_StatusTypeDef HAL_TIM_Base_Init(TIM_HandleTypeDef *htim)
{
 80024f4:	b580      	push	{r7, lr}
 80024f6:	b082      	sub	sp, #8
 80024f8:	af00      	add	r7, sp, #0
 80024fa:	6078      	str	r0, [r7, #4]
  /* Check the TIM handle allocation */
  if (htim == NULL)
 80024fc:	687b      	ldr	r3, [r7, #4]
 80024fe:	2b00      	cmp	r3, #0
 8002500:	d101      	bne.n	8002506 <HAL_TIM_Base_Init+0x12>
  {
    return HAL_ERROR;
 8002502:	2301      	movs	r3, #1
 8002504:	e04a      	b.n	800259c <HAL_TIM_Base_Init+0xa8>
  assert_param(IS_TIM_COUNTER_MODE(htim->Init.CounterMode));
  assert_param(IS_TIM_CLOCKDIVISION_DIV(htim->Init.ClockDivision));
  assert_param(IS_TIM_PERIOD(htim, htim->Init.Period));
  assert_param(IS_TIM_AUTORELOAD_PRELOAD(htim->Init.AutoReloadPreload));

  if (htim->State == HAL_TIM_STATE_RESET)
 8002506:	687b      	ldr	r3, [r7, #4]
 8002508:	223d      	movs	r2, #61	; 0x3d
 800250a:	5c9b      	ldrb	r3, [r3, r2]
 800250c:	b2db      	uxtb	r3, r3
 800250e:	2b00      	cmp	r3, #0
 8002510:	d107      	bne.n	8002522 <HAL_TIM_Base_Init+0x2e>
  {
    /* Allocate lock resource and initialize it */
    htim->Lock = HAL_UNLOCKED;
 8002512:	687b      	ldr	r3, [r7, #4]
 8002514:	223c      	movs	r2, #60	; 0x3c
 8002516:	2100      	movs	r1, #0
 8002518:	5499      	strb	r1, [r3, r2]
    }
    /* Init the low level hardware : GPIO, CLOCK, NVIC */
    htim->Base_MspInitCallback(htim);
#else
    /* Init the low level hardware : GPIO, CLOCK, NVIC */
    HAL_TIM_Base_MspInit(htim);
 800251a:	687b      	ldr	r3, [r7, #4]
 800251c:	0018      	movs	r0, r3
 800251e:	f7fe fc2d 	bl	8000d7c <HAL_TIM_Base_MspInit>
#endif /* USE_HAL_TIM_REGISTER_CALLBACKS */
  }

  /* Set the TIM state */
  htim->State = HAL_TIM_STATE_BUSY;
 8002522:	687b      	ldr	r3, [r7, #4]
 8002524:	223d      	movs	r2, #61	; 0x3d
 8002526:	2102      	movs	r1, #2
 8002528:	5499      	strb	r1, [r3, r2]

  /* Set the Time Base configuration */
  TIM_Base_SetConfig(htim->Instance, &htim->Init);
 800252a:	687b      	ldr	r3, [r7, #4]
 800252c:	681a      	ldr	r2, [r3, #0]
 800252e:	687b      	ldr	r3, [r7, #4]
 8002530:	3304      	adds	r3, #4
 8002532:	0019      	movs	r1, r3
 8002534:	0010      	movs	r0, r2
 8002536:	f000 fa6b 	bl	8002a10 <TIM_Base_SetConfig>

  /* Initialize the DMA burst operation state */
  htim->DMABurstState = HAL_DMA_BURST_STATE_READY;
 800253a:	687b      	ldr	r3, [r7, #4]
 800253c:	2248      	movs	r2, #72	; 0x48
 800253e:	2101      	movs	r1, #1
 8002540:	5499      	strb	r1, [r3, r2]

  /* Initialize the TIM channels state */
  TIM_CHANNEL_STATE_SET_ALL(htim, HAL_TIM_CHANNEL_STATE_READY);
 8002542:	687b      	ldr	r3, [r7, #4]
 8002544:	223e      	movs	r2, #62	; 0x3e
 8002546:	2101      	movs	r1, #1
 8002548:	5499      	strb	r1, [r3, r2]
 800254a:	687b      	ldr	r3, [r7, #4]
 800254c:	223f      	movs	r2, #63	; 0x3f
 800254e:	2101      	movs	r1, #1
 8002550:	5499      	strb	r1, [r3, r2]
 8002552:	687b      	ldr	r3, [r7, #4]
 8002554:	2240      	movs	r2, #64	; 0x40
 8002556:	2101      	movs	r1, #1
 8002558:	5499      	strb	r1, [r3, r2]
 800255a:	687b      	ldr	r3, [r7, #4]
 800255c:	2241      	movs	r2, #65	; 0x41
 800255e:	2101      	movs	r1, #1
 8002560:	5499      	strb	r1, [r3, r2]
 8002562:	687b      	ldr	r3, [r7, #4]
 8002564:	2242      	movs	r2, #66	; 0x42
 8002566:	2101      	movs	r1, #1
 8002568:	5499      	strb	r1, [r3, r2]
 800256a:	687b      	ldr	r3, [r7, #4]
 800256c:	2243      	movs	r2, #67	; 0x43
 800256e:	2101      	movs	r1, #1
 8002570:	5499      	strb	r1, [r3, r2]
  TIM_CHANNEL_N_STATE_SET_ALL(htim, HAL_TIM_CHANNEL_STATE_READY);
 8002572:	687b      	ldr	r3, [r7, #4]
 8002574:	2244      	movs	r2, #68	; 0x44
 8002576:	2101      	movs	r1, #1
 8002578:	5499      	strb	r1, [r3, r2]
 800257a:	687b      	ldr	r3, [r7, #4]
 800257c:	2245      	movs	r2, #69	; 0x45
 800257e:	2101      	movs	r1, #1
 8002580:	5499      	strb	r1, [r3, r2]
 8002582:	687b      	ldr	r3, [r7, #4]
 8002584:	2246      	movs	r2, #70	; 0x46
 8002586:	2101      	movs	r1, #1
 8002588:	5499      	strb	r1, [r3, r2]
 800258a:	687b      	ldr	r3, [r7, #4]
 800258c:	2247      	movs	r2, #71	; 0x47
 800258e:	2101      	movs	r1, #1
 8002590:	5499      	strb	r1, [r3, r2]

  /* Initialize the TIM state*/
  htim->State = HAL_TIM_STATE_READY;
 8002592:	687b      	ldr	r3, [r7, #4]
 8002594:	223d      	movs	r2, #61	; 0x3d
 8002596:	2101      	movs	r1, #1
 8002598:	5499      	strb	r1, [r3, r2]

  return HAL_OK;
 800259a:	2300      	movs	r3, #0
}
 800259c:	0018      	movs	r0, r3
 800259e:	46bd      	mov	sp, r7
 80025a0:	b002      	add	sp, #8
 80025a2:	bd80      	pop	{r7, pc}

080025a4 <HAL_TIM_PWM_Init>:
  *         Ex: call @ref HAL_TIM_PWM_DeInit() before HAL_TIM_PWM_Init()
  * @param  htim TIM PWM handle
  * @retval HAL status
  */
HAL_StatusTypeDef HAL_TIM_PWM_Init(TIM_HandleTypeDef *htim)
{
 80025a4:	b580      	push	{r7, lr}
 80025a6:	b082      	sub	sp, #8
 80025a8:	af00      	add	r7, sp, #0
 80025aa:	6078      	str	r0, [r7, #4]
  /* Check the TIM handle allocation */
  if (htim == NULL)
 80025ac:	687b      	ldr	r3, [r7, #4]
 80025ae:	2b00      	cmp	r3, #0
 80025b0:	d101      	bne.n	80025b6 <HAL_TIM_PWM_Init+0x12>
  {
    return HAL_ERROR;
 80025b2:	2301      	movs	r3, #1
 80025b4:	e04a      	b.n	800264c <HAL_TIM_PWM_Init+0xa8>
  assert_param(IS_TIM_COUNTER_MODE(htim->Init.CounterMode));
  assert_param(IS_TIM_CLOCKDIVISION_DIV(htim->Init.ClockDivision));
  assert_param(IS_TIM_PERIOD(htim, htim->Init.Period));
  assert_param(IS_TIM_AUTORELOAD_PRELOAD(htim->Init.AutoReloadPreload));

  if (htim->State == HAL_TIM_STATE_RESET)
 80025b6:	687b      	ldr	r3, [r7, #4]
 80025b8:	223d      	movs	r2, #61	; 0x3d
 80025ba:	5c9b      	ldrb	r3, [r3, r2]
 80025bc:	b2db      	uxtb	r3, r3
 80025be:	2b00      	cmp	r3, #0
 80025c0:	d107      	bne.n	80025d2 <HAL_TIM_PWM_Init+0x2e>
  {
    /* Allocate lock resource and initialize it */
    htim->Lock = HAL_UNLOCKED;
 80025c2:	687b      	ldr	r3, [r7, #4]
 80025c4:	223c      	movs	r2, #60	; 0x3c
 80025c6:	2100      	movs	r1, #0
 80025c8:	5499      	strb	r1, [r3, r2]
    }
    /* Init the low level hardware : GPIO, CLOCK, NVIC */
    htim->PWM_MspInitCallback(htim);
#else
    /* Init the low level hardware : GPIO, CLOCK, NVIC and DMA */
    HAL_TIM_PWM_MspInit(htim);
 80025ca:	687b      	ldr	r3, [r7, #4]
 80025cc:	0018      	movs	r0, r3
 80025ce:	f000 f841 	bl	8002654 <HAL_TIM_PWM_MspInit>
#endif /* USE_HAL_TIM_REGISTER_CALLBACKS */
  }

  /* Set the TIM state */
  htim->State = HAL_TIM_STATE_BUSY;
 80025d2:	687b      	ldr	r3, [r7, #4]
 80025d4:	223d      	movs	r2, #61	; 0x3d
 80025d6:	2102      	movs	r1, #2
 80025d8:	5499      	strb	r1, [r3, r2]

  /* Init the base time for the PWM */
  TIM_Base_SetConfig(htim->Instance, &htim->Init);
 80025da:	687b      	ldr	r3, [r7, #4]
 80025dc:	681a      	ldr	r2, [r3, #0]
 80025de:	687b      	ldr	r3, [r7, #4]
 80025e0:	3304      	adds	r3, #4
 80025e2:	0019      	movs	r1, r3
 80025e4:	0010      	movs	r0, r2
 80025e6:	f000 fa13 	bl	8002a10 <TIM_Base_SetConfig>

  /* Initialize the DMA burst operation state */
  htim->DMABurstState = HAL_DMA_BURST_STATE_READY;
 80025ea:	687b      	ldr	r3, [r7, #4]
 80025ec:	2248      	movs	r2, #72	; 0x48
 80025ee:	2101      	movs	r1, #1
 80025f0:	5499      	strb	r1, [r3, r2]

  /* Initialize the TIM channels state */
  TIM_CHANNEL_STATE_SET_ALL(htim, HAL_TIM_CHANNEL_STATE_READY);
 80025f2:	687b      	ldr	r3, [r7, #4]
 80025f4:	223e      	movs	r2, #62	; 0x3e
 80025f6:	2101      	movs	r1, #1
 80025f8:	5499      	strb	r1, [r3, r2]
 80025fa:	687b      	ldr	r3, [r7, #4]
 80025fc:	223f      	movs	r2, #63	; 0x3f
 80025fe:	2101      	movs	r1, #1
 8002600:	5499      	strb	r1, [r3, r2]
 8002602:	687b      	ldr	r3, [r7, #4]
 8002604:	2240      	movs	r2, #64	; 0x40
 8002606:	2101      	movs	r1, #1
 8002608:	5499      	strb	r1, [r3, r2]
 800260a:	687b      	ldr	r3, [r7, #4]
 800260c:	2241      	movs	r2, #65	; 0x41
 800260e:	2101      	movs	r1, #1
 8002610:	5499      	strb	r1, [r3, r2]
 8002612:	687b      	ldr	r3, [r7, #4]
 8002614:	2242      	movs	r2, #66	; 0x42
 8002616:	2101      	movs	r1, #1
 8002618:	5499      	strb	r1, [r3, r2]
 800261a:	687b      	ldr	r3, [r7, #4]
 800261c:	2243      	movs	r2, #67	; 0x43
 800261e:	2101      	movs	r1, #1
 8002620:	5499      	strb	r1, [r3, r2]
  TIM_CHANNEL_N_STATE_SET_ALL(htim, HAL_TIM_CHANNEL_STATE_READY);
 8002622:	687b      	ldr	r3, [r7, #4]
 8002624:	2244      	movs	r2, #68	; 0x44
 8002626:	2101      	movs	r1, #1
 8002628:	5499      	strb	r1, [r3, r2]
 800262a:	687b      	ldr	r3, [r7, #4]
 800262c:	2245      	movs	r2, #69	; 0x45
 800262e:	2101      	movs	r1, #1
 8002630:	5499      	strb	r1, [r3, r2]
 8002632:	687b      	ldr	r3, [r7, #4]
 8002634:	2246      	movs	r2, #70	; 0x46
 8002636:	2101      	movs	r1, #1
 8002638:	5499      	strb	r1, [r3, r2]
 800263a:	687b      	ldr	r3, [r7, #4]
 800263c:	2247      	movs	r2, #71	; 0x47
 800263e:	2101      	movs	r1, #1
 8002640:	5499      	strb	r1, [r3, r2]

  /* Initialize the TIM state*/
  htim->State = HAL_TIM_STATE_READY;
 8002642:	687b      	ldr	r3, [r7, #4]
 8002644:	223d      	movs	r2, #61	; 0x3d
 8002646:	2101      	movs	r1, #1
 8002648:	5499      	strb	r1, [r3, r2]

  return HAL_OK;
 800264a:	2300      	movs	r3, #0
}
 800264c:	0018      	movs	r0, r3
 800264e:	46bd      	mov	sp, r7
 8002650:	b002      	add	sp, #8
 8002652:	bd80      	pop	{r7, pc}

08002654 <HAL_TIM_PWM_MspInit>:
  * @brief  Initializes the TIM PWM MSP.
  * @param  htim TIM PWM handle
  * @retval None
  */
__weak void HAL_TIM_PWM_MspInit(TIM_HandleTypeDef *htim)
{
 8002654:	b580      	push	{r7, lr}
 8002656:	b082      	sub	sp, #8
 8002658:	af00      	add	r7, sp, #0
 800265a:	6078      	str	r0, [r7, #4]
  UNUSED(htim);

  /* NOTE : This function should not be modified, when the callback is needed,
            the HAL_TIM_PWM_MspInit could be implemented in the user file
   */
}
 800265c:	46c0      	nop			; (mov r8, r8)
 800265e:	46bd      	mov	sp, r7
 8002660:	b002      	add	sp, #8
 8002662:	bd80      	pop	{r7, pc}

08002664 <HAL_TIM_PWM_ConfigChannel>:
  * @retval HAL status
  */
HAL_StatusTypeDef HAL_TIM_PWM_ConfigChannel(TIM_HandleTypeDef *htim,
                                            const TIM_OC_InitTypeDef *sConfig,
                                            uint32_t Channel)
{
 8002664:	b580      	push	{r7, lr}
 8002666:	b086      	sub	sp, #24
 8002668:	af00      	add	r7, sp, #0
 800266a:	60f8      	str	r0, [r7, #12]
 800266c:	60b9      	str	r1, [r7, #8]
 800266e:	607a      	str	r2, [r7, #4]
  HAL_StatusTypeDef status = HAL_OK;
 8002670:	2317      	movs	r3, #23
 8002672:	18fb      	adds	r3, r7, r3
 8002674:	2200      	movs	r2, #0
 8002676:	701a      	strb	r2, [r3, #0]
  assert_param(IS_TIM_PWM_MODE(sConfig->OCMode));
  assert_param(IS_TIM_OC_POLARITY(sConfig->OCPolarity));
  assert_param(IS_TIM_FAST_STATE(sConfig->OCFastMode));

  /* Process Locked */
  __HAL_LOCK(htim);
 8002678:	68fb      	ldr	r3, [r7, #12]
 800267a:	223c      	movs	r2, #60	; 0x3c
 800267c:	5c9b      	ldrb	r3, [r3, r2]
 800267e:	2b01      	cmp	r3, #1
 8002680:	d101      	bne.n	8002686 <HAL_TIM_PWM_ConfigChannel+0x22>
 8002682:	2302      	movs	r3, #2
 8002684:	e0e5      	b.n	8002852 <HAL_TIM_PWM_ConfigChannel+0x1ee>
 8002686:	68fb      	ldr	r3, [r7, #12]
 8002688:	223c      	movs	r2, #60	; 0x3c
 800268a:	2101      	movs	r1, #1
 800268c:	5499      	strb	r1, [r3, r2]

  switch (Channel)
 800268e:	687b      	ldr	r3, [r7, #4]
 8002690:	2b14      	cmp	r3, #20
 8002692:	d900      	bls.n	8002696 <HAL_TIM_PWM_ConfigChannel+0x32>
 8002694:	e0d1      	b.n	800283a <HAL_TIM_PWM_ConfigChannel+0x1d6>
 8002696:	687b      	ldr	r3, [r7, #4]
 8002698:	009a      	lsls	r2, r3, #2
 800269a:	4b70      	ldr	r3, [pc, #448]	; (800285c <HAL_TIM_PWM_ConfigChannel+0x1f8>)
 800269c:	18d3      	adds	r3, r2, r3
 800269e:	681b      	ldr	r3, [r3, #0]
 80026a0:	469f      	mov	pc, r3
    {
      /* Check the parameters */
      assert_param(IS_TIM_CC1_INSTANCE(htim->Instance));

      /* Configure the Channel 1 in PWM mode */
      TIM_OC1_SetConfig(htim->Instance, sConfig);
 80026a2:	68fb      	ldr	r3, [r7, #12]
 80026a4:	681b      	ldr	r3, [r3, #0]
 80026a6:	68ba      	ldr	r2, [r7, #8]
 80026a8:	0011      	movs	r1, r2
 80026aa:	0018      	movs	r0, r3
 80026ac:	f000 fa48 	bl	8002b40 <TIM_OC1_SetConfig>

      /* Set the Preload enable bit for channel1 */
      htim->Instance->CCMR1 |= TIM_CCMR1_OC1PE;
 80026b0:	68fb      	ldr	r3, [r7, #12]
 80026b2:	681b      	ldr	r3, [r3, #0]
 80026b4:	699a      	ldr	r2, [r3, #24]
 80026b6:	68fb      	ldr	r3, [r7, #12]
 80026b8:	681b      	ldr	r3, [r3, #0]
 80026ba:	2108      	movs	r1, #8
 80026bc:	430a      	orrs	r2, r1
 80026be:	619a      	str	r2, [r3, #24]

      /* Configure the Output Fast mode */
      htim->Instance->CCMR1 &= ~TIM_CCMR1_OC1FE;
 80026c0:	68fb      	ldr	r3, [r7, #12]
 80026c2:	681b      	ldr	r3, [r3, #0]
 80026c4:	699a      	ldr	r2, [r3, #24]
 80026c6:	68fb      	ldr	r3, [r7, #12]
 80026c8:	681b      	ldr	r3, [r3, #0]
 80026ca:	2104      	movs	r1, #4
 80026cc:	438a      	bics	r2, r1
 80026ce:	619a      	str	r2, [r3, #24]
      htim->Instance->CCMR1 |= sConfig->OCFastMode;
 80026d0:	68fb      	ldr	r3, [r7, #12]
 80026d2:	681b      	ldr	r3, [r3, #0]
 80026d4:	6999      	ldr	r1, [r3, #24]
 80026d6:	68bb      	ldr	r3, [r7, #8]
 80026d8:	691a      	ldr	r2, [r3, #16]
 80026da:	68fb      	ldr	r3, [r7, #12]
 80026dc:	681b      	ldr	r3, [r3, #0]
 80026de:	430a      	orrs	r2, r1
 80026e0:	619a      	str	r2, [r3, #24]
      break;
 80026e2:	e0af      	b.n	8002844 <HAL_TIM_PWM_ConfigChannel+0x1e0>
    {
      /* Check the parameters */
      assert_param(IS_TIM_CC2_INSTANCE(htim->Instance));

      /* Configure the Channel 2 in PWM mode */
      TIM_OC2_SetConfig(htim->Instance, sConfig);
 80026e4:	68fb      	ldr	r3, [r7, #12]
 80026e6:	681b      	ldr	r3, [r3, #0]
 80026e8:	68ba      	ldr	r2, [r7, #8]
 80026ea:	0011      	movs	r1, r2
 80026ec:	0018      	movs	r0, r3
 80026ee:	f000 fab1 	bl	8002c54 <TIM_OC2_SetConfig>

      /* Set the Preload enable bit for channel2 */
      htim->Instance->CCMR1 |= TIM_CCMR1_OC2PE;
 80026f2:	68fb      	ldr	r3, [r7, #12]
 80026f4:	681b      	ldr	r3, [r3, #0]
 80026f6:	699a      	ldr	r2, [r3, #24]
 80026f8:	68fb      	ldr	r3, [r7, #12]
 80026fa:	681b      	ldr	r3, [r3, #0]
 80026fc:	2180      	movs	r1, #128	; 0x80
 80026fe:	0109      	lsls	r1, r1, #4
 8002700:	430a      	orrs	r2, r1
 8002702:	619a      	str	r2, [r3, #24]

      /* Configure the Output Fast mode */
      htim->Instance->CCMR1 &= ~TIM_CCMR1_OC2FE;
 8002704:	68fb      	ldr	r3, [r7, #12]
 8002706:	681b      	ldr	r3, [r3, #0]
 8002708:	699a      	ldr	r2, [r3, #24]
 800270a:	68fb      	ldr	r3, [r7, #12]
 800270c:	681b      	ldr	r3, [r3, #0]
 800270e:	4954      	ldr	r1, [pc, #336]	; (8002860 <HAL_TIM_PWM_ConfigChannel+0x1fc>)
 8002710:	400a      	ands	r2, r1
 8002712:	619a      	str	r2, [r3, #24]
      htim->Instance->CCMR1 |= sConfig->OCFastMode << 8U;
 8002714:	68fb      	ldr	r3, [r7, #12]
 8002716:	681b      	ldr	r3, [r3, #0]
 8002718:	6999      	ldr	r1, [r3, #24]
 800271a:	68bb      	ldr	r3, [r7, #8]
 800271c:	691b      	ldr	r3, [r3, #16]
 800271e:	021a      	lsls	r2, r3, #8
 8002720:	68fb      	ldr	r3, [r7, #12]
 8002722:	681b      	ldr	r3, [r3, #0]
 8002724:	430a      	orrs	r2, r1
 8002726:	619a      	str	r2, [r3, #24]
      break;
 8002728:	e08c      	b.n	8002844 <HAL_TIM_PWM_ConfigChannel+0x1e0>
    {
      /* Check the parameters */
      assert_param(IS_TIM_CC3_INSTANCE(htim->Instance));

      /* Configure the Channel 3 in PWM mode */
      TIM_OC3_SetConfig(htim->Instance, sConfig);
 800272a:	68fb      	ldr	r3, [r7, #12]
 800272c:	681b      	ldr	r3, [r3, #0]
 800272e:	68ba      	ldr	r2, [r7, #8]
 8002730:	0011      	movs	r1, r2
 8002732:	0018      	movs	r0, r3
 8002734:	f000 fb12 	bl	8002d5c <TIM_OC3_SetConfig>

      /* Set the Preload enable bit for channel3 */
      htim->Instance->CCMR2 |= TIM_CCMR2_OC3PE;
 8002738:	68fb      	ldr	r3, [r7, #12]
 800273a:	681b      	ldr	r3, [r3, #0]
 800273c:	69da      	ldr	r2, [r3, #28]
 800273e:	68fb      	ldr	r3, [r7, #12]
 8002740:	681b      	ldr	r3, [r3, #0]
 8002742:	2108      	movs	r1, #8
 8002744:	430a      	orrs	r2, r1
 8002746:	61da      	str	r2, [r3, #28]

      /* Configure the Output Fast mode */
      htim->Instance->CCMR2 &= ~TIM_CCMR2_OC3FE;
 8002748:	68fb      	ldr	r3, [r7, #12]
 800274a:	681b      	ldr	r3, [r3, #0]
 800274c:	69da      	ldr	r2, [r3, #28]
 800274e:	68fb      	ldr	r3, [r7, #12]
 8002750:	681b      	ldr	r3, [r3, #0]
 8002752:	2104      	movs	r1, #4
 8002754:	438a      	bics	r2, r1
 8002756:	61da      	str	r2, [r3, #28]
      htim->Instance->CCMR2 |= sConfig->OCFastMode;
 8002758:	68fb      	ldr	r3, [r7, #12]
 800275a:	681b      	ldr	r3, [r3, #0]
 800275c:	69d9      	ldr	r1, [r3, #28]
 800275e:	68bb      	ldr	r3, [r7, #8]
 8002760:	691a      	ldr	r2, [r3, #16]
 8002762:	68fb      	ldr	r3, [r7, #12]
 8002764:	681b      	ldr	r3, [r3, #0]
 8002766:	430a      	orrs	r2, r1
 8002768:	61da      	str	r2, [r3, #28]
      break;
 800276a:	e06b      	b.n	8002844 <HAL_TIM_PWM_ConfigChannel+0x1e0>
    {
      /* Check the parameters */
      assert_param(IS_TIM_CC4_INSTANCE(htim->Instance));

      /* Configure the Channel 4 in PWM mode */
      TIM_OC4_SetConfig(htim->Instance, sConfig);
 800276c:	68fb      	ldr	r3, [r7, #12]
 800276e:	681b      	ldr	r3, [r3, #0]
 8002770:	68ba      	ldr	r2, [r7, #8]
 8002772:	0011      	movs	r1, r2
 8002774:	0018      	movs	r0, r3
 8002776:	f000 fb79 	bl	8002e6c <TIM_OC4_SetConfig>

      /* Set the Preload enable bit for channel4 */
      htim->Instance->CCMR2 |= TIM_CCMR2_OC4PE;
 800277a:	68fb      	ldr	r3, [r7, #12]
 800277c:	681b      	ldr	r3, [r3, #0]
 800277e:	69da      	ldr	r2, [r3, #28]
 8002780:	68fb      	ldr	r3, [r7, #12]
 8002782:	681b      	ldr	r3, [r3, #0]
 8002784:	2180      	movs	r1, #128	; 0x80
 8002786:	0109      	lsls	r1, r1, #4
 8002788:	430a      	orrs	r2, r1
 800278a:	61da      	str	r2, [r3, #28]

      /* Configure the Output Fast mode */
      htim->Instance->CCMR2 &= ~TIM_CCMR2_OC4FE;
 800278c:	68fb      	ldr	r3, [r7, #12]
 800278e:	681b      	ldr	r3, [r3, #0]
 8002790:	69da      	ldr	r2, [r3, #28]
 8002792:	68fb      	ldr	r3, [r7, #12]
 8002794:	681b      	ldr	r3, [r3, #0]
 8002796:	4932      	ldr	r1, [pc, #200]	; (8002860 <HAL_TIM_PWM_ConfigChannel+0x1fc>)
 8002798:	400a      	ands	r2, r1
 800279a:	61da      	str	r2, [r3, #28]
      htim->Instance->CCMR2 |= sConfig->OCFastMode << 8U;
 800279c:	68fb      	ldr	r3, [r7, #12]
 800279e:	681b      	ldr	r3, [r3, #0]
 80027a0:	69d9      	ldr	r1, [r3, #28]
 80027a2:	68bb      	ldr	r3, [r7, #8]
 80027a4:	691b      	ldr	r3, [r3, #16]
 80027a6:	021a      	lsls	r2, r3, #8
 80027a8:	68fb      	ldr	r3, [r7, #12]
 80027aa:	681b      	ldr	r3, [r3, #0]
 80027ac:	430a      	orrs	r2, r1
 80027ae:	61da      	str	r2, [r3, #28]
      break;
 80027b0:	e048      	b.n	8002844 <HAL_TIM_PWM_ConfigChannel+0x1e0>
    {
      /* Check the parameters */
      assert_param(IS_TIM_CC5_INSTANCE(htim->Instance));

      /* Configure the Channel 5 in PWM mode */
      TIM_OC5_SetConfig(htim->Instance, sConfig);
 80027b2:	68fb      	ldr	r3, [r7, #12]
 80027b4:	681b      	ldr	r3, [r3, #0]
 80027b6:	68ba      	ldr	r2, [r7, #8]
 80027b8:	0011      	movs	r1, r2
 80027ba:	0018      	movs	r0, r3
 80027bc:	f000 fbc0 	bl	8002f40 <TIM_OC5_SetConfig>

      /* Set the Preload enable bit for channel5*/
      htim->Instance->CCMR3 |= TIM_CCMR3_OC5PE;
 80027c0:	68fb      	ldr	r3, [r7, #12]
 80027c2:	681b      	ldr	r3, [r3, #0]
 80027c4:	6d5a      	ldr	r2, [r3, #84]	; 0x54
 80027c6:	68fb      	ldr	r3, [r7, #12]
 80027c8:	681b      	ldr	r3, [r3, #0]
 80027ca:	2108      	movs	r1, #8
 80027cc:	430a      	orrs	r2, r1
 80027ce:	655a      	str	r2, [r3, #84]	; 0x54

      /* Configure the Output Fast mode */
      htim->Instance->CCMR3 &= ~TIM_CCMR3_OC5FE;
 80027d0:	68fb      	ldr	r3, [r7, #12]
 80027d2:	681b      	ldr	r3, [r3, #0]
 80027d4:	6d5a      	ldr	r2, [r3, #84]	; 0x54
 80027d6:	68fb      	ldr	r3, [r7, #12]
 80027d8:	681b      	ldr	r3, [r3, #0]
 80027da:	2104      	movs	r1, #4
 80027dc:	438a      	bics	r2, r1
 80027de:	655a      	str	r2, [r3, #84]	; 0x54
      htim->Instance->CCMR3 |= sConfig->OCFastMode;
 80027e0:	68fb      	ldr	r3, [r7, #12]
 80027e2:	681b      	ldr	r3, [r3, #0]
 80027e4:	6d59      	ldr	r1, [r3, #84]	; 0x54
 80027e6:	68bb      	ldr	r3, [r7, #8]
 80027e8:	691a      	ldr	r2, [r3, #16]
 80027ea:	68fb      	ldr	r3, [r7, #12]
 80027ec:	681b      	ldr	r3, [r3, #0]
 80027ee:	430a      	orrs	r2, r1
 80027f0:	655a      	str	r2, [r3, #84]	; 0x54
      break;
 80027f2:	e027      	b.n	8002844 <HAL_TIM_PWM_ConfigChannel+0x1e0>
    {
      /* Check the parameters */
      assert_param(IS_TIM_CC6_INSTANCE(htim->Instance));

      /* Configure the Channel 6 in PWM mode */
      TIM_OC6_SetConfig(htim->Instance, sConfig);
 80027f4:	68fb      	ldr	r3, [r7, #12]
 80027f6:	681b      	ldr	r3, [r3, #0]
 80027f8:	68ba      	ldr	r2, [r7, #8]
 80027fa:	0011      	movs	r1, r2
 80027fc:	0018      	movs	r0, r3
 80027fe:	f000 fbff 	bl	8003000 <TIM_OC6_SetConfig>

      /* Set the Preload enable bit for channel6 */
      htim->Instance->CCMR3 |= TIM_CCMR3_OC6PE;
 8002802:	68fb      	ldr	r3, [r7, #12]
 8002804:	681b      	ldr	r3, [r3, #0]
 8002806:	6d5a      	ldr	r2, [r3, #84]	; 0x54
 8002808:	68fb      	ldr	r3, [r7, #12]
 800280a:	681b      	ldr	r3, [r3, #0]
 800280c:	2180      	movs	r1, #128	; 0x80
 800280e:	0109      	lsls	r1, r1, #4
 8002810:	430a      	orrs	r2, r1
 8002812:	655a      	str	r2, [r3, #84]	; 0x54

      /* Configure the Output Fast mode */
      htim->Instance->CCMR3 &= ~TIM_CCMR3_OC6FE;
 8002814:	68fb      	ldr	r3, [r7, #12]
 8002816:	681b      	ldr	r3, [r3, #0]
 8002818:	6d5a      	ldr	r2, [r3, #84]	; 0x54
 800281a:	68fb      	ldr	r3, [r7, #12]
 800281c:	681b      	ldr	r3, [r3, #0]
 800281e:	4910      	ldr	r1, [pc, #64]	; (8002860 <HAL_TIM_PWM_ConfigChannel+0x1fc>)
 8002820:	400a      	ands	r2, r1
 8002822:	655a      	str	r2, [r3, #84]	; 0x54
      htim->Instance->CCMR3 |= sConfig->OCFastMode << 8U;
 8002824:	68fb      	ldr	r3, [r7, #12]
 8002826:	681b      	ldr	r3, [r3, #0]
 8002828:	6d59      	ldr	r1, [r3, #84]	; 0x54
 800282a:	68bb      	ldr	r3, [r7, #8]
 800282c:	691b      	ldr	r3, [r3, #16]
 800282e:	021a      	lsls	r2, r3, #8
 8002830:	68fb      	ldr	r3, [r7, #12]
 8002832:	681b      	ldr	r3, [r3, #0]
 8002834:	430a      	orrs	r2, r1
 8002836:	655a      	str	r2, [r3, #84]	; 0x54
      break;
 8002838:	e004      	b.n	8002844 <HAL_TIM_PWM_ConfigChannel+0x1e0>
    }

    default:
      status = HAL_ERROR;
 800283a:	2317      	movs	r3, #23
 800283c:	18fb      	adds	r3, r7, r3
 800283e:	2201      	movs	r2, #1
 8002840:	701a      	strb	r2, [r3, #0]
      break;
 8002842:	46c0      	nop			; (mov r8, r8)
  }

  __HAL_UNLOCK(htim);
 8002844:	68fb      	ldr	r3, [r7, #12]
 8002846:	223c      	movs	r2, #60	; 0x3c
 8002848:	2100      	movs	r1, #0
 800284a:	5499      	strb	r1, [r3, r2]

  return status;
 800284c:	2317      	movs	r3, #23
 800284e:	18fb      	adds	r3, r7, r3
 8002850:	781b      	ldrb	r3, [r3, #0]
}
 8002852:	0018      	movs	r0, r3
 8002854:	46bd      	mov	sp, r7
 8002856:	b006      	add	sp, #24
 8002858:	bd80      	pop	{r7, pc}
 800285a:	46c0      	nop			; (mov r8, r8)
 800285c:	080044c0 	.word	0x080044c0
 8002860:	fffffbff 	.word	0xfffffbff

08002864 <HAL_TIM_ConfigClockSource>:
  * @param  sClockSourceConfig pointer to a TIM_ClockConfigTypeDef structure that
  *         contains the clock source information for the TIM peripheral.
  * @retval HAL status
  */
HAL_StatusTypeDef HAL_TIM_ConfigClockSource(TIM_HandleTypeDef *htim, const TIM_ClockConfigTypeDef *sClockSourceConfig)
{
 8002864:	b580      	push	{r7, lr}
 8002866:	b084      	sub	sp, #16
 8002868:	af00      	add	r7, sp, #0
 800286a:	6078      	str	r0, [r7, #4]
 800286c:	6039      	str	r1, [r7, #0]
  HAL_StatusTypeDef status = HAL_OK;
 800286e:	230f      	movs	r3, #15
 8002870:	18fb      	adds	r3, r7, r3
 8002872:	2200      	movs	r2, #0
 8002874:	701a      	strb	r2, [r3, #0]
  uint32_t tmpsmcr;

  /* Process Locked */
  __HAL_LOCK(htim);
 8002876:	687b      	ldr	r3, [r7, #4]
 8002878:	223c      	movs	r2, #60	; 0x3c
 800287a:	5c9b      	ldrb	r3, [r3, r2]
 800287c:	2b01      	cmp	r3, #1
 800287e:	d101      	bne.n	8002884 <HAL_TIM_ConfigClockSource+0x20>
 8002880:	2302      	movs	r3, #2
 8002882:	e0bc      	b.n	80029fe <HAL_TIM_ConfigClockSource+0x19a>
 8002884:	687b      	ldr	r3, [r7, #4]
 8002886:	223c      	movs	r2, #60	; 0x3c
 8002888:	2101      	movs	r1, #1
 800288a:	5499      	strb	r1, [r3, r2]

  htim->State = HAL_TIM_STATE_BUSY;
 800288c:	687b      	ldr	r3, [r7, #4]
 800288e:	223d      	movs	r2, #61	; 0x3d
 8002890:	2102      	movs	r1, #2
 8002892:	5499      	strb	r1, [r3, r2]

  /* Check the parameters */
  assert_param(IS_TIM_CLOCKSOURCE(sClockSourceConfig->ClockSource));

  /* Reset the SMS, TS, ECE, ETPS and ETRF bits */
  tmpsmcr = htim->Instance->SMCR;
 8002894:	687b      	ldr	r3, [r7, #4]
 8002896:	681b      	ldr	r3, [r3, #0]
 8002898:	689b      	ldr	r3, [r3, #8]
 800289a:	60bb      	str	r3, [r7, #8]
  tmpsmcr &= ~(TIM_SMCR_SMS | TIM_SMCR_TS);
 800289c:	68bb      	ldr	r3, [r7, #8]
 800289e:	4a5a      	ldr	r2, [pc, #360]	; (8002a08 <HAL_TIM_ConfigClockSource+0x1a4>)
 80028a0:	4013      	ands	r3, r2
 80028a2:	60bb      	str	r3, [r7, #8]
  tmpsmcr &= ~(TIM_SMCR_ETF | TIM_SMCR_ETPS | TIM_SMCR_ECE | TIM_SMCR_ETP);
 80028a4:	68bb      	ldr	r3, [r7, #8]
 80028a6:	4a59      	ldr	r2, [pc, #356]	; (8002a0c <HAL_TIM_ConfigClockSource+0x1a8>)
 80028a8:	4013      	ands	r3, r2
 80028aa:	60bb      	str	r3, [r7, #8]
  htim->Instance->SMCR = tmpsmcr;
 80028ac:	687b      	ldr	r3, [r7, #4]
 80028ae:	681b      	ldr	r3, [r3, #0]
 80028b0:	68ba      	ldr	r2, [r7, #8]
 80028b2:	609a      	str	r2, [r3, #8]

  switch (sClockSourceConfig->ClockSource)
 80028b4:	683b      	ldr	r3, [r7, #0]
 80028b6:	681b      	ldr	r3, [r3, #0]
 80028b8:	2280      	movs	r2, #128	; 0x80
 80028ba:	0192      	lsls	r2, r2, #6
 80028bc:	4293      	cmp	r3, r2
 80028be:	d040      	beq.n	8002942 <HAL_TIM_ConfigClockSource+0xde>
 80028c0:	2280      	movs	r2, #128	; 0x80
 80028c2:	0192      	lsls	r2, r2, #6
 80028c4:	4293      	cmp	r3, r2
 80028c6:	d900      	bls.n	80028ca <HAL_TIM_ConfigClockSource+0x66>
 80028c8:	e088      	b.n	80029dc <HAL_TIM_ConfigClockSource+0x178>
 80028ca:	2280      	movs	r2, #128	; 0x80
 80028cc:	0152      	lsls	r2, r2, #5
 80028ce:	4293      	cmp	r3, r2
 80028d0:	d100      	bne.n	80028d4 <HAL_TIM_ConfigClockSource+0x70>
 80028d2:	e088      	b.n	80029e6 <HAL_TIM_ConfigClockSource+0x182>
 80028d4:	2280      	movs	r2, #128	; 0x80
 80028d6:	0152      	lsls	r2, r2, #5
 80028d8:	4293      	cmp	r3, r2
 80028da:	d900      	bls.n	80028de <HAL_TIM_ConfigClockSource+0x7a>
 80028dc:	e07e      	b.n	80029dc <HAL_TIM_ConfigClockSource+0x178>
 80028de:	2b70      	cmp	r3, #112	; 0x70
 80028e0:	d018      	beq.n	8002914 <HAL_TIM_ConfigClockSource+0xb0>
 80028e2:	d900      	bls.n	80028e6 <HAL_TIM_ConfigClockSource+0x82>
 80028e4:	e07a      	b.n	80029dc <HAL_TIM_ConfigClockSource+0x178>
 80028e6:	2b60      	cmp	r3, #96	; 0x60
 80028e8:	d04f      	beq.n	800298a <HAL_TIM_ConfigClockSource+0x126>
 80028ea:	d900      	bls.n	80028ee <HAL_TIM_ConfigClockSource+0x8a>
 80028ec:	e076      	b.n	80029dc <HAL_TIM_ConfigClockSource+0x178>
 80028ee:	2b50      	cmp	r3, #80	; 0x50
 80028f0:	d03b      	beq.n	800296a <HAL_TIM_ConfigClockSource+0x106>
 80028f2:	d900      	bls.n	80028f6 <HAL_TIM_ConfigClockSource+0x92>
 80028f4:	e072      	b.n	80029dc <HAL_TIM_ConfigClockSource+0x178>
 80028f6:	2b40      	cmp	r3, #64	; 0x40
 80028f8:	d057      	beq.n	80029aa <HAL_TIM_ConfigClockSource+0x146>
 80028fa:	d900      	bls.n	80028fe <HAL_TIM_ConfigClockSource+0x9a>
 80028fc:	e06e      	b.n	80029dc <HAL_TIM_ConfigClockSource+0x178>
 80028fe:	2b30      	cmp	r3, #48	; 0x30
 8002900:	d063      	beq.n	80029ca <HAL_TIM_ConfigClockSource+0x166>
 8002902:	d86b      	bhi.n	80029dc <HAL_TIM_ConfigClockSource+0x178>
 8002904:	2b20      	cmp	r3, #32
 8002906:	d060      	beq.n	80029ca <HAL_TIM_ConfigClockSource+0x166>
 8002908:	d868      	bhi.n	80029dc <HAL_TIM_ConfigClockSource+0x178>
 800290a:	2b00      	cmp	r3, #0
 800290c:	d05d      	beq.n	80029ca <HAL_TIM_ConfigClockSource+0x166>
 800290e:	2b10      	cmp	r3, #16
 8002910:	d05b      	beq.n	80029ca <HAL_TIM_ConfigClockSource+0x166>
 8002912:	e063      	b.n	80029dc <HAL_TIM_ConfigClockSource+0x178>
      assert_param(IS_TIM_CLOCKPRESCALER(sClockSourceConfig->ClockPrescaler));
      assert_param(IS_TIM_CLOCKPOLARITY(sClockSourceConfig->ClockPolarity));
      assert_param(IS_TIM_CLOCKFILTER(sClockSourceConfig->ClockFilter));

      /* Configure the ETR Clock source */
      TIM_ETR_SetConfig(htim->Instance,
 8002914:	687b      	ldr	r3, [r7, #4]
 8002916:	6818      	ldr	r0, [r3, #0]
                        sClockSourceConfig->ClockPrescaler,
 8002918:	683b      	ldr	r3, [r7, #0]
 800291a:	6899      	ldr	r1, [r3, #8]
                        sClockSourceConfig->ClockPolarity,
 800291c:	683b      	ldr	r3, [r7, #0]
 800291e:	685a      	ldr	r2, [r3, #4]
                        sClockSourceConfig->ClockFilter);
 8002920:	683b      	ldr	r3, [r7, #0]
 8002922:	68db      	ldr	r3, [r3, #12]
      TIM_ETR_SetConfig(htim->Instance,
 8002924:	f000 fc4c 	bl	80031c0 <TIM_ETR_SetConfig>

      /* Select the External clock mode1 and the ETRF trigger */
      tmpsmcr = htim->Instance->SMCR;
 8002928:	687b      	ldr	r3, [r7, #4]
 800292a:	681b      	ldr	r3, [r3, #0]
 800292c:	689b      	ldr	r3, [r3, #8]
 800292e:	60bb      	str	r3, [r7, #8]
      tmpsmcr |= (TIM_SLAVEMODE_EXTERNAL1 | TIM_CLOCKSOURCE_ETRMODE1);
 8002930:	68bb      	ldr	r3, [r7, #8]
 8002932:	2277      	movs	r2, #119	; 0x77
 8002934:	4313      	orrs	r3, r2
 8002936:	60bb      	str	r3, [r7, #8]
      /* Write to TIMx SMCR */
      htim->Instance->SMCR = tmpsmcr;
 8002938:	687b      	ldr	r3, [r7, #4]
 800293a:	681b      	ldr	r3, [r3, #0]
 800293c:	68ba      	ldr	r2, [r7, #8]
 800293e:	609a      	str	r2, [r3, #8]
      break;
 8002940:	e052      	b.n	80029e8 <HAL_TIM_ConfigClockSource+0x184>
      assert_param(IS_TIM_CLOCKPRESCALER(sClockSourceConfig->ClockPrescaler));
      assert_param(IS_TIM_CLOCKPOLARITY(sClockSourceConfig->ClockPolarity));
      assert_param(IS_TIM_CLOCKFILTER(sClockSourceConfig->ClockFilter));

      /* Configure the ETR Clock source */
      TIM_ETR_SetConfig(htim->Instance,
 8002942:	687b      	ldr	r3, [r7, #4]
 8002944:	6818      	ldr	r0, [r3, #0]
                        sClockSourceConfig->ClockPrescaler,
 8002946:	683b      	ldr	r3, [r7, #0]
 8002948:	6899      	ldr	r1, [r3, #8]
                        sClockSourceConfig->ClockPolarity,
 800294a:	683b      	ldr	r3, [r7, #0]
 800294c:	685a      	ldr	r2, [r3, #4]
                        sClockSourceConfig->ClockFilter);
 800294e:	683b      	ldr	r3, [r7, #0]
 8002950:	68db      	ldr	r3, [r3, #12]
      TIM_ETR_SetConfig(htim->Instance,
 8002952:	f000 fc35 	bl	80031c0 <TIM_ETR_SetConfig>
      /* Enable the External clock mode2 */
      htim->Instance->SMCR |= TIM_SMCR_ECE;
 8002956:	687b      	ldr	r3, [r7, #4]
 8002958:	681b      	ldr	r3, [r3, #0]
 800295a:	689a      	ldr	r2, [r3, #8]
 800295c:	687b      	ldr	r3, [r7, #4]
 800295e:	681b      	ldr	r3, [r3, #0]
 8002960:	2180      	movs	r1, #128	; 0x80
 8002962:	01c9      	lsls	r1, r1, #7
 8002964:	430a      	orrs	r2, r1
 8002966:	609a      	str	r2, [r3, #8]
      break;
 8002968:	e03e      	b.n	80029e8 <HAL_TIM_ConfigClockSource+0x184>

      /* Check TI1 input conditioning related parameters */
      assert_param(IS_TIM_CLOCKPOLARITY(sClockSourceConfig->ClockPolarity));
      assert_param(IS_TIM_CLOCKFILTER(sClockSourceConfig->ClockFilter));

      TIM_TI1_ConfigInputStage(htim->Instance,
 800296a:	687b      	ldr	r3, [r7, #4]
 800296c:	6818      	ldr	r0, [r3, #0]
                               sClockSourceConfig->ClockPolarity,
 800296e:	683b      	ldr	r3, [r7, #0]
 8002970:	6859      	ldr	r1, [r3, #4]
                               sClockSourceConfig->ClockFilter);
 8002972:	683b      	ldr	r3, [r7, #0]
 8002974:	68db      	ldr	r3, [r3, #12]
      TIM_TI1_ConfigInputStage(htim->Instance,
 8002976:	001a      	movs	r2, r3
 8002978:	f000 fba6 	bl	80030c8 <TIM_TI1_ConfigInputStage>
      TIM_ITRx_SetConfig(htim->Instance, TIM_CLOCKSOURCE_TI1);
 800297c:	687b      	ldr	r3, [r7, #4]
 800297e:	681b      	ldr	r3, [r3, #0]
 8002980:	2150      	movs	r1, #80	; 0x50
 8002982:	0018      	movs	r0, r3
 8002984:	f000 fc00 	bl	8003188 <TIM_ITRx_SetConfig>
      break;
 8002988:	e02e      	b.n	80029e8 <HAL_TIM_ConfigClockSource+0x184>

      /* Check TI2 input conditioning related parameters */
      assert_param(IS_TIM_CLOCKPOLARITY(sClockSourceConfig->ClockPolarity));
      assert_param(IS_TIM_CLOCKFILTER(sClockSourceConfig->ClockFilter));

      TIM_TI2_ConfigInputStage(htim->Instance,
 800298a:	687b      	ldr	r3, [r7, #4]
 800298c:	6818      	ldr	r0, [r3, #0]
                               sClockSourceConfig->ClockPolarity,
 800298e:	683b      	ldr	r3, [r7, #0]
 8002990:	6859      	ldr	r1, [r3, #4]
                               sClockSourceConfig->ClockFilter);
 8002992:	683b      	ldr	r3, [r7, #0]
 8002994:	68db      	ldr	r3, [r3, #12]
      TIM_TI2_ConfigInputStage(htim->Instance,
 8002996:	001a      	movs	r2, r3
 8002998:	f000 fbc4 	bl	8003124 <TIM_TI2_ConfigInputStage>
      TIM_ITRx_SetConfig(htim->Instance, TIM_CLOCKSOURCE_TI2);
 800299c:	687b      	ldr	r3, [r7, #4]
 800299e:	681b      	ldr	r3, [r3, #0]
 80029a0:	2160      	movs	r1, #96	; 0x60
 80029a2:	0018      	movs	r0, r3
 80029a4:	f000 fbf0 	bl	8003188 <TIM_ITRx_SetConfig>
      break;
 80029a8:	e01e      	b.n	80029e8 <HAL_TIM_ConfigClockSource+0x184>

      /* Check TI1 input conditioning related parameters */
      assert_param(IS_TIM_CLOCKPOLARITY(sClockSourceConfig->ClockPolarity));
      assert_param(IS_TIM_CLOCKFILTER(sClockSourceConfig->ClockFilter));

      TIM_TI1_ConfigInputStage(htim->Instance,
 80029aa:	687b      	ldr	r3, [r7, #4]
 80029ac:	6818      	ldr	r0, [r3, #0]
                               sClockSourceConfig->ClockPolarity,
 80029ae:	683b      	ldr	r3, [r7, #0]
 80029b0:	6859      	ldr	r1, [r3, #4]
                               sClockSourceConfig->ClockFilter);
 80029b2:	683b      	ldr	r3, [r7, #0]
 80029b4:	68db      	ldr	r3, [r3, #12]
      TIM_TI1_ConfigInputStage(htim->Instance,
 80029b6:	001a      	movs	r2, r3
 80029b8:	f000 fb86 	bl	80030c8 <TIM_TI1_ConfigInputStage>
      TIM_ITRx_SetConfig(htim->Instance, TIM_CLOCKSOURCE_TI1ED);
 80029bc:	687b      	ldr	r3, [r7, #4]
 80029be:	681b      	ldr	r3, [r3, #0]
 80029c0:	2140      	movs	r1, #64	; 0x40
 80029c2:	0018      	movs	r0, r3
 80029c4:	f000 fbe0 	bl	8003188 <TIM_ITRx_SetConfig>
      break;
 80029c8:	e00e      	b.n	80029e8 <HAL_TIM_ConfigClockSource+0x184>
    case TIM_CLOCKSOURCE_ITR3:
    {
      /* Check whether or not the timer instance supports internal trigger input */
      assert_param(IS_TIM_CLOCKSOURCE_ITRX_INSTANCE(htim->Instance));

      TIM_ITRx_SetConfig(htim->Instance, sClockSourceConfig->ClockSource);
 80029ca:	687b      	ldr	r3, [r7, #4]
 80029cc:	681a      	ldr	r2, [r3, #0]
 80029ce:	683b      	ldr	r3, [r7, #0]
 80029d0:	681b      	ldr	r3, [r3, #0]
 80029d2:	0019      	movs	r1, r3
 80029d4:	0010      	movs	r0, r2
 80029d6:	f000 fbd7 	bl	8003188 <TIM_ITRx_SetConfig>
      break;
 80029da:	e005      	b.n	80029e8 <HAL_TIM_ConfigClockSource+0x184>
    }

    default:
      status = HAL_ERROR;
 80029dc:	230f      	movs	r3, #15
 80029de:	18fb      	adds	r3, r7, r3
 80029e0:	2201      	movs	r2, #1
 80029e2:	701a      	strb	r2, [r3, #0]
      break;
 80029e4:	e000      	b.n	80029e8 <HAL_TIM_ConfigClockSource+0x184>
      break;
 80029e6:	46c0      	nop			; (mov r8, r8)
  }
  htim->State = HAL_TIM_STATE_READY;
 80029e8:	687b      	ldr	r3, [r7, #4]
 80029ea:	223d      	movs	r2, #61	; 0x3d
 80029ec:	2101      	movs	r1, #1
 80029ee:	5499      	strb	r1, [r3, r2]

  __HAL_UNLOCK(htim);
 80029f0:	687b      	ldr	r3, [r7, #4]
 80029f2:	223c      	movs	r2, #60	; 0x3c
 80029f4:	2100      	movs	r1, #0
 80029f6:	5499      	strb	r1, [r3, r2]

  return status;
 80029f8:	230f      	movs	r3, #15
 80029fa:	18fb      	adds	r3, r7, r3
 80029fc:	781b      	ldrb	r3, [r3, #0]
}
 80029fe:	0018      	movs	r0, r3
 8002a00:	46bd      	mov	sp, r7
 8002a02:	b004      	add	sp, #16
 8002a04:	bd80      	pop	{r7, pc}
 8002a06:	46c0      	nop			; (mov r8, r8)
 8002a08:	ffceff88 	.word	0xffceff88
 8002a0c:	ffff00ff 	.word	0xffff00ff

08002a10 <TIM_Base_SetConfig>:
  * @param  TIMx TIM peripheral
  * @param  Structure TIM Base configuration structure
  * @retval None
  */
void TIM_Base_SetConfig(TIM_TypeDef *TIMx, const TIM_Base_InitTypeDef *Structure)
{
 8002a10:	b580      	push	{r7, lr}
 8002a12:	b084      	sub	sp, #16
 8002a14:	af00      	add	r7, sp, #0
 8002a16:	6078      	str	r0, [r7, #4]
 8002a18:	6039      	str	r1, [r7, #0]
  uint32_t tmpcr1;
  tmpcr1 = TIMx->CR1;
 8002a1a:	687b      	ldr	r3, [r7, #4]
 8002a1c:	681b      	ldr	r3, [r3, #0]
 8002a1e:	60fb      	str	r3, [r7, #12]

  /* Set TIM Time Base Unit parameters ---------------------------------------*/
  if (IS_TIM_COUNTER_MODE_SELECT_INSTANCE(TIMx))
 8002a20:	687b      	ldr	r3, [r7, #4]
 8002a22:	4a3f      	ldr	r2, [pc, #252]	; (8002b20 <TIM_Base_SetConfig+0x110>)
 8002a24:	4293      	cmp	r3, r2
 8002a26:	d00c      	beq.n	8002a42 <TIM_Base_SetConfig+0x32>
 8002a28:	687a      	ldr	r2, [r7, #4]
 8002a2a:	2380      	movs	r3, #128	; 0x80
 8002a2c:	05db      	lsls	r3, r3, #23
 8002a2e:	429a      	cmp	r2, r3
 8002a30:	d007      	beq.n	8002a42 <TIM_Base_SetConfig+0x32>
 8002a32:	687b      	ldr	r3, [r7, #4]
 8002a34:	4a3b      	ldr	r2, [pc, #236]	; (8002b24 <TIM_Base_SetConfig+0x114>)
 8002a36:	4293      	cmp	r3, r2
 8002a38:	d003      	beq.n	8002a42 <TIM_Base_SetConfig+0x32>
 8002a3a:	687b      	ldr	r3, [r7, #4]
 8002a3c:	4a3a      	ldr	r2, [pc, #232]	; (8002b28 <TIM_Base_SetConfig+0x118>)
 8002a3e:	4293      	cmp	r3, r2
 8002a40:	d108      	bne.n	8002a54 <TIM_Base_SetConfig+0x44>
  {
    /* Select the Counter Mode */
    tmpcr1 &= ~(TIM_CR1_DIR | TIM_CR1_CMS);
 8002a42:	68fb      	ldr	r3, [r7, #12]
 8002a44:	2270      	movs	r2, #112	; 0x70
 8002a46:	4393      	bics	r3, r2
 8002a48:	60fb      	str	r3, [r7, #12]
    tmpcr1 |= Structure->CounterMode;
 8002a4a:	683b      	ldr	r3, [r7, #0]
 8002a4c:	685b      	ldr	r3, [r3, #4]
 8002a4e:	68fa      	ldr	r2, [r7, #12]
 8002a50:	4313      	orrs	r3, r2
 8002a52:	60fb      	str	r3, [r7, #12]
  }

  if (IS_TIM_CLOCK_DIVISION_INSTANCE(TIMx))
 8002a54:	687b      	ldr	r3, [r7, #4]
 8002a56:	4a32      	ldr	r2, [pc, #200]	; (8002b20 <TIM_Base_SetConfig+0x110>)
 8002a58:	4293      	cmp	r3, r2
 8002a5a:	d01c      	beq.n	8002a96 <TIM_Base_SetConfig+0x86>
 8002a5c:	687a      	ldr	r2, [r7, #4]
 8002a5e:	2380      	movs	r3, #128	; 0x80
 8002a60:	05db      	lsls	r3, r3, #23
 8002a62:	429a      	cmp	r2, r3
 8002a64:	d017      	beq.n	8002a96 <TIM_Base_SetConfig+0x86>
 8002a66:	687b      	ldr	r3, [r7, #4]
 8002a68:	4a2e      	ldr	r2, [pc, #184]	; (8002b24 <TIM_Base_SetConfig+0x114>)
 8002a6a:	4293      	cmp	r3, r2
 8002a6c:	d013      	beq.n	8002a96 <TIM_Base_SetConfig+0x86>
 8002a6e:	687b      	ldr	r3, [r7, #4]
 8002a70:	4a2d      	ldr	r2, [pc, #180]	; (8002b28 <TIM_Base_SetConfig+0x118>)
 8002a72:	4293      	cmp	r3, r2
 8002a74:	d00f      	beq.n	8002a96 <TIM_Base_SetConfig+0x86>
 8002a76:	687b      	ldr	r3, [r7, #4]
 8002a78:	4a2c      	ldr	r2, [pc, #176]	; (8002b2c <TIM_Base_SetConfig+0x11c>)
 8002a7a:	4293      	cmp	r3, r2
 8002a7c:	d00b      	beq.n	8002a96 <TIM_Base_SetConfig+0x86>
 8002a7e:	687b      	ldr	r3, [r7, #4]
 8002a80:	4a2b      	ldr	r2, [pc, #172]	; (8002b30 <TIM_Base_SetConfig+0x120>)
 8002a82:	4293      	cmp	r3, r2
 8002a84:	d007      	beq.n	8002a96 <TIM_Base_SetConfig+0x86>
 8002a86:	687b      	ldr	r3, [r7, #4]
 8002a88:	4a2a      	ldr	r2, [pc, #168]	; (8002b34 <TIM_Base_SetConfig+0x124>)
 8002a8a:	4293      	cmp	r3, r2
 8002a8c:	d003      	beq.n	8002a96 <TIM_Base_SetConfig+0x86>
 8002a8e:	687b      	ldr	r3, [r7, #4]
 8002a90:	4a29      	ldr	r2, [pc, #164]	; (8002b38 <TIM_Base_SetConfig+0x128>)
 8002a92:	4293      	cmp	r3, r2
 8002a94:	d108      	bne.n	8002aa8 <TIM_Base_SetConfig+0x98>
  {
    /* Set the clock division */
    tmpcr1 &= ~TIM_CR1_CKD;
 8002a96:	68fb      	ldr	r3, [r7, #12]
 8002a98:	4a28      	ldr	r2, [pc, #160]	; (8002b3c <TIM_Base_SetConfig+0x12c>)
 8002a9a:	4013      	ands	r3, r2
 8002a9c:	60fb      	str	r3, [r7, #12]
    tmpcr1 |= (uint32_t)Structure->ClockDivision;
 8002a9e:	683b      	ldr	r3, [r7, #0]
 8002aa0:	68db      	ldr	r3, [r3, #12]
 8002aa2:	68fa      	ldr	r2, [r7, #12]
 8002aa4:	4313      	orrs	r3, r2
 8002aa6:	60fb      	str	r3, [r7, #12]
  }

  /* Set the auto-reload preload */
  MODIFY_REG(tmpcr1, TIM_CR1_ARPE, Structure->AutoReloadPreload);
 8002aa8:	68fb      	ldr	r3, [r7, #12]
 8002aaa:	2280      	movs	r2, #128	; 0x80
 8002aac:	4393      	bics	r3, r2
 8002aae:	001a      	movs	r2, r3
 8002ab0:	683b      	ldr	r3, [r7, #0]
 8002ab2:	695b      	ldr	r3, [r3, #20]
 8002ab4:	4313      	orrs	r3, r2
 8002ab6:	60fb      	str	r3, [r7, #12]

  TIMx->CR1 = tmpcr1;
 8002ab8:	687b      	ldr	r3, [r7, #4]
 8002aba:	68fa      	ldr	r2, [r7, #12]
 8002abc:	601a      	str	r2, [r3, #0]

  /* Set the Autoreload value */
  TIMx->ARR = (uint32_t)Structure->Period ;
 8002abe:	683b      	ldr	r3, [r7, #0]
 8002ac0:	689a      	ldr	r2, [r3, #8]
 8002ac2:	687b      	ldr	r3, [r7, #4]
 8002ac4:	62da      	str	r2, [r3, #44]	; 0x2c

  /* Set the Prescaler value */
  TIMx->PSC = Structure->Prescaler;
 8002ac6:	683b      	ldr	r3, [r7, #0]
 8002ac8:	681a      	ldr	r2, [r3, #0]
 8002aca:	687b      	ldr	r3, [r7, #4]
 8002acc:	629a      	str	r2, [r3, #40]	; 0x28

  if (IS_TIM_REPETITION_COUNTER_INSTANCE(TIMx))
 8002ace:	687b      	ldr	r3, [r7, #4]
 8002ad0:	4a13      	ldr	r2, [pc, #76]	; (8002b20 <TIM_Base_SetConfig+0x110>)
 8002ad2:	4293      	cmp	r3, r2
 8002ad4:	d00b      	beq.n	8002aee <TIM_Base_SetConfig+0xde>
 8002ad6:	687b      	ldr	r3, [r7, #4]
 8002ad8:	4a15      	ldr	r2, [pc, #84]	; (8002b30 <TIM_Base_SetConfig+0x120>)
 8002ada:	4293      	cmp	r3, r2
 8002adc:	d007      	beq.n	8002aee <TIM_Base_SetConfig+0xde>
 8002ade:	687b      	ldr	r3, [r7, #4]
 8002ae0:	4a14      	ldr	r2, [pc, #80]	; (8002b34 <TIM_Base_SetConfig+0x124>)
 8002ae2:	4293      	cmp	r3, r2
 8002ae4:	d003      	beq.n	8002aee <TIM_Base_SetConfig+0xde>
 8002ae6:	687b      	ldr	r3, [r7, #4]
 8002ae8:	4a13      	ldr	r2, [pc, #76]	; (8002b38 <TIM_Base_SetConfig+0x128>)
 8002aea:	4293      	cmp	r3, r2
 8002aec:	d103      	bne.n	8002af6 <TIM_Base_SetConfig+0xe6>
  {
    /* Set the Repetition Counter value */
    TIMx->RCR = Structure->RepetitionCounter;
 8002aee:	683b      	ldr	r3, [r7, #0]
 8002af0:	691a      	ldr	r2, [r3, #16]
 8002af2:	687b      	ldr	r3, [r7, #4]
 8002af4:	631a      	str	r2, [r3, #48]	; 0x30
  }

  /* Generate an update event to reload the Prescaler
     and the repetition counter (only for advanced timer) value immediately */
  TIMx->EGR = TIM_EGR_UG;
 8002af6:	687b      	ldr	r3, [r7, #4]
 8002af8:	2201      	movs	r2, #1
 8002afa:	615a      	str	r2, [r3, #20]

  /* Check if the update flag is set after the Update Generation, if so clear the UIF flag */
  if (HAL_IS_BIT_SET(TIMx->SR, TIM_FLAG_UPDATE))
 8002afc:	687b      	ldr	r3, [r7, #4]
 8002afe:	691b      	ldr	r3, [r3, #16]
 8002b00:	2201      	movs	r2, #1
 8002b02:	4013      	ands	r3, r2
 8002b04:	2b01      	cmp	r3, #1
 8002b06:	d106      	bne.n	8002b16 <TIM_Base_SetConfig+0x106>
  {
    /* Clear the update flag */
    CLEAR_BIT(TIMx->SR, TIM_FLAG_UPDATE);
 8002b08:	687b      	ldr	r3, [r7, #4]
 8002b0a:	691b      	ldr	r3, [r3, #16]
 8002b0c:	2201      	movs	r2, #1
 8002b0e:	4393      	bics	r3, r2
 8002b10:	001a      	movs	r2, r3
 8002b12:	687b      	ldr	r3, [r7, #4]
 8002b14:	611a      	str	r2, [r3, #16]
  }
}
 8002b16:	46c0      	nop			; (mov r8, r8)
 8002b18:	46bd      	mov	sp, r7
 8002b1a:	b004      	add	sp, #16
 8002b1c:	bd80      	pop	{r7, pc}
 8002b1e:	46c0      	nop			; (mov r8, r8)
 8002b20:	40012c00 	.word	0x40012c00
 8002b24:	40000400 	.word	0x40000400
 8002b28:	40000800 	.word	0x40000800
 8002b2c:	40002000 	.word	0x40002000
 8002b30:	40014000 	.word	0x40014000
 8002b34:	40014400 	.word	0x40014400
 8002b38:	40014800 	.word	0x40014800
 8002b3c:	fffffcff 	.word	0xfffffcff

08002b40 <TIM_OC1_SetConfig>:
  * @param  TIMx to select the TIM peripheral
  * @param  OC_Config The output configuration structure
  * @retval None
  */
static void TIM_OC1_SetConfig(TIM_TypeDef *TIMx, const TIM_OC_InitTypeDef *OC_Config)
{
 8002b40:	b580      	push	{r7, lr}
 8002b42:	b086      	sub	sp, #24
 8002b44:	af00      	add	r7, sp, #0
 8002b46:	6078      	str	r0, [r7, #4]
 8002b48:	6039      	str	r1, [r7, #0]
  uint32_t tmpccmrx;
  uint32_t tmpccer;
  uint32_t tmpcr2;

  /* Get the TIMx CCER register value */
  tmpccer = TIMx->CCER;
 8002b4a:	687b      	ldr	r3, [r7, #4]
 8002b4c:	6a1b      	ldr	r3, [r3, #32]
 8002b4e:	617b      	str	r3, [r7, #20]

  /* Disable the Channel 1: Reset the CC1E Bit */
  TIMx->CCER &= ~TIM_CCER_CC1E;
 8002b50:	687b      	ldr	r3, [r7, #4]
 8002b52:	6a1b      	ldr	r3, [r3, #32]
 8002b54:	2201      	movs	r2, #1
 8002b56:	4393      	bics	r3, r2
 8002b58:	001a      	movs	r2, r3
 8002b5a:	687b      	ldr	r3, [r7, #4]
 8002b5c:	621a      	str	r2, [r3, #32]

  /* Get the TIMx CR2 register value */
  tmpcr2 =  TIMx->CR2;
 8002b5e:	687b      	ldr	r3, [r7, #4]
 8002b60:	685b      	ldr	r3, [r3, #4]
 8002b62:	613b      	str	r3, [r7, #16]

  /* Get the TIMx CCMR1 register value */
  tmpccmrx = TIMx->CCMR1;
 8002b64:	687b      	ldr	r3, [r7, #4]
 8002b66:	699b      	ldr	r3, [r3, #24]
 8002b68:	60fb      	str	r3, [r7, #12]

  /* Reset the Output Compare Mode Bits */
  tmpccmrx &= ~TIM_CCMR1_OC1M;
 8002b6a:	68fb      	ldr	r3, [r7, #12]
 8002b6c:	4a32      	ldr	r2, [pc, #200]	; (8002c38 <TIM_OC1_SetConfig+0xf8>)
 8002b6e:	4013      	ands	r3, r2
 8002b70:	60fb      	str	r3, [r7, #12]
  tmpccmrx &= ~TIM_CCMR1_CC1S;
 8002b72:	68fb      	ldr	r3, [r7, #12]
 8002b74:	2203      	movs	r2, #3
 8002b76:	4393      	bics	r3, r2
 8002b78:	60fb      	str	r3, [r7, #12]
  /* Select the Output Compare Mode */
  tmpccmrx |= OC_Config->OCMode;
 8002b7a:	683b      	ldr	r3, [r7, #0]
 8002b7c:	681b      	ldr	r3, [r3, #0]
 8002b7e:	68fa      	ldr	r2, [r7, #12]
 8002b80:	4313      	orrs	r3, r2
 8002b82:	60fb      	str	r3, [r7, #12]

  /* Reset the Output Polarity level */
  tmpccer &= ~TIM_CCER_CC1P;
 8002b84:	697b      	ldr	r3, [r7, #20]
 8002b86:	2202      	movs	r2, #2
 8002b88:	4393      	bics	r3, r2
 8002b8a:	617b      	str	r3, [r7, #20]
  /* Set the Output Compare Polarity */
  tmpccer |= OC_Config->OCPolarity;
 8002b8c:	683b      	ldr	r3, [r7, #0]
 8002b8e:	689b      	ldr	r3, [r3, #8]
 8002b90:	697a      	ldr	r2, [r7, #20]
 8002b92:	4313      	orrs	r3, r2
 8002b94:	617b      	str	r3, [r7, #20]

  if (IS_TIM_CCXN_INSTANCE(TIMx, TIM_CHANNEL_1))
 8002b96:	687b      	ldr	r3, [r7, #4]
 8002b98:	4a28      	ldr	r2, [pc, #160]	; (8002c3c <TIM_OC1_SetConfig+0xfc>)
 8002b9a:	4293      	cmp	r3, r2
 8002b9c:	d00b      	beq.n	8002bb6 <TIM_OC1_SetConfig+0x76>
 8002b9e:	687b      	ldr	r3, [r7, #4]
 8002ba0:	4a27      	ldr	r2, [pc, #156]	; (8002c40 <TIM_OC1_SetConfig+0x100>)
 8002ba2:	4293      	cmp	r3, r2
 8002ba4:	d007      	beq.n	8002bb6 <TIM_OC1_SetConfig+0x76>
 8002ba6:	687b      	ldr	r3, [r7, #4]
 8002ba8:	4a26      	ldr	r2, [pc, #152]	; (8002c44 <TIM_OC1_SetConfig+0x104>)
 8002baa:	4293      	cmp	r3, r2
 8002bac:	d003      	beq.n	8002bb6 <TIM_OC1_SetConfig+0x76>
 8002bae:	687b      	ldr	r3, [r7, #4]
 8002bb0:	4a25      	ldr	r2, [pc, #148]	; (8002c48 <TIM_OC1_SetConfig+0x108>)
 8002bb2:	4293      	cmp	r3, r2
 8002bb4:	d10c      	bne.n	8002bd0 <TIM_OC1_SetConfig+0x90>
  {
    /* Check parameters */
    assert_param(IS_TIM_OCN_POLARITY(OC_Config->OCNPolarity));

    /* Reset the Output N Polarity level */
    tmpccer &= ~TIM_CCER_CC1NP;
 8002bb6:	697b      	ldr	r3, [r7, #20]
 8002bb8:	2208      	movs	r2, #8
 8002bba:	4393      	bics	r3, r2
 8002bbc:	617b      	str	r3, [r7, #20]
    /* Set the Output N Polarity */
    tmpccer |= OC_Config->OCNPolarity;
 8002bbe:	683b      	ldr	r3, [r7, #0]
 8002bc0:	68db      	ldr	r3, [r3, #12]
 8002bc2:	697a      	ldr	r2, [r7, #20]
 8002bc4:	4313      	orrs	r3, r2
 8002bc6:	617b      	str	r3, [r7, #20]
    /* Reset the Output N State */
    tmpccer &= ~TIM_CCER_CC1NE;
 8002bc8:	697b      	ldr	r3, [r7, #20]
 8002bca:	2204      	movs	r2, #4
 8002bcc:	4393      	bics	r3, r2
 8002bce:	617b      	str	r3, [r7, #20]
  }

  if (IS_TIM_BREAK_INSTANCE(TIMx))
 8002bd0:	687b      	ldr	r3, [r7, #4]
 8002bd2:	4a1a      	ldr	r2, [pc, #104]	; (8002c3c <TIM_OC1_SetConfig+0xfc>)
 8002bd4:	4293      	cmp	r3, r2
 8002bd6:	d00b      	beq.n	8002bf0 <TIM_OC1_SetConfig+0xb0>
 8002bd8:	687b      	ldr	r3, [r7, #4]
 8002bda:	4a19      	ldr	r2, [pc, #100]	; (8002c40 <TIM_OC1_SetConfig+0x100>)
 8002bdc:	4293      	cmp	r3, r2
 8002bde:	d007      	beq.n	8002bf0 <TIM_OC1_SetConfig+0xb0>
 8002be0:	687b      	ldr	r3, [r7, #4]
 8002be2:	4a18      	ldr	r2, [pc, #96]	; (8002c44 <TIM_OC1_SetConfig+0x104>)
 8002be4:	4293      	cmp	r3, r2
 8002be6:	d003      	beq.n	8002bf0 <TIM_OC1_SetConfig+0xb0>
 8002be8:	687b      	ldr	r3, [r7, #4]
 8002bea:	4a17      	ldr	r2, [pc, #92]	; (8002c48 <TIM_OC1_SetConfig+0x108>)
 8002bec:	4293      	cmp	r3, r2
 8002bee:	d111      	bne.n	8002c14 <TIM_OC1_SetConfig+0xd4>
    /* Check parameters */
    assert_param(IS_TIM_OCNIDLE_STATE(OC_Config->OCNIdleState));
    assert_param(IS_TIM_OCIDLE_STATE(OC_Config->OCIdleState));

    /* Reset the Output Compare and Output Compare N IDLE State */
    tmpcr2 &= ~TIM_CR2_OIS1;
 8002bf0:	693b      	ldr	r3, [r7, #16]
 8002bf2:	4a16      	ldr	r2, [pc, #88]	; (8002c4c <TIM_OC1_SetConfig+0x10c>)
 8002bf4:	4013      	ands	r3, r2
 8002bf6:	613b      	str	r3, [r7, #16]
    tmpcr2 &= ~TIM_CR2_OIS1N;
 8002bf8:	693b      	ldr	r3, [r7, #16]
 8002bfa:	4a15      	ldr	r2, [pc, #84]	; (8002c50 <TIM_OC1_SetConfig+0x110>)
 8002bfc:	4013      	ands	r3, r2
 8002bfe:	613b      	str	r3, [r7, #16]
    /* Set the Output Idle state */
    tmpcr2 |= OC_Config->OCIdleState;
 8002c00:	683b      	ldr	r3, [r7, #0]
 8002c02:	695b      	ldr	r3, [r3, #20]
 8002c04:	693a      	ldr	r2, [r7, #16]
 8002c06:	4313      	orrs	r3, r2
 8002c08:	613b      	str	r3, [r7, #16]
    /* Set the Output N Idle state */
    tmpcr2 |= OC_Config->OCNIdleState;
 8002c0a:	683b      	ldr	r3, [r7, #0]
 8002c0c:	699b      	ldr	r3, [r3, #24]
 8002c0e:	693a      	ldr	r2, [r7, #16]
 8002c10:	4313      	orrs	r3, r2
 8002c12:	613b      	str	r3, [r7, #16]
  }

  /* Write to TIMx CR2 */
  TIMx->CR2 = tmpcr2;
 8002c14:	687b      	ldr	r3, [r7, #4]
 8002c16:	693a      	ldr	r2, [r7, #16]
 8002c18:	605a      	str	r2, [r3, #4]

  /* Write to TIMx CCMR1 */
  TIMx->CCMR1 = tmpccmrx;
 8002c1a:	687b      	ldr	r3, [r7, #4]
 8002c1c:	68fa      	ldr	r2, [r7, #12]
 8002c1e:	619a      	str	r2, [r3, #24]

  /* Set the Capture Compare Register value */
  TIMx->CCR1 = OC_Config->Pulse;
 8002c20:	683b      	ldr	r3, [r7, #0]
 8002c22:	685a      	ldr	r2, [r3, #4]
 8002c24:	687b      	ldr	r3, [r7, #4]
 8002c26:	635a      	str	r2, [r3, #52]	; 0x34

  /* Write to TIMx CCER */
  TIMx->CCER = tmpccer;
 8002c28:	687b      	ldr	r3, [r7, #4]
 8002c2a:	697a      	ldr	r2, [r7, #20]
 8002c2c:	621a      	str	r2, [r3, #32]
}
 8002c2e:	46c0      	nop			; (mov r8, r8)
 8002c30:	46bd      	mov	sp, r7
 8002c32:	b006      	add	sp, #24
 8002c34:	bd80      	pop	{r7, pc}
 8002c36:	46c0      	nop			; (mov r8, r8)
 8002c38:	fffeff8f 	.word	0xfffeff8f
 8002c3c:	40012c00 	.word	0x40012c00
 8002c40:	40014000 	.word	0x40014000
 8002c44:	40014400 	.word	0x40014400
 8002c48:	40014800 	.word	0x40014800
 8002c4c:	fffffeff 	.word	0xfffffeff
 8002c50:	fffffdff 	.word	0xfffffdff

08002c54 <TIM_OC2_SetConfig>:
  * @param  TIMx to select the TIM peripheral
  * @param  OC_Config The output configuration structure
  * @retval None
  */
void TIM_OC2_SetConfig(TIM_TypeDef *TIMx, const TIM_OC_InitTypeDef *OC_Config)
{
 8002c54:	b580      	push	{r7, lr}
 8002c56:	b086      	sub	sp, #24
 8002c58:	af00      	add	r7, sp, #0
 8002c5a:	6078      	str	r0, [r7, #4]
 8002c5c:	6039      	str	r1, [r7, #0]
  uint32_t tmpccmrx;
  uint32_t tmpccer;
  uint32_t tmpcr2;

  /* Get the TIMx CCER register value */
  tmpccer = TIMx->CCER;
 8002c5e:	687b      	ldr	r3, [r7, #4]
 8002c60:	6a1b      	ldr	r3, [r3, #32]
 8002c62:	617b      	str	r3, [r7, #20]

  /* Disable the Channel 2: Reset the CC2E Bit */
  TIMx->CCER &= ~TIM_CCER_CC2E;
 8002c64:	687b      	ldr	r3, [r7, #4]
 8002c66:	6a1b      	ldr	r3, [r3, #32]
 8002c68:	2210      	movs	r2, #16
 8002c6a:	4393      	bics	r3, r2
 8002c6c:	001a      	movs	r2, r3
 8002c6e:	687b      	ldr	r3, [r7, #4]
 8002c70:	621a      	str	r2, [r3, #32]

  /* Get the TIMx CR2 register value */
  tmpcr2 =  TIMx->CR2;
 8002c72:	687b      	ldr	r3, [r7, #4]
 8002c74:	685b      	ldr	r3, [r3, #4]
 8002c76:	613b      	str	r3, [r7, #16]

  /* Get the TIMx CCMR1 register value */
  tmpccmrx = TIMx->CCMR1;
 8002c78:	687b      	ldr	r3, [r7, #4]
 8002c7a:	699b      	ldr	r3, [r3, #24]
 8002c7c:	60fb      	str	r3, [r7, #12]

  /* Reset the Output Compare mode and Capture/Compare selection Bits */
  tmpccmrx &= ~TIM_CCMR1_OC2M;
 8002c7e:	68fb      	ldr	r3, [r7, #12]
 8002c80:	4a2e      	ldr	r2, [pc, #184]	; (8002d3c <TIM_OC2_SetConfig+0xe8>)
 8002c82:	4013      	ands	r3, r2
 8002c84:	60fb      	str	r3, [r7, #12]
  tmpccmrx &= ~TIM_CCMR1_CC2S;
 8002c86:	68fb      	ldr	r3, [r7, #12]
 8002c88:	4a2d      	ldr	r2, [pc, #180]	; (8002d40 <TIM_OC2_SetConfig+0xec>)
 8002c8a:	4013      	ands	r3, r2
 8002c8c:	60fb      	str	r3, [r7, #12]

  /* Select the Output Compare Mode */
  tmpccmrx |= (OC_Config->OCMode << 8U);
 8002c8e:	683b      	ldr	r3, [r7, #0]
 8002c90:	681b      	ldr	r3, [r3, #0]
 8002c92:	021b      	lsls	r3, r3, #8
 8002c94:	68fa      	ldr	r2, [r7, #12]
 8002c96:	4313      	orrs	r3, r2
 8002c98:	60fb      	str	r3, [r7, #12]

  /* Reset the Output Polarity level */
  tmpccer &= ~TIM_CCER_CC2P;
 8002c9a:	697b      	ldr	r3, [r7, #20]
 8002c9c:	2220      	movs	r2, #32
 8002c9e:	4393      	bics	r3, r2
 8002ca0:	617b      	str	r3, [r7, #20]
  /* Set the Output Compare Polarity */
  tmpccer |= (OC_Config->OCPolarity << 4U);
 8002ca2:	683b      	ldr	r3, [r7, #0]
 8002ca4:	689b      	ldr	r3, [r3, #8]
 8002ca6:	011b      	lsls	r3, r3, #4
 8002ca8:	697a      	ldr	r2, [r7, #20]
 8002caa:	4313      	orrs	r3, r2
 8002cac:	617b      	str	r3, [r7, #20]

  if (IS_TIM_CCXN_INSTANCE(TIMx, TIM_CHANNEL_2))
 8002cae:	687b      	ldr	r3, [r7, #4]
 8002cb0:	4a24      	ldr	r2, [pc, #144]	; (8002d44 <TIM_OC2_SetConfig+0xf0>)
 8002cb2:	4293      	cmp	r3, r2
 8002cb4:	d10d      	bne.n	8002cd2 <TIM_OC2_SetConfig+0x7e>
  {
    assert_param(IS_TIM_OCN_POLARITY(OC_Config->OCNPolarity));

    /* Reset the Output N Polarity level */
    tmpccer &= ~TIM_CCER_CC2NP;
 8002cb6:	697b      	ldr	r3, [r7, #20]
 8002cb8:	2280      	movs	r2, #128	; 0x80
 8002cba:	4393      	bics	r3, r2
 8002cbc:	617b      	str	r3, [r7, #20]
    /* Set the Output N Polarity */
    tmpccer |= (OC_Config->OCNPolarity << 4U);
 8002cbe:	683b      	ldr	r3, [r7, #0]
 8002cc0:	68db      	ldr	r3, [r3, #12]
 8002cc2:	011b      	lsls	r3, r3, #4
 8002cc4:	697a      	ldr	r2, [r7, #20]
 8002cc6:	4313      	orrs	r3, r2
 8002cc8:	617b      	str	r3, [r7, #20]
    /* Reset the Output N State */
    tmpccer &= ~TIM_CCER_CC2NE;
 8002cca:	697b      	ldr	r3, [r7, #20]
 8002ccc:	2240      	movs	r2, #64	; 0x40
 8002cce:	4393      	bics	r3, r2
 8002cd0:	617b      	str	r3, [r7, #20]
  }

  if (IS_TIM_BREAK_INSTANCE(TIMx))
 8002cd2:	687b      	ldr	r3, [r7, #4]
 8002cd4:	4a1b      	ldr	r2, [pc, #108]	; (8002d44 <TIM_OC2_SetConfig+0xf0>)
 8002cd6:	4293      	cmp	r3, r2
 8002cd8:	d00b      	beq.n	8002cf2 <TIM_OC2_SetConfig+0x9e>
 8002cda:	687b      	ldr	r3, [r7, #4]
 8002cdc:	4a1a      	ldr	r2, [pc, #104]	; (8002d48 <TIM_OC2_SetConfig+0xf4>)
 8002cde:	4293      	cmp	r3, r2
 8002ce0:	d007      	beq.n	8002cf2 <TIM_OC2_SetConfig+0x9e>
 8002ce2:	687b      	ldr	r3, [r7, #4]
 8002ce4:	4a19      	ldr	r2, [pc, #100]	; (8002d4c <TIM_OC2_SetConfig+0xf8>)
 8002ce6:	4293      	cmp	r3, r2
 8002ce8:	d003      	beq.n	8002cf2 <TIM_OC2_SetConfig+0x9e>
 8002cea:	687b      	ldr	r3, [r7, #4]
 8002cec:	4a18      	ldr	r2, [pc, #96]	; (8002d50 <TIM_OC2_SetConfig+0xfc>)
 8002cee:	4293      	cmp	r3, r2
 8002cf0:	d113      	bne.n	8002d1a <TIM_OC2_SetConfig+0xc6>
    /* Check parameters */
    assert_param(IS_TIM_OCNIDLE_STATE(OC_Config->OCNIdleState));
    assert_param(IS_TIM_OCIDLE_STATE(OC_Config->OCIdleState));

    /* Reset the Output Compare and Output Compare N IDLE State */
    tmpcr2 &= ~TIM_CR2_OIS2;
 8002cf2:	693b      	ldr	r3, [r7, #16]
 8002cf4:	4a17      	ldr	r2, [pc, #92]	; (8002d54 <TIM_OC2_SetConfig+0x100>)
 8002cf6:	4013      	ands	r3, r2
 8002cf8:	613b      	str	r3, [r7, #16]
    tmpcr2 &= ~TIM_CR2_OIS2N;
 8002cfa:	693b      	ldr	r3, [r7, #16]
 8002cfc:	4a16      	ldr	r2, [pc, #88]	; (8002d58 <TIM_OC2_SetConfig+0x104>)
 8002cfe:	4013      	ands	r3, r2
 8002d00:	613b      	str	r3, [r7, #16]
    /* Set the Output Idle state */
    tmpcr2 |= (OC_Config->OCIdleState << 2U);
 8002d02:	683b      	ldr	r3, [r7, #0]
 8002d04:	695b      	ldr	r3, [r3, #20]
 8002d06:	009b      	lsls	r3, r3, #2
 8002d08:	693a      	ldr	r2, [r7, #16]
 8002d0a:	4313      	orrs	r3, r2
 8002d0c:	613b      	str	r3, [r7, #16]
    /* Set the Output N Idle state */
    tmpcr2 |= (OC_Config->OCNIdleState << 2U);
 8002d0e:	683b      	ldr	r3, [r7, #0]
 8002d10:	699b      	ldr	r3, [r3, #24]
 8002d12:	009b      	lsls	r3, r3, #2
 8002d14:	693a      	ldr	r2, [r7, #16]
 8002d16:	4313      	orrs	r3, r2
 8002d18:	613b      	str	r3, [r7, #16]
  }

  /* Write to TIMx CR2 */
  TIMx->CR2 = tmpcr2;
 8002d1a:	687b      	ldr	r3, [r7, #4]
 8002d1c:	693a      	ldr	r2, [r7, #16]
 8002d1e:	605a      	str	r2, [r3, #4]

  /* Write to TIMx CCMR1 */
  TIMx->CCMR1 = tmpccmrx;
 8002d20:	687b      	ldr	r3, [r7, #4]
 8002d22:	68fa      	ldr	r2, [r7, #12]
 8002d24:	619a      	str	r2, [r3, #24]

  /* Set the Capture Compare Register value */
  TIMx->CCR2 = OC_Config->Pulse;
 8002d26:	683b      	ldr	r3, [r7, #0]
 8002d28:	685a      	ldr	r2, [r3, #4]
 8002d2a:	687b      	ldr	r3, [r7, #4]
 8002d2c:	639a      	str	r2, [r3, #56]	; 0x38

  /* Write to TIMx CCER */
  TIMx->CCER = tmpccer;
 8002d2e:	687b      	ldr	r3, [r7, #4]
 8002d30:	697a      	ldr	r2, [r7, #20]
 8002d32:	621a      	str	r2, [r3, #32]
}
 8002d34:	46c0      	nop			; (mov r8, r8)
 8002d36:	46bd      	mov	sp, r7
 8002d38:	b006      	add	sp, #24
 8002d3a:	bd80      	pop	{r7, pc}
 8002d3c:	feff8fff 	.word	0xfeff8fff
 8002d40:	fffffcff 	.word	0xfffffcff
 8002d44:	40012c00 	.word	0x40012c00
 8002d48:	40014000 	.word	0x40014000
 8002d4c:	40014400 	.word	0x40014400
 8002d50:	40014800 	.word	0x40014800
 8002d54:	fffffbff 	.word	0xfffffbff
 8002d58:	fffff7ff 	.word	0xfffff7ff

08002d5c <TIM_OC3_SetConfig>:
  * @param  TIMx to select the TIM peripheral
  * @param  OC_Config The output configuration structure
  * @retval None
  */
static void TIM_OC3_SetConfig(TIM_TypeDef *TIMx, const TIM_OC_InitTypeDef *OC_Config)
{
 8002d5c:	b580      	push	{r7, lr}
 8002d5e:	b086      	sub	sp, #24
 8002d60:	af00      	add	r7, sp, #0
 8002d62:	6078      	str	r0, [r7, #4]
 8002d64:	6039      	str	r1, [r7, #0]
  uint32_t tmpccmrx;
  uint32_t tmpccer;
  uint32_t tmpcr2;

  /* Get the TIMx CCER register value */
  tmpccer = TIMx->CCER;
 8002d66:	687b      	ldr	r3, [r7, #4]
 8002d68:	6a1b      	ldr	r3, [r3, #32]
 8002d6a:	617b      	str	r3, [r7, #20]

  /* Disable the Channel 3: Reset the CC2E Bit */
  TIMx->CCER &= ~TIM_CCER_CC3E;
 8002d6c:	687b      	ldr	r3, [r7, #4]
 8002d6e:	6a1b      	ldr	r3, [r3, #32]
 8002d70:	4a33      	ldr	r2, [pc, #204]	; (8002e40 <TIM_OC3_SetConfig+0xe4>)
 8002d72:	401a      	ands	r2, r3
 8002d74:	687b      	ldr	r3, [r7, #4]
 8002d76:	621a      	str	r2, [r3, #32]

  /* Get the TIMx CR2 register value */
  tmpcr2 =  TIMx->CR2;
 8002d78:	687b      	ldr	r3, [r7, #4]
 8002d7a:	685b      	ldr	r3, [r3, #4]
 8002d7c:	613b      	str	r3, [r7, #16]

  /* Get the TIMx CCMR2 register value */
  tmpccmrx = TIMx->CCMR2;
 8002d7e:	687b      	ldr	r3, [r7, #4]
 8002d80:	69db      	ldr	r3, [r3, #28]
 8002d82:	60fb      	str	r3, [r7, #12]

  /* Reset the Output Compare mode and Capture/Compare selection Bits */
  tmpccmrx &= ~TIM_CCMR2_OC3M;
 8002d84:	68fb      	ldr	r3, [r7, #12]
 8002d86:	4a2f      	ldr	r2, [pc, #188]	; (8002e44 <TIM_OC3_SetConfig+0xe8>)
 8002d88:	4013      	ands	r3, r2
 8002d8a:	60fb      	str	r3, [r7, #12]
  tmpccmrx &= ~TIM_CCMR2_CC3S;
 8002d8c:	68fb      	ldr	r3, [r7, #12]
 8002d8e:	2203      	movs	r2, #3
 8002d90:	4393      	bics	r3, r2
 8002d92:	60fb      	str	r3, [r7, #12]
  /* Select the Output Compare Mode */
  tmpccmrx |= OC_Config->OCMode;
 8002d94:	683b      	ldr	r3, [r7, #0]
 8002d96:	681b      	ldr	r3, [r3, #0]
 8002d98:	68fa      	ldr	r2, [r7, #12]
 8002d9a:	4313      	orrs	r3, r2
 8002d9c:	60fb      	str	r3, [r7, #12]

  /* Reset the Output Polarity level */
  tmpccer &= ~TIM_CCER_CC3P;
 8002d9e:	697b      	ldr	r3, [r7, #20]
 8002da0:	4a29      	ldr	r2, [pc, #164]	; (8002e48 <TIM_OC3_SetConfig+0xec>)
 8002da2:	4013      	ands	r3, r2
 8002da4:	617b      	str	r3, [r7, #20]
  /* Set the Output Compare Polarity */
  tmpccer |= (OC_Config->OCPolarity << 8U);
 8002da6:	683b      	ldr	r3, [r7, #0]
 8002da8:	689b      	ldr	r3, [r3, #8]
 8002daa:	021b      	lsls	r3, r3, #8
 8002dac:	697a      	ldr	r2, [r7, #20]
 8002dae:	4313      	orrs	r3, r2
 8002db0:	617b      	str	r3, [r7, #20]

  if (IS_TIM_CCXN_INSTANCE(TIMx, TIM_CHANNEL_3))
 8002db2:	687b      	ldr	r3, [r7, #4]
 8002db4:	4a25      	ldr	r2, [pc, #148]	; (8002e4c <TIM_OC3_SetConfig+0xf0>)
 8002db6:	4293      	cmp	r3, r2
 8002db8:	d10d      	bne.n	8002dd6 <TIM_OC3_SetConfig+0x7a>
  {
    assert_param(IS_TIM_OCN_POLARITY(OC_Config->OCNPolarity));

    /* Reset the Output N Polarity level */
    tmpccer &= ~TIM_CCER_CC3NP;
 8002dba:	697b      	ldr	r3, [r7, #20]
 8002dbc:	4a24      	ldr	r2, [pc, #144]	; (8002e50 <TIM_OC3_SetConfig+0xf4>)
 8002dbe:	4013      	ands	r3, r2
 8002dc0:	617b      	str	r3, [r7, #20]
    /* Set the Output N Polarity */
    tmpccer |= (OC_Config->OCNPolarity << 8U);
 8002dc2:	683b      	ldr	r3, [r7, #0]
 8002dc4:	68db      	ldr	r3, [r3, #12]
 8002dc6:	021b      	lsls	r3, r3, #8
 8002dc8:	697a      	ldr	r2, [r7, #20]
 8002dca:	4313      	orrs	r3, r2
 8002dcc:	617b      	str	r3, [r7, #20]
    /* Reset the Output N State */
    tmpccer &= ~TIM_CCER_CC3NE;
 8002dce:	697b      	ldr	r3, [r7, #20]
 8002dd0:	4a20      	ldr	r2, [pc, #128]	; (8002e54 <TIM_OC3_SetConfig+0xf8>)
 8002dd2:	4013      	ands	r3, r2
 8002dd4:	617b      	str	r3, [r7, #20]
  }

  if (IS_TIM_BREAK_INSTANCE(TIMx))
 8002dd6:	687b      	ldr	r3, [r7, #4]
 8002dd8:	4a1c      	ldr	r2, [pc, #112]	; (8002e4c <TIM_OC3_SetConfig+0xf0>)
 8002dda:	4293      	cmp	r3, r2
 8002ddc:	d00b      	beq.n	8002df6 <TIM_OC3_SetConfig+0x9a>
 8002dde:	687b      	ldr	r3, [r7, #4]
 8002de0:	4a1d      	ldr	r2, [pc, #116]	; (8002e58 <TIM_OC3_SetConfig+0xfc>)
 8002de2:	4293      	cmp	r3, r2
 8002de4:	d007      	beq.n	8002df6 <TIM_OC3_SetConfig+0x9a>
 8002de6:	687b      	ldr	r3, [r7, #4]
 8002de8:	4a1c      	ldr	r2, [pc, #112]	; (8002e5c <TIM_OC3_SetConfig+0x100>)
 8002dea:	4293      	cmp	r3, r2
 8002dec:	d003      	beq.n	8002df6 <TIM_OC3_SetConfig+0x9a>
 8002dee:	687b      	ldr	r3, [r7, #4]
 8002df0:	4a1b      	ldr	r2, [pc, #108]	; (8002e60 <TIM_OC3_SetConfig+0x104>)
 8002df2:	4293      	cmp	r3, r2
 8002df4:	d113      	bne.n	8002e1e <TIM_OC3_SetConfig+0xc2>
    /* Check parameters */
    assert_param(IS_TIM_OCNIDLE_STATE(OC_Config->OCNIdleState));
    assert_param(IS_TIM_OCIDLE_STATE(OC_Config->OCIdleState));

    /* Reset the Output Compare and Output Compare N IDLE State */
    tmpcr2 &= ~TIM_CR2_OIS3;
 8002df6:	693b      	ldr	r3, [r7, #16]
 8002df8:	4a1a      	ldr	r2, [pc, #104]	; (8002e64 <TIM_OC3_SetConfig+0x108>)
 8002dfa:	4013      	ands	r3, r2
 8002dfc:	613b      	str	r3, [r7, #16]
    tmpcr2 &= ~TIM_CR2_OIS3N;
 8002dfe:	693b      	ldr	r3, [r7, #16]
 8002e00:	4a19      	ldr	r2, [pc, #100]	; (8002e68 <TIM_OC3_SetConfig+0x10c>)
 8002e02:	4013      	ands	r3, r2
 8002e04:	613b      	str	r3, [r7, #16]
    /* Set the Output Idle state */
    tmpcr2 |= (OC_Config->OCIdleState << 4U);
 8002e06:	683b      	ldr	r3, [r7, #0]
 8002e08:	695b      	ldr	r3, [r3, #20]
 8002e0a:	011b      	lsls	r3, r3, #4
 8002e0c:	693a      	ldr	r2, [r7, #16]
 8002e0e:	4313      	orrs	r3, r2
 8002e10:	613b      	str	r3, [r7, #16]
    /* Set the Output N Idle state */
    tmpcr2 |= (OC_Config->OCNIdleState << 4U);
 8002e12:	683b      	ldr	r3, [r7, #0]
 8002e14:	699b      	ldr	r3, [r3, #24]
 8002e16:	011b      	lsls	r3, r3, #4
 8002e18:	693a      	ldr	r2, [r7, #16]
 8002e1a:	4313      	orrs	r3, r2
 8002e1c:	613b      	str	r3, [r7, #16]
  }

  /* Write to TIMx CR2 */
  TIMx->CR2 = tmpcr2;
 8002e1e:	687b      	ldr	r3, [r7, #4]
 8002e20:	693a      	ldr	r2, [r7, #16]
 8002e22:	605a      	str	r2, [r3, #4]

  /* Write to TIMx CCMR2 */
  TIMx->CCMR2 = tmpccmrx;
 8002e24:	687b      	ldr	r3, [r7, #4]
 8002e26:	68fa      	ldr	r2, [r7, #12]
 8002e28:	61da      	str	r2, [r3, #28]

  /* Set the Capture Compare Register value */
  TIMx->CCR3 = OC_Config->Pulse;
 8002e2a:	683b      	ldr	r3, [r7, #0]
 8002e2c:	685a      	ldr	r2, [r3, #4]
 8002e2e:	687b      	ldr	r3, [r7, #4]
 8002e30:	63da      	str	r2, [r3, #60]	; 0x3c

  /* Write to TIMx CCER */
  TIMx->CCER = tmpccer;
 8002e32:	687b      	ldr	r3, [r7, #4]
 8002e34:	697a      	ldr	r2, [r7, #20]
 8002e36:	621a      	str	r2, [r3, #32]
}
 8002e38:	46c0      	nop			; (mov r8, r8)
 8002e3a:	46bd      	mov	sp, r7
 8002e3c:	b006      	add	sp, #24
 8002e3e:	bd80      	pop	{r7, pc}
 8002e40:	fffffeff 	.word	0xfffffeff
 8002e44:	fffeff8f 	.word	0xfffeff8f
 8002e48:	fffffdff 	.word	0xfffffdff
 8002e4c:	40012c00 	.word	0x40012c00
 8002e50:	fffff7ff 	.word	0xfffff7ff
 8002e54:	fffffbff 	.word	0xfffffbff
 8002e58:	40014000 	.word	0x40014000
 8002e5c:	40014400 	.word	0x40014400
 8002e60:	40014800 	.word	0x40014800
 8002e64:	ffffefff 	.word	0xffffefff
 8002e68:	ffffdfff 	.word	0xffffdfff

08002e6c <TIM_OC4_SetConfig>:
  * @param  TIMx to select the TIM peripheral
  * @param  OC_Config The output configuration structure
  * @retval None
  */
static void TIM_OC4_SetConfig(TIM_TypeDef *TIMx, const TIM_OC_InitTypeDef *OC_Config)
{
 8002e6c:	b580      	push	{r7, lr}
 8002e6e:	b086      	sub	sp, #24
 8002e70:	af00      	add	r7, sp, #0
 8002e72:	6078      	str	r0, [r7, #4]
 8002e74:	6039      	str	r1, [r7, #0]
  uint32_t tmpccmrx;
  uint32_t tmpccer;
  uint32_t tmpcr2;

  /* Get the TIMx CCER register value */
  tmpccer = TIMx->CCER;
 8002e76:	687b      	ldr	r3, [r7, #4]
 8002e78:	6a1b      	ldr	r3, [r3, #32]
 8002e7a:	613b      	str	r3, [r7, #16]

  /* Disable the Channel 4: Reset the CC4E Bit */
  TIMx->CCER &= ~TIM_CCER_CC4E;
 8002e7c:	687b      	ldr	r3, [r7, #4]
 8002e7e:	6a1b      	ldr	r3, [r3, #32]
 8002e80:	4a26      	ldr	r2, [pc, #152]	; (8002f1c <TIM_OC4_SetConfig+0xb0>)
 8002e82:	401a      	ands	r2, r3
 8002e84:	687b      	ldr	r3, [r7, #4]
 8002e86:	621a      	str	r2, [r3, #32]

  /* Get the TIMx CR2 register value */
  tmpcr2 =  TIMx->CR2;
 8002e88:	687b      	ldr	r3, [r7, #4]
 8002e8a:	685b      	ldr	r3, [r3, #4]
 8002e8c:	617b      	str	r3, [r7, #20]

  /* Get the TIMx CCMR2 register value */
  tmpccmrx = TIMx->CCMR2;
 8002e8e:	687b      	ldr	r3, [r7, #4]
 8002e90:	69db      	ldr	r3, [r3, #28]
 8002e92:	60fb      	str	r3, [r7, #12]

  /* Reset the Output Compare mode and Capture/Compare selection Bits */
  tmpccmrx &= ~TIM_CCMR2_OC4M;
 8002e94:	68fb      	ldr	r3, [r7, #12]
 8002e96:	4a22      	ldr	r2, [pc, #136]	; (8002f20 <TIM_OC4_SetConfig+0xb4>)
 8002e98:	4013      	ands	r3, r2
 8002e9a:	60fb      	str	r3, [r7, #12]
  tmpccmrx &= ~TIM_CCMR2_CC4S;
 8002e9c:	68fb      	ldr	r3, [r7, #12]
 8002e9e:	4a21      	ldr	r2, [pc, #132]	; (8002f24 <TIM_OC4_SetConfig+0xb8>)
 8002ea0:	4013      	ands	r3, r2
 8002ea2:	60fb      	str	r3, [r7, #12]

  /* Select the Output Compare Mode */
  tmpccmrx |= (OC_Config->OCMode << 8U);
 8002ea4:	683b      	ldr	r3, [r7, #0]
 8002ea6:	681b      	ldr	r3, [r3, #0]
 8002ea8:	021b      	lsls	r3, r3, #8
 8002eaa:	68fa      	ldr	r2, [r7, #12]
 8002eac:	4313      	orrs	r3, r2
 8002eae:	60fb      	str	r3, [r7, #12]

  /* Reset the Output Polarity level */
  tmpccer &= ~TIM_CCER_CC4P;
 8002eb0:	693b      	ldr	r3, [r7, #16]
 8002eb2:	4a1d      	ldr	r2, [pc, #116]	; (8002f28 <TIM_OC4_SetConfig+0xbc>)
 8002eb4:	4013      	ands	r3, r2
 8002eb6:	613b      	str	r3, [r7, #16]
  /* Set the Output Compare Polarity */
  tmpccer |= (OC_Config->OCPolarity << 12U);
 8002eb8:	683b      	ldr	r3, [r7, #0]
 8002eba:	689b      	ldr	r3, [r3, #8]
 8002ebc:	031b      	lsls	r3, r3, #12
 8002ebe:	693a      	ldr	r2, [r7, #16]
 8002ec0:	4313      	orrs	r3, r2
 8002ec2:	613b      	str	r3, [r7, #16]

  if (IS_TIM_BREAK_INSTANCE(TIMx))
 8002ec4:	687b      	ldr	r3, [r7, #4]
 8002ec6:	4a19      	ldr	r2, [pc, #100]	; (8002f2c <TIM_OC4_SetConfig+0xc0>)
 8002ec8:	4293      	cmp	r3, r2
 8002eca:	d00b      	beq.n	8002ee4 <TIM_OC4_SetConfig+0x78>
 8002ecc:	687b      	ldr	r3, [r7, #4]
 8002ece:	4a18      	ldr	r2, [pc, #96]	; (8002f30 <TIM_OC4_SetConfig+0xc4>)
 8002ed0:	4293      	cmp	r3, r2
 8002ed2:	d007      	beq.n	8002ee4 <TIM_OC4_SetConfig+0x78>
 8002ed4:	687b      	ldr	r3, [r7, #4]
 8002ed6:	4a17      	ldr	r2, [pc, #92]	; (8002f34 <TIM_OC4_SetConfig+0xc8>)
 8002ed8:	4293      	cmp	r3, r2
 8002eda:	d003      	beq.n	8002ee4 <TIM_OC4_SetConfig+0x78>
 8002edc:	687b      	ldr	r3, [r7, #4]
 8002ede:	4a16      	ldr	r2, [pc, #88]	; (8002f38 <TIM_OC4_SetConfig+0xcc>)
 8002ee0:	4293      	cmp	r3, r2
 8002ee2:	d109      	bne.n	8002ef8 <TIM_OC4_SetConfig+0x8c>
  {
    /* Check parameters */
    assert_param(IS_TIM_OCIDLE_STATE(OC_Config->OCIdleState));

    /* Reset the Output Compare IDLE State */
    tmpcr2 &= ~TIM_CR2_OIS4;
 8002ee4:	697b      	ldr	r3, [r7, #20]
 8002ee6:	4a15      	ldr	r2, [pc, #84]	; (8002f3c <TIM_OC4_SetConfig+0xd0>)
 8002ee8:	4013      	ands	r3, r2
 8002eea:	617b      	str	r3, [r7, #20]

    /* Set the Output Idle state */
    tmpcr2 |= (OC_Config->OCIdleState << 6U);
 8002eec:	683b      	ldr	r3, [r7, #0]
 8002eee:	695b      	ldr	r3, [r3, #20]
 8002ef0:	019b      	lsls	r3, r3, #6
 8002ef2:	697a      	ldr	r2, [r7, #20]
 8002ef4:	4313      	orrs	r3, r2
 8002ef6:	617b      	str	r3, [r7, #20]
  }

  /* Write to TIMx CR2 */
  TIMx->CR2 = tmpcr2;
 8002ef8:	687b      	ldr	r3, [r7, #4]
 8002efa:	697a      	ldr	r2, [r7, #20]
 8002efc:	605a      	str	r2, [r3, #4]

  /* Write to TIMx CCMR2 */
  TIMx->CCMR2 = tmpccmrx;
 8002efe:	687b      	ldr	r3, [r7, #4]
 8002f00:	68fa      	ldr	r2, [r7, #12]
 8002f02:	61da      	str	r2, [r3, #28]

  /* Set the Capture Compare Register value */
  TIMx->CCR4 = OC_Config->Pulse;
 8002f04:	683b      	ldr	r3, [r7, #0]
 8002f06:	685a      	ldr	r2, [r3, #4]
 8002f08:	687b      	ldr	r3, [r7, #4]
 8002f0a:	641a      	str	r2, [r3, #64]	; 0x40

  /* Write to TIMx CCER */
  TIMx->CCER = tmpccer;
 8002f0c:	687b      	ldr	r3, [r7, #4]
 8002f0e:	693a      	ldr	r2, [r7, #16]
 8002f10:	621a      	str	r2, [r3, #32]
}
 8002f12:	46c0      	nop			; (mov r8, r8)
 8002f14:	46bd      	mov	sp, r7
 8002f16:	b006      	add	sp, #24
 8002f18:	bd80      	pop	{r7, pc}
 8002f1a:	46c0      	nop			; (mov r8, r8)
 8002f1c:	ffffefff 	.word	0xffffefff
 8002f20:	feff8fff 	.word	0xfeff8fff
 8002f24:	fffffcff 	.word	0xfffffcff
 8002f28:	ffffdfff 	.word	0xffffdfff
 8002f2c:	40012c00 	.word	0x40012c00
 8002f30:	40014000 	.word	0x40014000
 8002f34:	40014400 	.word	0x40014400
 8002f38:	40014800 	.word	0x40014800
 8002f3c:	ffffbfff 	.word	0xffffbfff

08002f40 <TIM_OC5_SetConfig>:
  * @param  OC_Config The output configuration structure
  * @retval None
  */
static void TIM_OC5_SetConfig(TIM_TypeDef *TIMx,
                              const TIM_OC_InitTypeDef *OC_Config)
{
 8002f40:	b580      	push	{r7, lr}
 8002f42:	b086      	sub	sp, #24
 8002f44:	af00      	add	r7, sp, #0
 8002f46:	6078      	str	r0, [r7, #4]
 8002f48:	6039      	str	r1, [r7, #0]
  uint32_t tmpccmrx;
  uint32_t tmpccer;
  uint32_t tmpcr2;

  /* Get the TIMx CCER register value */
  tmpccer = TIMx->CCER;
 8002f4a:	687b      	ldr	r3, [r7, #4]
 8002f4c:	6a1b      	ldr	r3, [r3, #32]
 8002f4e:	613b      	str	r3, [r7, #16]

  /* Disable the output: Reset the CCxE Bit */
  TIMx->CCER &= ~TIM_CCER_CC5E;
 8002f50:	687b      	ldr	r3, [r7, #4]
 8002f52:	6a1b      	ldr	r3, [r3, #32]
 8002f54:	4a23      	ldr	r2, [pc, #140]	; (8002fe4 <TIM_OC5_SetConfig+0xa4>)
 8002f56:	401a      	ands	r2, r3
 8002f58:	687b      	ldr	r3, [r7, #4]
 8002f5a:	621a      	str	r2, [r3, #32]

  /* Get the TIMx CR2 register value */
  tmpcr2 =  TIMx->CR2;
 8002f5c:	687b      	ldr	r3, [r7, #4]
 8002f5e:	685b      	ldr	r3, [r3, #4]
 8002f60:	617b      	str	r3, [r7, #20]
  /* Get the TIMx CCMR1 register value */
  tmpccmrx = TIMx->CCMR3;
 8002f62:	687b      	ldr	r3, [r7, #4]
 8002f64:	6d5b      	ldr	r3, [r3, #84]	; 0x54
 8002f66:	60fb      	str	r3, [r7, #12]

  /* Reset the Output Compare Mode Bits */
  tmpccmrx &= ~(TIM_CCMR3_OC5M);
 8002f68:	68fb      	ldr	r3, [r7, #12]
 8002f6a:	4a1f      	ldr	r2, [pc, #124]	; (8002fe8 <TIM_OC5_SetConfig+0xa8>)
 8002f6c:	4013      	ands	r3, r2
 8002f6e:	60fb      	str	r3, [r7, #12]
  /* Select the Output Compare Mode */
  tmpccmrx |= OC_Config->OCMode;
 8002f70:	683b      	ldr	r3, [r7, #0]
 8002f72:	681b      	ldr	r3, [r3, #0]
 8002f74:	68fa      	ldr	r2, [r7, #12]
 8002f76:	4313      	orrs	r3, r2
 8002f78:	60fb      	str	r3, [r7, #12]

  /* Reset the Output Polarity level */
  tmpccer &= ~TIM_CCER_CC5P;
 8002f7a:	693b      	ldr	r3, [r7, #16]
 8002f7c:	4a1b      	ldr	r2, [pc, #108]	; (8002fec <TIM_OC5_SetConfig+0xac>)
 8002f7e:	4013      	ands	r3, r2
 8002f80:	613b      	str	r3, [r7, #16]
  /* Set the Output Compare Polarity */
  tmpccer |= (OC_Config->OCPolarity << 16U);
 8002f82:	683b      	ldr	r3, [r7, #0]
 8002f84:	689b      	ldr	r3, [r3, #8]
 8002f86:	041b      	lsls	r3, r3, #16
 8002f88:	693a      	ldr	r2, [r7, #16]
 8002f8a:	4313      	orrs	r3, r2
 8002f8c:	613b      	str	r3, [r7, #16]

  if (IS_TIM_BREAK_INSTANCE(TIMx))
 8002f8e:	687b      	ldr	r3, [r7, #4]
 8002f90:	4a17      	ldr	r2, [pc, #92]	; (8002ff0 <TIM_OC5_SetConfig+0xb0>)
 8002f92:	4293      	cmp	r3, r2
 8002f94:	d00b      	beq.n	8002fae <TIM_OC5_SetConfig+0x6e>
 8002f96:	687b      	ldr	r3, [r7, #4]
 8002f98:	4a16      	ldr	r2, [pc, #88]	; (8002ff4 <TIM_OC5_SetConfig+0xb4>)
 8002f9a:	4293      	cmp	r3, r2
 8002f9c:	d007      	beq.n	8002fae <TIM_OC5_SetConfig+0x6e>
 8002f9e:	687b      	ldr	r3, [r7, #4]
 8002fa0:	4a15      	ldr	r2, [pc, #84]	; (8002ff8 <TIM_OC5_SetConfig+0xb8>)
 8002fa2:	4293      	cmp	r3, r2
 8002fa4:	d003      	beq.n	8002fae <TIM_OC5_SetConfig+0x6e>
 8002fa6:	687b      	ldr	r3, [r7, #4]
 8002fa8:	4a14      	ldr	r2, [pc, #80]	; (8002ffc <TIM_OC5_SetConfig+0xbc>)
 8002faa:	4293      	cmp	r3, r2
 8002fac:	d109      	bne.n	8002fc2 <TIM_OC5_SetConfig+0x82>
  {
    /* Reset the Output Compare IDLE State */
    tmpcr2 &= ~TIM_CR2_OIS5;
 8002fae:	697b      	ldr	r3, [r7, #20]
 8002fb0:	4a0c      	ldr	r2, [pc, #48]	; (8002fe4 <TIM_OC5_SetConfig+0xa4>)
 8002fb2:	4013      	ands	r3, r2
 8002fb4:	617b      	str	r3, [r7, #20]
    /* Set the Output Idle state */
    tmpcr2 |= (OC_Config->OCIdleState << 8U);
 8002fb6:	683b      	ldr	r3, [r7, #0]
 8002fb8:	695b      	ldr	r3, [r3, #20]
 8002fba:	021b      	lsls	r3, r3, #8
 8002fbc:	697a      	ldr	r2, [r7, #20]
 8002fbe:	4313      	orrs	r3, r2
 8002fc0:	617b      	str	r3, [r7, #20]
  }
  /* Write to TIMx CR2 */
  TIMx->CR2 = tmpcr2;
 8002fc2:	687b      	ldr	r3, [r7, #4]
 8002fc4:	697a      	ldr	r2, [r7, #20]
 8002fc6:	605a      	str	r2, [r3, #4]

  /* Write to TIMx CCMR3 */
  TIMx->CCMR3 = tmpccmrx;
 8002fc8:	687b      	ldr	r3, [r7, #4]
 8002fca:	68fa      	ldr	r2, [r7, #12]
 8002fcc:	655a      	str	r2, [r3, #84]	; 0x54

  /* Set the Capture Compare Register value */
  TIMx->CCR5 = OC_Config->Pulse;
 8002fce:	683b      	ldr	r3, [r7, #0]
 8002fd0:	685a      	ldr	r2, [r3, #4]
 8002fd2:	687b      	ldr	r3, [r7, #4]
 8002fd4:	659a      	str	r2, [r3, #88]	; 0x58

  /* Write to TIMx CCER */
  TIMx->CCER = tmpccer;
 8002fd6:	687b      	ldr	r3, [r7, #4]
 8002fd8:	693a      	ldr	r2, [r7, #16]
 8002fda:	621a      	str	r2, [r3, #32]
}
 8002fdc:	46c0      	nop			; (mov r8, r8)
 8002fde:	46bd      	mov	sp, r7
 8002fe0:	b006      	add	sp, #24
 8002fe2:	bd80      	pop	{r7, pc}
 8002fe4:	fffeffff 	.word	0xfffeffff
 8002fe8:	fffeff8f 	.word	0xfffeff8f
 8002fec:	fffdffff 	.word	0xfffdffff
 8002ff0:	40012c00 	.word	0x40012c00
 8002ff4:	40014000 	.word	0x40014000
 8002ff8:	40014400 	.word	0x40014400
 8002ffc:	40014800 	.word	0x40014800

08003000 <TIM_OC6_SetConfig>:
  * @param  OC_Config The output configuration structure
  * @retval None
  */
static void TIM_OC6_SetConfig(TIM_TypeDef *TIMx,
                              const TIM_OC_InitTypeDef *OC_Config)
{
 8003000:	b580      	push	{r7, lr}
 8003002:	b086      	sub	sp, #24
 8003004:	af00      	add	r7, sp, #0
 8003006:	6078      	str	r0, [r7, #4]
 8003008:	6039      	str	r1, [r7, #0]
  uint32_t tmpccmrx;
  uint32_t tmpccer;
  uint32_t tmpcr2;

  /* Get the TIMx CCER register value */
  tmpccer = TIMx->CCER;
 800300a:	687b      	ldr	r3, [r7, #4]
 800300c:	6a1b      	ldr	r3, [r3, #32]
 800300e:	613b      	str	r3, [r7, #16]

  /* Disable the output: Reset the CCxE Bit */
  TIMx->CCER &= ~TIM_CCER_CC6E;
 8003010:	687b      	ldr	r3, [r7, #4]
 8003012:	6a1b      	ldr	r3, [r3, #32]
 8003014:	4a24      	ldr	r2, [pc, #144]	; (80030a8 <TIM_OC6_SetConfig+0xa8>)
 8003016:	401a      	ands	r2, r3
 8003018:	687b      	ldr	r3, [r7, #4]
 800301a:	621a      	str	r2, [r3, #32]

  /* Get the TIMx CR2 register value */
  tmpcr2 =  TIMx->CR2;
 800301c:	687b      	ldr	r3, [r7, #4]
 800301e:	685b      	ldr	r3, [r3, #4]
 8003020:	617b      	str	r3, [r7, #20]
  /* Get the TIMx CCMR1 register value */
  tmpccmrx = TIMx->CCMR3;
 8003022:	687b      	ldr	r3, [r7, #4]
 8003024:	6d5b      	ldr	r3, [r3, #84]	; 0x54
 8003026:	60fb      	str	r3, [r7, #12]

  /* Reset the Output Compare Mode Bits */
  tmpccmrx &= ~(TIM_CCMR3_OC6M);
 8003028:	68fb      	ldr	r3, [r7, #12]
 800302a:	4a20      	ldr	r2, [pc, #128]	; (80030ac <TIM_OC6_SetConfig+0xac>)
 800302c:	4013      	ands	r3, r2
 800302e:	60fb      	str	r3, [r7, #12]
  /* Select the Output Compare Mode */
  tmpccmrx |= (OC_Config->OCMode << 8U);
 8003030:	683b      	ldr	r3, [r7, #0]
 8003032:	681b      	ldr	r3, [r3, #0]
 8003034:	021b      	lsls	r3, r3, #8
 8003036:	68fa      	ldr	r2, [r7, #12]
 8003038:	4313      	orrs	r3, r2
 800303a:	60fb      	str	r3, [r7, #12]

  /* Reset the Output Polarity level */
  tmpccer &= (uint32_t)~TIM_CCER_CC6P;
 800303c:	693b      	ldr	r3, [r7, #16]
 800303e:	4a1c      	ldr	r2, [pc, #112]	; (80030b0 <TIM_OC6_SetConfig+0xb0>)
 8003040:	4013      	ands	r3, r2
 8003042:	613b      	str	r3, [r7, #16]
  /* Set the Output Compare Polarity */
  tmpccer |= (OC_Config->OCPolarity << 20U);
 8003044:	683b      	ldr	r3, [r7, #0]
 8003046:	689b      	ldr	r3, [r3, #8]
 8003048:	051b      	lsls	r3, r3, #20
 800304a:	693a      	ldr	r2, [r7, #16]
 800304c:	4313      	orrs	r3, r2
 800304e:	613b      	str	r3, [r7, #16]

  if (IS_TIM_BREAK_INSTANCE(TIMx))
 8003050:	687b      	ldr	r3, [r7, #4]
 8003052:	4a18      	ldr	r2, [pc, #96]	; (80030b4 <TIM_OC6_SetConfig+0xb4>)
 8003054:	4293      	cmp	r3, r2
 8003056:	d00b      	beq.n	8003070 <TIM_OC6_SetConfig+0x70>
 8003058:	687b      	ldr	r3, [r7, #4]
 800305a:	4a17      	ldr	r2, [pc, #92]	; (80030b8 <TIM_OC6_SetConfig+0xb8>)
 800305c:	4293      	cmp	r3, r2
 800305e:	d007      	beq.n	8003070 <TIM_OC6_SetConfig+0x70>
 8003060:	687b      	ldr	r3, [r7, #4]
 8003062:	4a16      	ldr	r2, [pc, #88]	; (80030bc <TIM_OC6_SetConfig+0xbc>)
 8003064:	4293      	cmp	r3, r2
 8003066:	d003      	beq.n	8003070 <TIM_OC6_SetConfig+0x70>
 8003068:	687b      	ldr	r3, [r7, #4]
 800306a:	4a15      	ldr	r2, [pc, #84]	; (80030c0 <TIM_OC6_SetConfig+0xc0>)
 800306c:	4293      	cmp	r3, r2
 800306e:	d109      	bne.n	8003084 <TIM_OC6_SetConfig+0x84>
  {
    /* Reset the Output Compare IDLE State */
    tmpcr2 &= ~TIM_CR2_OIS6;
 8003070:	697b      	ldr	r3, [r7, #20]
 8003072:	4a14      	ldr	r2, [pc, #80]	; (80030c4 <TIM_OC6_SetConfig+0xc4>)
 8003074:	4013      	ands	r3, r2
 8003076:	617b      	str	r3, [r7, #20]
    /* Set the Output Idle state */
    tmpcr2 |= (OC_Config->OCIdleState << 10U);
 8003078:	683b      	ldr	r3, [r7, #0]
 800307a:	695b      	ldr	r3, [r3, #20]
 800307c:	029b      	lsls	r3, r3, #10
 800307e:	697a      	ldr	r2, [r7, #20]
 8003080:	4313      	orrs	r3, r2
 8003082:	617b      	str	r3, [r7, #20]
  }

  /* Write to TIMx CR2 */
  TIMx->CR2 = tmpcr2;
 8003084:	687b      	ldr	r3, [r7, #4]
 8003086:	697a      	ldr	r2, [r7, #20]
 8003088:	605a      	str	r2, [r3, #4]

  /* Write to TIMx CCMR3 */
  TIMx->CCMR3 = tmpccmrx;
 800308a:	687b      	ldr	r3, [r7, #4]
 800308c:	68fa      	ldr	r2, [r7, #12]
 800308e:	655a      	str	r2, [r3, #84]	; 0x54

  /* Set the Capture Compare Register value */
  TIMx->CCR6 = OC_Config->Pulse;
 8003090:	683b      	ldr	r3, [r7, #0]
 8003092:	685a      	ldr	r2, [r3, #4]
 8003094:	687b      	ldr	r3, [r7, #4]
 8003096:	65da      	str	r2, [r3, #92]	; 0x5c

  /* Write to TIMx CCER */
  TIMx->CCER = tmpccer;
 8003098:	687b      	ldr	r3, [r7, #4]
 800309a:	693a      	ldr	r2, [r7, #16]
 800309c:	621a      	str	r2, [r3, #32]
}
 800309e:	46c0      	nop			; (mov r8, r8)
 80030a0:	46bd      	mov	sp, r7
 80030a2:	b006      	add	sp, #24
 80030a4:	bd80      	pop	{r7, pc}
 80030a6:	46c0      	nop			; (mov r8, r8)
 80030a8:	ffefffff 	.word	0xffefffff
 80030ac:	feff8fff 	.word	0xfeff8fff
 80030b0:	ffdfffff 	.word	0xffdfffff
 80030b4:	40012c00 	.word	0x40012c00
 80030b8:	40014000 	.word	0x40014000
 80030bc:	40014400 	.word	0x40014400
 80030c0:	40014800 	.word	0x40014800
 80030c4:	fffbffff 	.word	0xfffbffff

080030c8 <TIM_TI1_ConfigInputStage>:
  * @param  TIM_ICFilter Specifies the Input Capture Filter.
  *          This parameter must be a value between 0x00 and 0x0F.
  * @retval None
  */
static void TIM_TI1_ConfigInputStage(TIM_TypeDef *TIMx, uint32_t TIM_ICPolarity, uint32_t TIM_ICFilter)
{
 80030c8:	b580      	push	{r7, lr}
 80030ca:	b086      	sub	sp, #24
 80030cc:	af00      	add	r7, sp, #0
 80030ce:	60f8      	str	r0, [r7, #12]
 80030d0:	60b9      	str	r1, [r7, #8]
 80030d2:	607a      	str	r2, [r7, #4]
  uint32_t tmpccmr1;
  uint32_t tmpccer;

  /* Disable the Channel 1: Reset the CC1E Bit */
  tmpccer = TIMx->CCER;
 80030d4:	68fb      	ldr	r3, [r7, #12]
 80030d6:	6a1b      	ldr	r3, [r3, #32]
 80030d8:	617b      	str	r3, [r7, #20]
  TIMx->CCER &= ~TIM_CCER_CC1E;
 80030da:	68fb      	ldr	r3, [r7, #12]
 80030dc:	6a1b      	ldr	r3, [r3, #32]
 80030de:	2201      	movs	r2, #1
 80030e0:	4393      	bics	r3, r2
 80030e2:	001a      	movs	r2, r3
 80030e4:	68fb      	ldr	r3, [r7, #12]
 80030e6:	621a      	str	r2, [r3, #32]
  tmpccmr1 = TIMx->CCMR1;
 80030e8:	68fb      	ldr	r3, [r7, #12]
 80030ea:	699b      	ldr	r3, [r3, #24]
 80030ec:	613b      	str	r3, [r7, #16]

  /* Set the filter */
  tmpccmr1 &= ~TIM_CCMR1_IC1F;
 80030ee:	693b      	ldr	r3, [r7, #16]
 80030f0:	22f0      	movs	r2, #240	; 0xf0
 80030f2:	4393      	bics	r3, r2
 80030f4:	613b      	str	r3, [r7, #16]
  tmpccmr1 |= (TIM_ICFilter << 4U);
 80030f6:	687b      	ldr	r3, [r7, #4]
 80030f8:	011b      	lsls	r3, r3, #4
 80030fa:	693a      	ldr	r2, [r7, #16]
 80030fc:	4313      	orrs	r3, r2
 80030fe:	613b      	str	r3, [r7, #16]

  /* Select the Polarity and set the CC1E Bit */
  tmpccer &= ~(TIM_CCER_CC1P | TIM_CCER_CC1NP);
 8003100:	697b      	ldr	r3, [r7, #20]
 8003102:	220a      	movs	r2, #10
 8003104:	4393      	bics	r3, r2
 8003106:	617b      	str	r3, [r7, #20]
  tmpccer |= TIM_ICPolarity;
 8003108:	697a      	ldr	r2, [r7, #20]
 800310a:	68bb      	ldr	r3, [r7, #8]
 800310c:	4313      	orrs	r3, r2
 800310e:	617b      	str	r3, [r7, #20]

  /* Write to TIMx CCMR1 and CCER registers */
  TIMx->CCMR1 = tmpccmr1;
 8003110:	68fb      	ldr	r3, [r7, #12]
 8003112:	693a      	ldr	r2, [r7, #16]
 8003114:	619a      	str	r2, [r3, #24]
  TIMx->CCER = tmpccer;
 8003116:	68fb      	ldr	r3, [r7, #12]
 8003118:	697a      	ldr	r2, [r7, #20]
 800311a:	621a      	str	r2, [r3, #32]
}
 800311c:	46c0      	nop			; (mov r8, r8)
 800311e:	46bd      	mov	sp, r7
 8003120:	b006      	add	sp, #24
 8003122:	bd80      	pop	{r7, pc}

08003124 <TIM_TI2_ConfigInputStage>:
  * @param  TIM_ICFilter Specifies the Input Capture Filter.
  *          This parameter must be a value between 0x00 and 0x0F.
  * @retval None
  */
static void TIM_TI2_ConfigInputStage(TIM_TypeDef *TIMx, uint32_t TIM_ICPolarity, uint32_t TIM_ICFilter)
{
 8003124:	b580      	push	{r7, lr}
 8003126:	b086      	sub	sp, #24
 8003128:	af00      	add	r7, sp, #0
 800312a:	60f8      	str	r0, [r7, #12]
 800312c:	60b9      	str	r1, [r7, #8]
 800312e:	607a      	str	r2, [r7, #4]
  uint32_t tmpccmr1;
  uint32_t tmpccer;

  /* Disable the Channel 2: Reset the CC2E Bit */
  tmpccer = TIMx->CCER;
 8003130:	68fb      	ldr	r3, [r7, #12]
 8003132:	6a1b      	ldr	r3, [r3, #32]
 8003134:	617b      	str	r3, [r7, #20]
  TIMx->CCER &= ~TIM_CCER_CC2E;
 8003136:	68fb      	ldr	r3, [r7, #12]
 8003138:	6a1b      	ldr	r3, [r3, #32]
 800313a:	2210      	movs	r2, #16
 800313c:	4393      	bics	r3, r2
 800313e:	001a      	movs	r2, r3
 8003140:	68fb      	ldr	r3, [r7, #12]
 8003142:	621a      	str	r2, [r3, #32]
  tmpccmr1 = TIMx->CCMR1;
 8003144:	68fb      	ldr	r3, [r7, #12]
 8003146:	699b      	ldr	r3, [r3, #24]
 8003148:	613b      	str	r3, [r7, #16]

  /* Set the filter */
  tmpccmr1 &= ~TIM_CCMR1_IC2F;
 800314a:	693b      	ldr	r3, [r7, #16]
 800314c:	4a0d      	ldr	r2, [pc, #52]	; (8003184 <TIM_TI2_ConfigInputStage+0x60>)
 800314e:	4013      	ands	r3, r2
 8003150:	613b      	str	r3, [r7, #16]
  tmpccmr1 |= (TIM_ICFilter << 12U);
 8003152:	687b      	ldr	r3, [r7, #4]
 8003154:	031b      	lsls	r3, r3, #12
 8003156:	693a      	ldr	r2, [r7, #16]
 8003158:	4313      	orrs	r3, r2
 800315a:	613b      	str	r3, [r7, #16]

  /* Select the Polarity and set the CC2E Bit */
  tmpccer &= ~(TIM_CCER_CC2P | TIM_CCER_CC2NP);
 800315c:	697b      	ldr	r3, [r7, #20]
 800315e:	22a0      	movs	r2, #160	; 0xa0
 8003160:	4393      	bics	r3, r2
 8003162:	617b      	str	r3, [r7, #20]
  tmpccer |= (TIM_ICPolarity << 4U);
 8003164:	68bb      	ldr	r3, [r7, #8]
 8003166:	011b      	lsls	r3, r3, #4
 8003168:	697a      	ldr	r2, [r7, #20]
 800316a:	4313      	orrs	r3, r2
 800316c:	617b      	str	r3, [r7, #20]

  /* Write to TIMx CCMR1 and CCER registers */
  TIMx->CCMR1 = tmpccmr1 ;
 800316e:	68fb      	ldr	r3, [r7, #12]
 8003170:	693a      	ldr	r2, [r7, #16]
 8003172:	619a      	str	r2, [r3, #24]
  TIMx->CCER = tmpccer;
 8003174:	68fb      	ldr	r3, [r7, #12]
 8003176:	697a      	ldr	r2, [r7, #20]
 8003178:	621a      	str	r2, [r3, #32]
}
 800317a:	46c0      	nop			; (mov r8, r8)
 800317c:	46bd      	mov	sp, r7
 800317e:	b006      	add	sp, #24
 8003180:	bd80      	pop	{r7, pc}
 8003182:	46c0      	nop			; (mov r8, r8)
 8003184:	ffff0fff 	.word	0xffff0fff

08003188 <TIM_ITRx_SetConfig>:
  *            @arg TIM_TS_TI2FP2: Filtered Timer Input 2
  *            @arg TIM_TS_ETRF: External Trigger input
  * @retval None
  */
static void TIM_ITRx_SetConfig(TIM_TypeDef *TIMx, uint32_t InputTriggerSource)
{
 8003188:	b580      	push	{r7, lr}
 800318a:	b084      	sub	sp, #16
 800318c:	af00      	add	r7, sp, #0
 800318e:	6078      	str	r0, [r7, #4]
 8003190:	6039      	str	r1, [r7, #0]
  uint32_t tmpsmcr;

  /* Get the TIMx SMCR register value */
  tmpsmcr = TIMx->SMCR;
 8003192:	687b      	ldr	r3, [r7, #4]
 8003194:	689b      	ldr	r3, [r3, #8]
 8003196:	60fb      	str	r3, [r7, #12]
  /* Reset the TS Bits */
  tmpsmcr &= ~TIM_SMCR_TS;
 8003198:	68fb      	ldr	r3, [r7, #12]
 800319a:	4a08      	ldr	r2, [pc, #32]	; (80031bc <TIM_ITRx_SetConfig+0x34>)
 800319c:	4013      	ands	r3, r2
 800319e:	60fb      	str	r3, [r7, #12]
  /* Set the Input Trigger source and the slave mode*/
  tmpsmcr |= (InputTriggerSource | TIM_SLAVEMODE_EXTERNAL1);
 80031a0:	683a      	ldr	r2, [r7, #0]
 80031a2:	68fb      	ldr	r3, [r7, #12]
 80031a4:	4313      	orrs	r3, r2
 80031a6:	2207      	movs	r2, #7
 80031a8:	4313      	orrs	r3, r2
 80031aa:	60fb      	str	r3, [r7, #12]
  /* Write to TIMx SMCR */
  TIMx->SMCR = tmpsmcr;
 80031ac:	687b      	ldr	r3, [r7, #4]
 80031ae:	68fa      	ldr	r2, [r7, #12]
 80031b0:	609a      	str	r2, [r3, #8]
}
 80031b2:	46c0      	nop			; (mov r8, r8)
 80031b4:	46bd      	mov	sp, r7
 80031b6:	b004      	add	sp, #16
 80031b8:	bd80      	pop	{r7, pc}
 80031ba:	46c0      	nop			; (mov r8, r8)
 80031bc:	ffcfff8f 	.word	0xffcfff8f

080031c0 <TIM_ETR_SetConfig>:
  *          This parameter must be a value between 0x00 and 0x0F
  * @retval None
  */
void TIM_ETR_SetConfig(TIM_TypeDef *TIMx, uint32_t TIM_ExtTRGPrescaler,
                       uint32_t TIM_ExtTRGPolarity, uint32_t ExtTRGFilter)
{
 80031c0:	b580      	push	{r7, lr}
 80031c2:	b086      	sub	sp, #24
 80031c4:	af00      	add	r7, sp, #0
 80031c6:	60f8      	str	r0, [r7, #12]
 80031c8:	60b9      	str	r1, [r7, #8]
 80031ca:	607a      	str	r2, [r7, #4]
 80031cc:	603b      	str	r3, [r7, #0]
  uint32_t tmpsmcr;

  tmpsmcr = TIMx->SMCR;
 80031ce:	68fb      	ldr	r3, [r7, #12]
 80031d0:	689b      	ldr	r3, [r3, #8]
 80031d2:	617b      	str	r3, [r7, #20]

  /* Reset the ETR Bits */
  tmpsmcr &= ~(TIM_SMCR_ETF | TIM_SMCR_ETPS | TIM_SMCR_ECE | TIM_SMCR_ETP);
 80031d4:	697b      	ldr	r3, [r7, #20]
 80031d6:	4a09      	ldr	r2, [pc, #36]	; (80031fc <TIM_ETR_SetConfig+0x3c>)
 80031d8:	4013      	ands	r3, r2
 80031da:	617b      	str	r3, [r7, #20]

  /* Set the Prescaler, the Filter value and the Polarity */
  tmpsmcr |= (uint32_t)(TIM_ExtTRGPrescaler | (TIM_ExtTRGPolarity | (ExtTRGFilter << 8U)));
 80031dc:	683b      	ldr	r3, [r7, #0]
 80031de:	021a      	lsls	r2, r3, #8
 80031e0:	687b      	ldr	r3, [r7, #4]
 80031e2:	431a      	orrs	r2, r3
 80031e4:	68bb      	ldr	r3, [r7, #8]
 80031e6:	4313      	orrs	r3, r2
 80031e8:	697a      	ldr	r2, [r7, #20]
 80031ea:	4313      	orrs	r3, r2
 80031ec:	617b      	str	r3, [r7, #20]

  /* Write to TIMx SMCR */
  TIMx->SMCR = tmpsmcr;
 80031ee:	68fb      	ldr	r3, [r7, #12]
 80031f0:	697a      	ldr	r2, [r7, #20]
 80031f2:	609a      	str	r2, [r3, #8]
}
 80031f4:	46c0      	nop			; (mov r8, r8)
 80031f6:	46bd      	mov	sp, r7
 80031f8:	b006      	add	sp, #24
 80031fa:	bd80      	pop	{r7, pc}
 80031fc:	ffff00ff 	.word	0xffff00ff

08003200 <HAL_TIMEx_MasterConfigSynchronization>:
  *         mode.
  * @retval HAL status
  */
HAL_StatusTypeDef HAL_TIMEx_MasterConfigSynchronization(TIM_HandleTypeDef *htim,
                                                        const TIM_MasterConfigTypeDef *sMasterConfig)
{
 8003200:	b580      	push	{r7, lr}
 8003202:	b084      	sub	sp, #16
 8003204:	af00      	add	r7, sp, #0
 8003206:	6078      	str	r0, [r7, #4]
 8003208:	6039      	str	r1, [r7, #0]
  assert_param(IS_TIM_MASTER_INSTANCE(htim->Instance));
  assert_param(IS_TIM_TRGO_SOURCE(sMasterConfig->MasterOutputTrigger));
  assert_param(IS_TIM_MSM_STATE(sMasterConfig->MasterSlaveMode));

  /* Check input state */
  __HAL_LOCK(htim);
 800320a:	687b      	ldr	r3, [r7, #4]
 800320c:	223c      	movs	r2, #60	; 0x3c
 800320e:	5c9b      	ldrb	r3, [r3, r2]
 8003210:	2b01      	cmp	r3, #1
 8003212:	d101      	bne.n	8003218 <HAL_TIMEx_MasterConfigSynchronization+0x18>
 8003214:	2302      	movs	r3, #2
 8003216:	e05a      	b.n	80032ce <HAL_TIMEx_MasterConfigSynchronization+0xce>
 8003218:	687b      	ldr	r3, [r7, #4]
 800321a:	223c      	movs	r2, #60	; 0x3c
 800321c:	2101      	movs	r1, #1
 800321e:	5499      	strb	r1, [r3, r2]

  /* Change the handler state */
  htim->State = HAL_TIM_STATE_BUSY;
 8003220:	687b      	ldr	r3, [r7, #4]
 8003222:	223d      	movs	r2, #61	; 0x3d
 8003224:	2102      	movs	r1, #2
 8003226:	5499      	strb	r1, [r3, r2]

  /* Get the TIMx CR2 register value */
  tmpcr2 = htim->Instance->CR2;
 8003228:	687b      	ldr	r3, [r7, #4]
 800322a:	681b      	ldr	r3, [r3, #0]
 800322c:	685b      	ldr	r3, [r3, #4]
 800322e:	60fb      	str	r3, [r7, #12]

  /* Get the TIMx SMCR register value */
  tmpsmcr = htim->Instance->SMCR;
 8003230:	687b      	ldr	r3, [r7, #4]
 8003232:	681b      	ldr	r3, [r3, #0]
 8003234:	689b      	ldr	r3, [r3, #8]
 8003236:	60bb      	str	r3, [r7, #8]

  /* If the timer supports ADC synchronization through TRGO2, set the master mode selection 2 */
  if (IS_TIM_TRGO2_INSTANCE(htim->Instance))
 8003238:	687b      	ldr	r3, [r7, #4]
 800323a:	681b      	ldr	r3, [r3, #0]
 800323c:	4a26      	ldr	r2, [pc, #152]	; (80032d8 <HAL_TIMEx_MasterConfigSynchronization+0xd8>)
 800323e:	4293      	cmp	r3, r2
 8003240:	d108      	bne.n	8003254 <HAL_TIMEx_MasterConfigSynchronization+0x54>
  {
    /* Check the parameters */
    assert_param(IS_TIM_TRGO2_SOURCE(sMasterConfig->MasterOutputTrigger2));

    /* Clear the MMS2 bits */
    tmpcr2 &= ~TIM_CR2_MMS2;
 8003242:	68fb      	ldr	r3, [r7, #12]
 8003244:	4a25      	ldr	r2, [pc, #148]	; (80032dc <HAL_TIMEx_MasterConfigSynchronization+0xdc>)
 8003246:	4013      	ands	r3, r2
 8003248:	60fb      	str	r3, [r7, #12]
    /* Select the TRGO2 source*/
    tmpcr2 |= sMasterConfig->MasterOutputTrigger2;
 800324a:	683b      	ldr	r3, [r7, #0]
 800324c:	685b      	ldr	r3, [r3, #4]
 800324e:	68fa      	ldr	r2, [r7, #12]
 8003250:	4313      	orrs	r3, r2
 8003252:	60fb      	str	r3, [r7, #12]
  }

  /* Reset the MMS Bits */
  tmpcr2 &= ~TIM_CR2_MMS;
 8003254:	68fb      	ldr	r3, [r7, #12]
 8003256:	2270      	movs	r2, #112	; 0x70
 8003258:	4393      	bics	r3, r2
 800325a:	60fb      	str	r3, [r7, #12]
  /* Select the TRGO source */
  tmpcr2 |=  sMasterConfig->MasterOutputTrigger;
 800325c:	683b      	ldr	r3, [r7, #0]
 800325e:	681b      	ldr	r3, [r3, #0]
 8003260:	68fa      	ldr	r2, [r7, #12]
 8003262:	4313      	orrs	r3, r2
 8003264:	60fb      	str	r3, [r7, #12]

  /* Update TIMx CR2 */
  htim->Instance->CR2 = tmpcr2;
 8003266:	687b      	ldr	r3, [r7, #4]
 8003268:	681b      	ldr	r3, [r3, #0]
 800326a:	68fa      	ldr	r2, [r7, #12]
 800326c:	605a      	str	r2, [r3, #4]

  if (IS_TIM_SLAVE_INSTANCE(htim->Instance))
 800326e:	687b      	ldr	r3, [r7, #4]
 8003270:	681b      	ldr	r3, [r3, #0]
 8003272:	4a19      	ldr	r2, [pc, #100]	; (80032d8 <HAL_TIMEx_MasterConfigSynchronization+0xd8>)
 8003274:	4293      	cmp	r3, r2
 8003276:	d014      	beq.n	80032a2 <HAL_TIMEx_MasterConfigSynchronization+0xa2>
 8003278:	687b      	ldr	r3, [r7, #4]
 800327a:	681a      	ldr	r2, [r3, #0]
 800327c:	2380      	movs	r3, #128	; 0x80
 800327e:	05db      	lsls	r3, r3, #23
 8003280:	429a      	cmp	r2, r3
 8003282:	d00e      	beq.n	80032a2 <HAL_TIMEx_MasterConfigSynchronization+0xa2>
 8003284:	687b      	ldr	r3, [r7, #4]
 8003286:	681b      	ldr	r3, [r3, #0]
 8003288:	4a15      	ldr	r2, [pc, #84]	; (80032e0 <HAL_TIMEx_MasterConfigSynchronization+0xe0>)
 800328a:	4293      	cmp	r3, r2
 800328c:	d009      	beq.n	80032a2 <HAL_TIMEx_MasterConfigSynchronization+0xa2>
 800328e:	687b      	ldr	r3, [r7, #4]
 8003290:	681b      	ldr	r3, [r3, #0]
 8003292:	4a14      	ldr	r2, [pc, #80]	; (80032e4 <HAL_TIMEx_MasterConfigSynchronization+0xe4>)
 8003294:	4293      	cmp	r3, r2
 8003296:	d004      	beq.n	80032a2 <HAL_TIMEx_MasterConfigSynchronization+0xa2>
 8003298:	687b      	ldr	r3, [r7, #4]
 800329a:	681b      	ldr	r3, [r3, #0]
 800329c:	4a12      	ldr	r2, [pc, #72]	; (80032e8 <HAL_TIMEx_MasterConfigSynchronization+0xe8>)
 800329e:	4293      	cmp	r3, r2
 80032a0:	d10c      	bne.n	80032bc <HAL_TIMEx_MasterConfigSynchronization+0xbc>
  {
    /* Reset the MSM Bit */
    tmpsmcr &= ~TIM_SMCR_MSM;
 80032a2:	68bb      	ldr	r3, [r7, #8]
 80032a4:	2280      	movs	r2, #128	; 0x80
 80032a6:	4393      	bics	r3, r2
 80032a8:	60bb      	str	r3, [r7, #8]
    /* Set master mode */
    tmpsmcr |= sMasterConfig->MasterSlaveMode;
 80032aa:	683b      	ldr	r3, [r7, #0]
 80032ac:	689b      	ldr	r3, [r3, #8]
 80032ae:	68ba      	ldr	r2, [r7, #8]
 80032b0:	4313      	orrs	r3, r2
 80032b2:	60bb      	str	r3, [r7, #8]

    /* Update TIMx SMCR */
    htim->Instance->SMCR = tmpsmcr;
 80032b4:	687b      	ldr	r3, [r7, #4]
 80032b6:	681b      	ldr	r3, [r3, #0]
 80032b8:	68ba      	ldr	r2, [r7, #8]
 80032ba:	609a      	str	r2, [r3, #8]
  }

  /* Change the htim state */
  htim->State = HAL_TIM_STATE_READY;
 80032bc:	687b      	ldr	r3, [r7, #4]
 80032be:	223d      	movs	r2, #61	; 0x3d
 80032c0:	2101      	movs	r1, #1
 80032c2:	5499      	strb	r1, [r3, r2]

  __HAL_UNLOCK(htim);
 80032c4:	687b      	ldr	r3, [r7, #4]
 80032c6:	223c      	movs	r2, #60	; 0x3c
 80032c8:	2100      	movs	r1, #0
 80032ca:	5499      	strb	r1, [r3, r2]

  return HAL_OK;
 80032cc:	2300      	movs	r3, #0
}
 80032ce:	0018      	movs	r0, r3
 80032d0:	46bd      	mov	sp, r7
 80032d2:	b004      	add	sp, #16
 80032d4:	bd80      	pop	{r7, pc}
 80032d6:	46c0      	nop			; (mov r8, r8)
 80032d8:	40012c00 	.word	0x40012c00
 80032dc:	ff0fffff 	.word	0xff0fffff
 80032e0:	40000400 	.word	0x40000400
 80032e4:	40000800 	.word	0x40000800
 80032e8:	40014000 	.word	0x40014000

080032ec <HAL_TIMEx_ConfigBreakDeadTime>:
  *         interrupt can be enabled by calling the @ref __HAL_TIM_ENABLE_IT macro.
  * @retval HAL status
  */
HAL_StatusTypeDef HAL_TIMEx_ConfigBreakDeadTime(TIM_HandleTypeDef *htim,
                                                const TIM_BreakDeadTimeConfigTypeDef *sBreakDeadTimeConfig)
{
 80032ec:	b580      	push	{r7, lr}
 80032ee:	b084      	sub	sp, #16
 80032f0:	af00      	add	r7, sp, #0
 80032f2:	6078      	str	r0, [r7, #4]
 80032f4:	6039      	str	r1, [r7, #0]
  /* Keep this variable initialized to 0 as it is used to configure BDTR register */
  uint32_t tmpbdtr = 0U;
 80032f6:	2300      	movs	r3, #0
 80032f8:	60fb      	str	r3, [r7, #12]
  assert_param(IS_TIM_BREAK_FILTER(sBreakDeadTimeConfig->BreakFilter));
  assert_param(IS_TIM_AUTOMATIC_OUTPUT_STATE(sBreakDeadTimeConfig->AutomaticOutput));
  assert_param(IS_TIM_BREAK_AFMODE(sBreakDeadTimeConfig->BreakAFMode));

  /* Check input state */
  __HAL_LOCK(htim);
 80032fa:	687b      	ldr	r3, [r7, #4]
 80032fc:	223c      	movs	r2, #60	; 0x3c
 80032fe:	5c9b      	ldrb	r3, [r3, r2]
 8003300:	2b01      	cmp	r3, #1
 8003302:	d101      	bne.n	8003308 <HAL_TIMEx_ConfigBreakDeadTime+0x1c>
 8003304:	2302      	movs	r3, #2
 8003306:	e06f      	b.n	80033e8 <HAL_TIMEx_ConfigBreakDeadTime+0xfc>
 8003308:	687b      	ldr	r3, [r7, #4]
 800330a:	223c      	movs	r2, #60	; 0x3c
 800330c:	2101      	movs	r1, #1
 800330e:	5499      	strb	r1, [r3, r2]

  /* Set the Lock level, the Break enable Bit and the Polarity, the OSSR State,
     the OSSI State, the dead time value and the Automatic Output Enable Bit */

  /* Set the BDTR bits */
  MODIFY_REG(tmpbdtr, TIM_BDTR_DTG, sBreakDeadTimeConfig->DeadTime);
 8003310:	68fb      	ldr	r3, [r7, #12]
 8003312:	22ff      	movs	r2, #255	; 0xff
 8003314:	4393      	bics	r3, r2
 8003316:	001a      	movs	r2, r3
 8003318:	683b      	ldr	r3, [r7, #0]
 800331a:	68db      	ldr	r3, [r3, #12]
 800331c:	4313      	orrs	r3, r2
 800331e:	60fb      	str	r3, [r7, #12]
  MODIFY_REG(tmpbdtr, TIM_BDTR_LOCK, sBreakDeadTimeConfig->LockLevel);
 8003320:	68fb      	ldr	r3, [r7, #12]
 8003322:	4a33      	ldr	r2, [pc, #204]	; (80033f0 <HAL_TIMEx_ConfigBreakDeadTime+0x104>)
 8003324:	401a      	ands	r2, r3
 8003326:	683b      	ldr	r3, [r7, #0]
 8003328:	689b      	ldr	r3, [r3, #8]
 800332a:	4313      	orrs	r3, r2
 800332c:	60fb      	str	r3, [r7, #12]
  MODIFY_REG(tmpbdtr, TIM_BDTR_OSSI, sBreakDeadTimeConfig->OffStateIDLEMode);
 800332e:	68fb      	ldr	r3, [r7, #12]
 8003330:	4a30      	ldr	r2, [pc, #192]	; (80033f4 <HAL_TIMEx_ConfigBreakDeadTime+0x108>)
 8003332:	401a      	ands	r2, r3
 8003334:	683b      	ldr	r3, [r7, #0]
 8003336:	685b      	ldr	r3, [r3, #4]
 8003338:	4313      	orrs	r3, r2
 800333a:	60fb      	str	r3, [r7, #12]
  MODIFY_REG(tmpbdtr, TIM_BDTR_OSSR, sBreakDeadTimeConfig->OffStateRunMode);
 800333c:	68fb      	ldr	r3, [r7, #12]
 800333e:	4a2e      	ldr	r2, [pc, #184]	; (80033f8 <HAL_TIMEx_ConfigBreakDeadTime+0x10c>)
 8003340:	401a      	ands	r2, r3
 8003342:	683b      	ldr	r3, [r7, #0]
 8003344:	681b      	ldr	r3, [r3, #0]
 8003346:	4313      	orrs	r3, r2
 8003348:	60fb      	str	r3, [r7, #12]
  MODIFY_REG(tmpbdtr, TIM_BDTR_BKE, sBreakDeadTimeConfig->BreakState);
 800334a:	68fb      	ldr	r3, [r7, #12]
 800334c:	4a2b      	ldr	r2, [pc, #172]	; (80033fc <HAL_TIMEx_ConfigBreakDeadTime+0x110>)
 800334e:	401a      	ands	r2, r3
 8003350:	683b      	ldr	r3, [r7, #0]
 8003352:	691b      	ldr	r3, [r3, #16]
 8003354:	4313      	orrs	r3, r2
 8003356:	60fb      	str	r3, [r7, #12]
  MODIFY_REG(tmpbdtr, TIM_BDTR_BKP, sBreakDeadTimeConfig->BreakPolarity);
 8003358:	68fb      	ldr	r3, [r7, #12]
 800335a:	4a29      	ldr	r2, [pc, #164]	; (8003400 <HAL_TIMEx_ConfigBreakDeadTime+0x114>)
 800335c:	401a      	ands	r2, r3
 800335e:	683b      	ldr	r3, [r7, #0]
 8003360:	695b      	ldr	r3, [r3, #20]
 8003362:	4313      	orrs	r3, r2
 8003364:	60fb      	str	r3, [r7, #12]
  MODIFY_REG(tmpbdtr, TIM_BDTR_AOE, sBreakDeadTimeConfig->AutomaticOutput);
 8003366:	68fb      	ldr	r3, [r7, #12]
 8003368:	4a26      	ldr	r2, [pc, #152]	; (8003404 <HAL_TIMEx_ConfigBreakDeadTime+0x118>)
 800336a:	401a      	ands	r2, r3
 800336c:	683b      	ldr	r3, [r7, #0]
 800336e:	6b1b      	ldr	r3, [r3, #48]	; 0x30
 8003370:	4313      	orrs	r3, r2
 8003372:	60fb      	str	r3, [r7, #12]
  MODIFY_REG(tmpbdtr, TIM_BDTR_BKF, (sBreakDeadTimeConfig->BreakFilter << TIM_BDTR_BKF_Pos));
 8003374:	68fb      	ldr	r3, [r7, #12]
 8003376:	4a24      	ldr	r2, [pc, #144]	; (8003408 <HAL_TIMEx_ConfigBreakDeadTime+0x11c>)
 8003378:	401a      	ands	r2, r3
 800337a:	683b      	ldr	r3, [r7, #0]
 800337c:	699b      	ldr	r3, [r3, #24]
 800337e:	041b      	lsls	r3, r3, #16
 8003380:	4313      	orrs	r3, r2
 8003382:	60fb      	str	r3, [r7, #12]
  MODIFY_REG(tmpbdtr, TIM_BDTR_BKBID, sBreakDeadTimeConfig->BreakAFMode);
 8003384:	68fb      	ldr	r3, [r7, #12]
 8003386:	4a21      	ldr	r2, [pc, #132]	; (800340c <HAL_TIMEx_ConfigBreakDeadTime+0x120>)
 8003388:	401a      	ands	r2, r3
 800338a:	683b      	ldr	r3, [r7, #0]
 800338c:	69db      	ldr	r3, [r3, #28]
 800338e:	4313      	orrs	r3, r2
 8003390:	60fb      	str	r3, [r7, #12]

  if (IS_TIM_BKIN2_INSTANCE(htim->Instance))
 8003392:	687b      	ldr	r3, [r7, #4]
 8003394:	681b      	ldr	r3, [r3, #0]
 8003396:	4a1e      	ldr	r2, [pc, #120]	; (8003410 <HAL_TIMEx_ConfigBreakDeadTime+0x124>)
 8003398:	4293      	cmp	r3, r2
 800339a:	d11c      	bne.n	80033d6 <HAL_TIMEx_ConfigBreakDeadTime+0xea>
    assert_param(IS_TIM_BREAK2_POLARITY(sBreakDeadTimeConfig->Break2Polarity));
    assert_param(IS_TIM_BREAK_FILTER(sBreakDeadTimeConfig->Break2Filter));
    assert_param(IS_TIM_BREAK2_AFMODE(sBreakDeadTimeConfig->Break2AFMode));

    /* Set the BREAK2 input related BDTR bits */
    MODIFY_REG(tmpbdtr, TIM_BDTR_BK2F, (sBreakDeadTimeConfig->Break2Filter << TIM_BDTR_BK2F_Pos));
 800339c:	68fb      	ldr	r3, [r7, #12]
 800339e:	4a1d      	ldr	r2, [pc, #116]	; (8003414 <HAL_TIMEx_ConfigBreakDeadTime+0x128>)
 80033a0:	401a      	ands	r2, r3
 80033a2:	683b      	ldr	r3, [r7, #0]
 80033a4:	6a9b      	ldr	r3, [r3, #40]	; 0x28
 80033a6:	051b      	lsls	r3, r3, #20
 80033a8:	4313      	orrs	r3, r2
 80033aa:	60fb      	str	r3, [r7, #12]
    MODIFY_REG(tmpbdtr, TIM_BDTR_BK2E, sBreakDeadTimeConfig->Break2State);
 80033ac:	68fb      	ldr	r3, [r7, #12]
 80033ae:	4a1a      	ldr	r2, [pc, #104]	; (8003418 <HAL_TIMEx_ConfigBreakDeadTime+0x12c>)
 80033b0:	401a      	ands	r2, r3
 80033b2:	683b      	ldr	r3, [r7, #0]
 80033b4:	6a1b      	ldr	r3, [r3, #32]
 80033b6:	4313      	orrs	r3, r2
 80033b8:	60fb      	str	r3, [r7, #12]
    MODIFY_REG(tmpbdtr, TIM_BDTR_BK2P, sBreakDeadTimeConfig->Break2Polarity);
 80033ba:	68fb      	ldr	r3, [r7, #12]
 80033bc:	4a17      	ldr	r2, [pc, #92]	; (800341c <HAL_TIMEx_ConfigBreakDeadTime+0x130>)
 80033be:	401a      	ands	r2, r3
 80033c0:	683b      	ldr	r3, [r7, #0]
 80033c2:	6a5b      	ldr	r3, [r3, #36]	; 0x24
 80033c4:	4313      	orrs	r3, r2
 80033c6:	60fb      	str	r3, [r7, #12]
    MODIFY_REG(tmpbdtr, TIM_BDTR_BK2BID, sBreakDeadTimeConfig->Break2AFMode);
 80033c8:	68fb      	ldr	r3, [r7, #12]
 80033ca:	4a15      	ldr	r2, [pc, #84]	; (8003420 <HAL_TIMEx_ConfigBreakDeadTime+0x134>)
 80033cc:	401a      	ands	r2, r3
 80033ce:	683b      	ldr	r3, [r7, #0]
 80033d0:	6adb      	ldr	r3, [r3, #44]	; 0x2c
 80033d2:	4313      	orrs	r3, r2
 80033d4:	60fb      	str	r3, [r7, #12]
  }

  /* Set TIMx_BDTR */
  htim->Instance->BDTR = tmpbdtr;
 80033d6:	687b      	ldr	r3, [r7, #4]
 80033d8:	681b      	ldr	r3, [r3, #0]
 80033da:	68fa      	ldr	r2, [r7, #12]
 80033dc:	645a      	str	r2, [r3, #68]	; 0x44

  __HAL_UNLOCK(htim);
 80033de:	687b      	ldr	r3, [r7, #4]
 80033e0:	223c      	movs	r2, #60	; 0x3c
 80033e2:	2100      	movs	r1, #0
 80033e4:	5499      	strb	r1, [r3, r2]

  return HAL_OK;
 80033e6:	2300      	movs	r3, #0
}
 80033e8:	0018      	movs	r0, r3
 80033ea:	46bd      	mov	sp, r7
 80033ec:	b004      	add	sp, #16
 80033ee:	bd80      	pop	{r7, pc}
 80033f0:	fffffcff 	.word	0xfffffcff
 80033f4:	fffffbff 	.word	0xfffffbff
 80033f8:	fffff7ff 	.word	0xfffff7ff
 80033fc:	ffffefff 	.word	0xffffefff
 8003400:	ffffdfff 	.word	0xffffdfff
 8003404:	ffffbfff 	.word	0xffffbfff
 8003408:	fff0ffff 	.word	0xfff0ffff
 800340c:	efffffff 	.word	0xefffffff
 8003410:	40012c00 	.word	0x40012c00
 8003414:	ff0fffff 	.word	0xff0fffff
 8003418:	feffffff 	.word	0xfeffffff
 800341c:	fdffffff 	.word	0xfdffffff
 8003420:	dfffffff 	.word	0xdfffffff

08003424 <HAL_UART_Init>:
  *        parameters in the UART_InitTypeDef and initialize the associated handle.
  * @param huart UART handle.
  * @retval HAL status
  */
HAL_StatusTypeDef HAL_UART_Init(UART_HandleTypeDef *huart)
{
 8003424:	b580      	push	{r7, lr}
 8003426:	b082      	sub	sp, #8
 8003428:	af00      	add	r7, sp, #0
 800342a:	6078      	str	r0, [r7, #4]
  /* Check the UART handle allocation */
  if (huart == NULL)
 800342c:	687b      	ldr	r3, [r7, #4]
 800342e:	2b00      	cmp	r3, #0
 8003430:	d101      	bne.n	8003436 <HAL_UART_Init+0x12>
  {
    return HAL_ERROR;
 8003432:	2301      	movs	r3, #1
 8003434:	e046      	b.n	80034c4 <HAL_UART_Init+0xa0>
  {
    /* Check the parameters */
    assert_param((IS_UART_INSTANCE(huart->Instance)) || (IS_LPUART_INSTANCE(huart->Instance)));
  }

  if (huart->gState == HAL_UART_STATE_RESET)
 8003436:	687b      	ldr	r3, [r7, #4]
 8003438:	2288      	movs	r2, #136	; 0x88
 800343a:	589b      	ldr	r3, [r3, r2]
 800343c:	2b00      	cmp	r3, #0
 800343e:	d107      	bne.n	8003450 <HAL_UART_Init+0x2c>
  {
    /* Allocate lock resource and initialize it */
    huart->Lock = HAL_UNLOCKED;
 8003440:	687b      	ldr	r3, [r7, #4]
 8003442:	2284      	movs	r2, #132	; 0x84
 8003444:	2100      	movs	r1, #0
 8003446:	5499      	strb	r1, [r3, r2]

    /* Init the low level hardware */
    huart->MspInitCallback(huart);
#else
    /* Init the low level hardware : GPIO, CLOCK */
    HAL_UART_MspInit(huart);
 8003448:	687b      	ldr	r3, [r7, #4]
 800344a:	0018      	movs	r0, r3
 800344c:	f7fd fd58 	bl	8000f00 <HAL_UART_MspInit>
#endif /* (USE_HAL_UART_REGISTER_CALLBACKS) */
  }

  huart->gState = HAL_UART_STATE_BUSY;
 8003450:	687b      	ldr	r3, [r7, #4]
 8003452:	2288      	movs	r2, #136	; 0x88
 8003454:	2124      	movs	r1, #36	; 0x24
 8003456:	5099      	str	r1, [r3, r2]

  __HAL_UART_DISABLE(huart);
 8003458:	687b      	ldr	r3, [r7, #4]
 800345a:	681b      	ldr	r3, [r3, #0]
 800345c:	681a      	ldr	r2, [r3, #0]
 800345e:	687b      	ldr	r3, [r7, #4]
 8003460:	681b      	ldr	r3, [r3, #0]
 8003462:	2101      	movs	r1, #1
 8003464:	438a      	bics	r2, r1
 8003466:	601a      	str	r2, [r3, #0]

  /* Perform advanced settings configuration */
  /* For some items, configuration requires to be done prior TE and RE bits are set */
  if (huart->AdvancedInit.AdvFeatureInit != UART_ADVFEATURE_NO_INIT)
 8003468:	687b      	ldr	r3, [r7, #4]
 800346a:	6a9b      	ldr	r3, [r3, #40]	; 0x28
 800346c:	2b00      	cmp	r3, #0
 800346e:	d003      	beq.n	8003478 <HAL_UART_Init+0x54>
  {
    UART_AdvFeatureConfig(huart);
 8003470:	687b      	ldr	r3, [r7, #4]
 8003472:	0018      	movs	r0, r3
 8003474:	f000 fb82 	bl	8003b7c <UART_AdvFeatureConfig>
  }

  /* Set the UART Communication parameters */
  if (UART_SetConfig(huart) == HAL_ERROR)
 8003478:	687b      	ldr	r3, [r7, #4]
 800347a:	0018      	movs	r0, r3
 800347c:	f000 f828 	bl	80034d0 <UART_SetConfig>
 8003480:	0003      	movs	r3, r0
 8003482:	2b01      	cmp	r3, #1
 8003484:	d101      	bne.n	800348a <HAL_UART_Init+0x66>
  {
    return HAL_ERROR;
 8003486:	2301      	movs	r3, #1
 8003488:	e01c      	b.n	80034c4 <HAL_UART_Init+0xa0>
  }

  /* In asynchronous mode, the following bits must be kept cleared:
  - LINEN and CLKEN bits in the USART_CR2 register,
  - SCEN, HDSEL and IREN  bits in the USART_CR3 register.*/
  CLEAR_BIT(huart->Instance->CR2, (USART_CR2_LINEN | USART_CR2_CLKEN));
 800348a:	687b      	ldr	r3, [r7, #4]
 800348c:	681b      	ldr	r3, [r3, #0]
 800348e:	685a      	ldr	r2, [r3, #4]
 8003490:	687b      	ldr	r3, [r7, #4]
 8003492:	681b      	ldr	r3, [r3, #0]
 8003494:	490d      	ldr	r1, [pc, #52]	; (80034cc <HAL_UART_Init+0xa8>)
 8003496:	400a      	ands	r2, r1
 8003498:	605a      	str	r2, [r3, #4]
  CLEAR_BIT(huart->Instance->CR3, (USART_CR3_SCEN | USART_CR3_HDSEL | USART_CR3_IREN));
 800349a:	687b      	ldr	r3, [r7, #4]
 800349c:	681b      	ldr	r3, [r3, #0]
 800349e:	689a      	ldr	r2, [r3, #8]
 80034a0:	687b      	ldr	r3, [r7, #4]
 80034a2:	681b      	ldr	r3, [r3, #0]
 80034a4:	212a      	movs	r1, #42	; 0x2a
 80034a6:	438a      	bics	r2, r1
 80034a8:	609a      	str	r2, [r3, #8]

  __HAL_UART_ENABLE(huart);
 80034aa:	687b      	ldr	r3, [r7, #4]
 80034ac:	681b      	ldr	r3, [r3, #0]
 80034ae:	681a      	ldr	r2, [r3, #0]
 80034b0:	687b      	ldr	r3, [r7, #4]
 80034b2:	681b      	ldr	r3, [r3, #0]
 80034b4:	2101      	movs	r1, #1
 80034b6:	430a      	orrs	r2, r1
 80034b8:	601a      	str	r2, [r3, #0]

  /* TEACK and/or REACK to check before moving huart->gState and huart->RxState to Ready */
  return (UART_CheckIdleState(huart));
 80034ba:	687b      	ldr	r3, [r7, #4]
 80034bc:	0018      	movs	r0, r3
 80034be:	f000 fc11 	bl	8003ce4 <UART_CheckIdleState>
 80034c2:	0003      	movs	r3, r0
}
 80034c4:	0018      	movs	r0, r3
 80034c6:	46bd      	mov	sp, r7
 80034c8:	b002      	add	sp, #8
 80034ca:	bd80      	pop	{r7, pc}
 80034cc:	ffffb7ff 	.word	0xffffb7ff

080034d0 <UART_SetConfig>:
  * @brief Configure the UART peripheral.
  * @param huart UART handle.
  * @retval HAL status
  */
HAL_StatusTypeDef UART_SetConfig(UART_HandleTypeDef *huart)
{
 80034d0:	b5b0      	push	{r4, r5, r7, lr}
 80034d2:	b090      	sub	sp, #64	; 0x40
 80034d4:	af00      	add	r7, sp, #0
 80034d6:	6278      	str	r0, [r7, #36]	; 0x24
  uint32_t tmpreg;
  uint16_t brrtemp;
  UART_ClockSourceTypeDef clocksource;
  uint32_t usartdiv;
  HAL_StatusTypeDef ret               = HAL_OK;
 80034d8:	231a      	movs	r3, #26
 80034da:	2220      	movs	r2, #32
 80034dc:	189b      	adds	r3, r3, r2
 80034de:	19db      	adds	r3, r3, r7
 80034e0:	2200      	movs	r2, #0
 80034e2:	701a      	strb	r2, [r3, #0]
  *  the UART Word Length, Parity, Mode and oversampling:
  *  set the M bits according to huart->Init.WordLength value
  *  set PCE and PS bits according to huart->Init.Parity value
  *  set TE and RE bits according to huart->Init.Mode value
  *  set OVER8 bit according to huart->Init.OverSampling value */
  tmpreg = (uint32_t)huart->Init.WordLength | huart->Init.Parity | huart->Init.Mode | huart->Init.OverSampling ;
 80034e4:	6a7b      	ldr	r3, [r7, #36]	; 0x24
 80034e6:	689a      	ldr	r2, [r3, #8]
 80034e8:	6a7b      	ldr	r3, [r7, #36]	; 0x24
 80034ea:	691b      	ldr	r3, [r3, #16]
 80034ec:	431a      	orrs	r2, r3
 80034ee:	6a7b      	ldr	r3, [r7, #36]	; 0x24
 80034f0:	695b      	ldr	r3, [r3, #20]
 80034f2:	431a      	orrs	r2, r3
 80034f4:	6a7b      	ldr	r3, [r7, #36]	; 0x24
 80034f6:	69db      	ldr	r3, [r3, #28]
 80034f8:	4313      	orrs	r3, r2
 80034fa:	63fb      	str	r3, [r7, #60]	; 0x3c
  MODIFY_REG(huart->Instance->CR1, USART_CR1_FIELDS, tmpreg);
 80034fc:	6a7b      	ldr	r3, [r7, #36]	; 0x24
 80034fe:	681b      	ldr	r3, [r3, #0]
 8003500:	681b      	ldr	r3, [r3, #0]
 8003502:	4ac1      	ldr	r2, [pc, #772]	; (8003808 <UART_SetConfig+0x338>)
 8003504:	4013      	ands	r3, r2
 8003506:	0019      	movs	r1, r3
 8003508:	6a7b      	ldr	r3, [r7, #36]	; 0x24
 800350a:	681a      	ldr	r2, [r3, #0]
 800350c:	6bfb      	ldr	r3, [r7, #60]	; 0x3c
 800350e:	430b      	orrs	r3, r1
 8003510:	6013      	str	r3, [r2, #0]

  /*-------------------------- USART CR2 Configuration -----------------------*/
  /* Configure the UART Stop Bits: Set STOP[13:12] bits according
  * to huart->Init.StopBits value */
  MODIFY_REG(huart->Instance->CR2, USART_CR2_STOP, huart->Init.StopBits);
 8003512:	6a7b      	ldr	r3, [r7, #36]	; 0x24
 8003514:	681b      	ldr	r3, [r3, #0]
 8003516:	685b      	ldr	r3, [r3, #4]
 8003518:	4abc      	ldr	r2, [pc, #752]	; (800380c <UART_SetConfig+0x33c>)
 800351a:	4013      	ands	r3, r2
 800351c:	0018      	movs	r0, r3
 800351e:	6a7b      	ldr	r3, [r7, #36]	; 0x24
 8003520:	68d9      	ldr	r1, [r3, #12]
 8003522:	6a7b      	ldr	r3, [r7, #36]	; 0x24
 8003524:	681a      	ldr	r2, [r3, #0]
 8003526:	0003      	movs	r3, r0
 8003528:	430b      	orrs	r3, r1
 800352a:	6053      	str	r3, [r2, #4]
  /* Configure
  * - UART HardWare Flow Control: set CTSE and RTSE bits according
  *   to huart->Init.HwFlowCtl value
  * - one-bit sampling method versus three samples' majority rule according
  *   to huart->Init.OneBitSampling (not applicable to LPUART) */
  tmpreg = (uint32_t)huart->Init.HwFlowCtl;
 800352c:	6a7b      	ldr	r3, [r7, #36]	; 0x24
 800352e:	699b      	ldr	r3, [r3, #24]
 8003530:	63fb      	str	r3, [r7, #60]	; 0x3c

  if (!(UART_INSTANCE_LOWPOWER(huart)))
 8003532:	6a7b      	ldr	r3, [r7, #36]	; 0x24
 8003534:	681b      	ldr	r3, [r3, #0]
 8003536:	4ab6      	ldr	r2, [pc, #728]	; (8003810 <UART_SetConfig+0x340>)
 8003538:	4293      	cmp	r3, r2
 800353a:	d009      	beq.n	8003550 <UART_SetConfig+0x80>
 800353c:	6a7b      	ldr	r3, [r7, #36]	; 0x24
 800353e:	681b      	ldr	r3, [r3, #0]
 8003540:	4ab4      	ldr	r2, [pc, #720]	; (8003814 <UART_SetConfig+0x344>)
 8003542:	4293      	cmp	r3, r2
 8003544:	d004      	beq.n	8003550 <UART_SetConfig+0x80>
  {
    tmpreg |= huart->Init.OneBitSampling;
 8003546:	6a7b      	ldr	r3, [r7, #36]	; 0x24
 8003548:	6a1b      	ldr	r3, [r3, #32]
 800354a:	6bfa      	ldr	r2, [r7, #60]	; 0x3c
 800354c:	4313      	orrs	r3, r2
 800354e:	63fb      	str	r3, [r7, #60]	; 0x3c
  }
  MODIFY_REG(huart->Instance->CR3, USART_CR3_FIELDS, tmpreg);
 8003550:	6a7b      	ldr	r3, [r7, #36]	; 0x24
 8003552:	681b      	ldr	r3, [r3, #0]
 8003554:	689b      	ldr	r3, [r3, #8]
 8003556:	4ab0      	ldr	r2, [pc, #704]	; (8003818 <UART_SetConfig+0x348>)
 8003558:	4013      	ands	r3, r2
 800355a:	0019      	movs	r1, r3
 800355c:	6a7b      	ldr	r3, [r7, #36]	; 0x24
 800355e:	681a      	ldr	r2, [r3, #0]
 8003560:	6bfb      	ldr	r3, [r7, #60]	; 0x3c
 8003562:	430b      	orrs	r3, r1
 8003564:	6093      	str	r3, [r2, #8]

  /*-------------------------- USART PRESC Configuration -----------------------*/
  /* Configure
  * - UART Clock Prescaler : set PRESCALER according to huart->Init.ClockPrescaler value */
  MODIFY_REG(huart->Instance->PRESC, USART_PRESC_PRESCALER, huart->Init.ClockPrescaler);
 8003566:	6a7b      	ldr	r3, [r7, #36]	; 0x24
 8003568:	681b      	ldr	r3, [r3, #0]
 800356a:	6adb      	ldr	r3, [r3, #44]	; 0x2c
 800356c:	220f      	movs	r2, #15
 800356e:	4393      	bics	r3, r2
 8003570:	0018      	movs	r0, r3
 8003572:	6a7b      	ldr	r3, [r7, #36]	; 0x24
 8003574:	6a59      	ldr	r1, [r3, #36]	; 0x24
 8003576:	6a7b      	ldr	r3, [r7, #36]	; 0x24
 8003578:	681a      	ldr	r2, [r3, #0]
 800357a:	0003      	movs	r3, r0
 800357c:	430b      	orrs	r3, r1
 800357e:	62d3      	str	r3, [r2, #44]	; 0x2c

  /*-------------------------- USART BRR Configuration -----------------------*/
  UART_GETCLOCKSOURCE(huart, clocksource);
 8003580:	6a7b      	ldr	r3, [r7, #36]	; 0x24
 8003582:	681b      	ldr	r3, [r3, #0]
 8003584:	4aa5      	ldr	r2, [pc, #660]	; (800381c <UART_SetConfig+0x34c>)
 8003586:	4293      	cmp	r3, r2
 8003588:	d131      	bne.n	80035ee <UART_SetConfig+0x11e>
 800358a:	4ba5      	ldr	r3, [pc, #660]	; (8003820 <UART_SetConfig+0x350>)
 800358c:	6d5b      	ldr	r3, [r3, #84]	; 0x54
 800358e:	2203      	movs	r2, #3
 8003590:	4013      	ands	r3, r2
 8003592:	2b03      	cmp	r3, #3
 8003594:	d01d      	beq.n	80035d2 <UART_SetConfig+0x102>
 8003596:	d823      	bhi.n	80035e0 <UART_SetConfig+0x110>
 8003598:	2b02      	cmp	r3, #2
 800359a:	d00c      	beq.n	80035b6 <UART_SetConfig+0xe6>
 800359c:	d820      	bhi.n	80035e0 <UART_SetConfig+0x110>
 800359e:	2b00      	cmp	r3, #0
 80035a0:	d002      	beq.n	80035a8 <UART_SetConfig+0xd8>
 80035a2:	2b01      	cmp	r3, #1
 80035a4:	d00e      	beq.n	80035c4 <UART_SetConfig+0xf4>
 80035a6:	e01b      	b.n	80035e0 <UART_SetConfig+0x110>
 80035a8:	231b      	movs	r3, #27
 80035aa:	2220      	movs	r2, #32
 80035ac:	189b      	adds	r3, r3, r2
 80035ae:	19db      	adds	r3, r3, r7
 80035b0:	2200      	movs	r2, #0
 80035b2:	701a      	strb	r2, [r3, #0]
 80035b4:	e154      	b.n	8003860 <UART_SetConfig+0x390>
 80035b6:	231b      	movs	r3, #27
 80035b8:	2220      	movs	r2, #32
 80035ba:	189b      	adds	r3, r3, r2
 80035bc:	19db      	adds	r3, r3, r7
 80035be:	2202      	movs	r2, #2
 80035c0:	701a      	strb	r2, [r3, #0]
 80035c2:	e14d      	b.n	8003860 <UART_SetConfig+0x390>
 80035c4:	231b      	movs	r3, #27
 80035c6:	2220      	movs	r2, #32
 80035c8:	189b      	adds	r3, r3, r2
 80035ca:	19db      	adds	r3, r3, r7
 80035cc:	2204      	movs	r2, #4
 80035ce:	701a      	strb	r2, [r3, #0]
 80035d0:	e146      	b.n	8003860 <UART_SetConfig+0x390>
 80035d2:	231b      	movs	r3, #27
 80035d4:	2220      	movs	r2, #32
 80035d6:	189b      	adds	r3, r3, r2
 80035d8:	19db      	adds	r3, r3, r7
 80035da:	2208      	movs	r2, #8
 80035dc:	701a      	strb	r2, [r3, #0]
 80035de:	e13f      	b.n	8003860 <UART_SetConfig+0x390>
 80035e0:	231b      	movs	r3, #27
 80035e2:	2220      	movs	r2, #32
 80035e4:	189b      	adds	r3, r3, r2
 80035e6:	19db      	adds	r3, r3, r7
 80035e8:	2210      	movs	r2, #16
 80035ea:	701a      	strb	r2, [r3, #0]
 80035ec:	e138      	b.n	8003860 <UART_SetConfig+0x390>
 80035ee:	6a7b      	ldr	r3, [r7, #36]	; 0x24
 80035f0:	681b      	ldr	r3, [r3, #0]
 80035f2:	4a8c      	ldr	r2, [pc, #560]	; (8003824 <UART_SetConfig+0x354>)
 80035f4:	4293      	cmp	r3, r2
 80035f6:	d131      	bne.n	800365c <UART_SetConfig+0x18c>
 80035f8:	4b89      	ldr	r3, [pc, #548]	; (8003820 <UART_SetConfig+0x350>)
 80035fa:	6d5b      	ldr	r3, [r3, #84]	; 0x54
 80035fc:	220c      	movs	r2, #12
 80035fe:	4013      	ands	r3, r2
 8003600:	2b0c      	cmp	r3, #12
 8003602:	d01d      	beq.n	8003640 <UART_SetConfig+0x170>
 8003604:	d823      	bhi.n	800364e <UART_SetConfig+0x17e>
 8003606:	2b08      	cmp	r3, #8
 8003608:	d00c      	beq.n	8003624 <UART_SetConfig+0x154>
 800360a:	d820      	bhi.n	800364e <UART_SetConfig+0x17e>
 800360c:	2b00      	cmp	r3, #0
 800360e:	d002      	beq.n	8003616 <UART_SetConfig+0x146>
 8003610:	2b04      	cmp	r3, #4
 8003612:	d00e      	beq.n	8003632 <UART_SetConfig+0x162>
 8003614:	e01b      	b.n	800364e <UART_SetConfig+0x17e>
 8003616:	231b      	movs	r3, #27
 8003618:	2220      	movs	r2, #32
 800361a:	189b      	adds	r3, r3, r2
 800361c:	19db      	adds	r3, r3, r7
 800361e:	2200      	movs	r2, #0
 8003620:	701a      	strb	r2, [r3, #0]
 8003622:	e11d      	b.n	8003860 <UART_SetConfig+0x390>
 8003624:	231b      	movs	r3, #27
 8003626:	2220      	movs	r2, #32
 8003628:	189b      	adds	r3, r3, r2
 800362a:	19db      	adds	r3, r3, r7
 800362c:	2202      	movs	r2, #2
 800362e:	701a      	strb	r2, [r3, #0]
 8003630:	e116      	b.n	8003860 <UART_SetConfig+0x390>
 8003632:	231b      	movs	r3, #27
 8003634:	2220      	movs	r2, #32
 8003636:	189b      	adds	r3, r3, r2
 8003638:	19db      	adds	r3, r3, r7
 800363a:	2204      	movs	r2, #4
 800363c:	701a      	strb	r2, [r3, #0]
 800363e:	e10f      	b.n	8003860 <UART_SetConfig+0x390>
 8003640:	231b      	movs	r3, #27
 8003642:	2220      	movs	r2, #32
 8003644:	189b      	adds	r3, r3, r2
 8003646:	19db      	adds	r3, r3, r7
 8003648:	2208      	movs	r2, #8
 800364a:	701a      	strb	r2, [r3, #0]
 800364c:	e108      	b.n	8003860 <UART_SetConfig+0x390>
 800364e:	231b      	movs	r3, #27
 8003650:	2220      	movs	r2, #32
 8003652:	189b      	adds	r3, r3, r2
 8003654:	19db      	adds	r3, r3, r7
 8003656:	2210      	movs	r2, #16
 8003658:	701a      	strb	r2, [r3, #0]
 800365a:	e101      	b.n	8003860 <UART_SetConfig+0x390>
 800365c:	6a7b      	ldr	r3, [r7, #36]	; 0x24
 800365e:	681b      	ldr	r3, [r3, #0]
 8003660:	4a71      	ldr	r2, [pc, #452]	; (8003828 <UART_SetConfig+0x358>)
 8003662:	4293      	cmp	r3, r2
 8003664:	d131      	bne.n	80036ca <UART_SetConfig+0x1fa>
 8003666:	4b6e      	ldr	r3, [pc, #440]	; (8003820 <UART_SetConfig+0x350>)
 8003668:	6d5b      	ldr	r3, [r3, #84]	; 0x54
 800366a:	2230      	movs	r2, #48	; 0x30
 800366c:	4013      	ands	r3, r2
 800366e:	2b30      	cmp	r3, #48	; 0x30
 8003670:	d01d      	beq.n	80036ae <UART_SetConfig+0x1de>
 8003672:	d823      	bhi.n	80036bc <UART_SetConfig+0x1ec>
 8003674:	2b20      	cmp	r3, #32
 8003676:	d00c      	beq.n	8003692 <UART_SetConfig+0x1c2>
 8003678:	d820      	bhi.n	80036bc <UART_SetConfig+0x1ec>
 800367a:	2b00      	cmp	r3, #0
 800367c:	d002      	beq.n	8003684 <UART_SetConfig+0x1b4>
 800367e:	2b10      	cmp	r3, #16
 8003680:	d00e      	beq.n	80036a0 <UART_SetConfig+0x1d0>
 8003682:	e01b      	b.n	80036bc <UART_SetConfig+0x1ec>
 8003684:	231b      	movs	r3, #27
 8003686:	2220      	movs	r2, #32
 8003688:	189b      	adds	r3, r3, r2
 800368a:	19db      	adds	r3, r3, r7
 800368c:	2200      	movs	r2, #0
 800368e:	701a      	strb	r2, [r3, #0]
 8003690:	e0e6      	b.n	8003860 <UART_SetConfig+0x390>
 8003692:	231b      	movs	r3, #27
 8003694:	2220      	movs	r2, #32
 8003696:	189b      	adds	r3, r3, r2
 8003698:	19db      	adds	r3, r3, r7
 800369a:	2202      	movs	r2, #2
 800369c:	701a      	strb	r2, [r3, #0]
 800369e:	e0df      	b.n	8003860 <UART_SetConfig+0x390>
 80036a0:	231b      	movs	r3, #27
 80036a2:	2220      	movs	r2, #32
 80036a4:	189b      	adds	r3, r3, r2
 80036a6:	19db      	adds	r3, r3, r7
 80036a8:	2204      	movs	r2, #4
 80036aa:	701a      	strb	r2, [r3, #0]
 80036ac:	e0d8      	b.n	8003860 <UART_SetConfig+0x390>
 80036ae:	231b      	movs	r3, #27
 80036b0:	2220      	movs	r2, #32
 80036b2:	189b      	adds	r3, r3, r2
 80036b4:	19db      	adds	r3, r3, r7
 80036b6:	2208      	movs	r2, #8
 80036b8:	701a      	strb	r2, [r3, #0]
 80036ba:	e0d1      	b.n	8003860 <UART_SetConfig+0x390>
 80036bc:	231b      	movs	r3, #27
 80036be:	2220      	movs	r2, #32
 80036c0:	189b      	adds	r3, r3, r2
 80036c2:	19db      	adds	r3, r3, r7
 80036c4:	2210      	movs	r2, #16
 80036c6:	701a      	strb	r2, [r3, #0]
 80036c8:	e0ca      	b.n	8003860 <UART_SetConfig+0x390>
 80036ca:	6a7b      	ldr	r3, [r7, #36]	; 0x24
 80036cc:	681b      	ldr	r3, [r3, #0]
 80036ce:	4a57      	ldr	r2, [pc, #348]	; (800382c <UART_SetConfig+0x35c>)
 80036d0:	4293      	cmp	r3, r2
 80036d2:	d106      	bne.n	80036e2 <UART_SetConfig+0x212>
 80036d4:	231b      	movs	r3, #27
 80036d6:	2220      	movs	r2, #32
 80036d8:	189b      	adds	r3, r3, r2
 80036da:	19db      	adds	r3, r3, r7
 80036dc:	2200      	movs	r2, #0
 80036de:	701a      	strb	r2, [r3, #0]
 80036e0:	e0be      	b.n	8003860 <UART_SetConfig+0x390>
 80036e2:	6a7b      	ldr	r3, [r7, #36]	; 0x24
 80036e4:	681b      	ldr	r3, [r3, #0]
 80036e6:	4a52      	ldr	r2, [pc, #328]	; (8003830 <UART_SetConfig+0x360>)
 80036e8:	4293      	cmp	r3, r2
 80036ea:	d106      	bne.n	80036fa <UART_SetConfig+0x22a>
 80036ec:	231b      	movs	r3, #27
 80036ee:	2220      	movs	r2, #32
 80036f0:	189b      	adds	r3, r3, r2
 80036f2:	19db      	adds	r3, r3, r7
 80036f4:	2200      	movs	r2, #0
 80036f6:	701a      	strb	r2, [r3, #0]
 80036f8:	e0b2      	b.n	8003860 <UART_SetConfig+0x390>
 80036fa:	6a7b      	ldr	r3, [r7, #36]	; 0x24
 80036fc:	681b      	ldr	r3, [r3, #0]
 80036fe:	4a4d      	ldr	r2, [pc, #308]	; (8003834 <UART_SetConfig+0x364>)
 8003700:	4293      	cmp	r3, r2
 8003702:	d106      	bne.n	8003712 <UART_SetConfig+0x242>
 8003704:	231b      	movs	r3, #27
 8003706:	2220      	movs	r2, #32
 8003708:	189b      	adds	r3, r3, r2
 800370a:	19db      	adds	r3, r3, r7
 800370c:	2200      	movs	r2, #0
 800370e:	701a      	strb	r2, [r3, #0]
 8003710:	e0a6      	b.n	8003860 <UART_SetConfig+0x390>
 8003712:	6a7b      	ldr	r3, [r7, #36]	; 0x24
 8003714:	681b      	ldr	r3, [r3, #0]
 8003716:	4a3e      	ldr	r2, [pc, #248]	; (8003810 <UART_SetConfig+0x340>)
 8003718:	4293      	cmp	r3, r2
 800371a:	d13e      	bne.n	800379a <UART_SetConfig+0x2ca>
 800371c:	4b40      	ldr	r3, [pc, #256]	; (8003820 <UART_SetConfig+0x350>)
 800371e:	6d5a      	ldr	r2, [r3, #84]	; 0x54
 8003720:	23c0      	movs	r3, #192	; 0xc0
 8003722:	011b      	lsls	r3, r3, #4
 8003724:	4013      	ands	r3, r2
 8003726:	22c0      	movs	r2, #192	; 0xc0
 8003728:	0112      	lsls	r2, r2, #4
 800372a:	4293      	cmp	r3, r2
 800372c:	d027      	beq.n	800377e <UART_SetConfig+0x2ae>
 800372e:	22c0      	movs	r2, #192	; 0xc0
 8003730:	0112      	lsls	r2, r2, #4
 8003732:	4293      	cmp	r3, r2
 8003734:	d82a      	bhi.n	800378c <UART_SetConfig+0x2bc>
 8003736:	2280      	movs	r2, #128	; 0x80
 8003738:	0112      	lsls	r2, r2, #4
 800373a:	4293      	cmp	r3, r2
 800373c:	d011      	beq.n	8003762 <UART_SetConfig+0x292>
 800373e:	2280      	movs	r2, #128	; 0x80
 8003740:	0112      	lsls	r2, r2, #4
 8003742:	4293      	cmp	r3, r2
 8003744:	d822      	bhi.n	800378c <UART_SetConfig+0x2bc>
 8003746:	2b00      	cmp	r3, #0
 8003748:	d004      	beq.n	8003754 <UART_SetConfig+0x284>
 800374a:	2280      	movs	r2, #128	; 0x80
 800374c:	00d2      	lsls	r2, r2, #3
 800374e:	4293      	cmp	r3, r2
 8003750:	d00e      	beq.n	8003770 <UART_SetConfig+0x2a0>
 8003752:	e01b      	b.n	800378c <UART_SetConfig+0x2bc>
 8003754:	231b      	movs	r3, #27
 8003756:	2220      	movs	r2, #32
 8003758:	189b      	adds	r3, r3, r2
 800375a:	19db      	adds	r3, r3, r7
 800375c:	2200      	movs	r2, #0
 800375e:	701a      	strb	r2, [r3, #0]
 8003760:	e07e      	b.n	8003860 <UART_SetConfig+0x390>
 8003762:	231b      	movs	r3, #27
 8003764:	2220      	movs	r2, #32
 8003766:	189b      	adds	r3, r3, r2
 8003768:	19db      	adds	r3, r3, r7
 800376a:	2202      	movs	r2, #2
 800376c:	701a      	strb	r2, [r3, #0]
 800376e:	e077      	b.n	8003860 <UART_SetConfig+0x390>
 8003770:	231b      	movs	r3, #27
 8003772:	2220      	movs	r2, #32
 8003774:	189b      	adds	r3, r3, r2
 8003776:	19db      	adds	r3, r3, r7
 8003778:	2204      	movs	r2, #4
 800377a:	701a      	strb	r2, [r3, #0]
 800377c:	e070      	b.n	8003860 <UART_SetConfig+0x390>
 800377e:	231b      	movs	r3, #27
 8003780:	2220      	movs	r2, #32
 8003782:	189b      	adds	r3, r3, r2
 8003784:	19db      	adds	r3, r3, r7
 8003786:	2208      	movs	r2, #8
 8003788:	701a      	strb	r2, [r3, #0]
 800378a:	e069      	b.n	8003860 <UART_SetConfig+0x390>
 800378c:	231b      	movs	r3, #27
 800378e:	2220      	movs	r2, #32
 8003790:	189b      	adds	r3, r3, r2
 8003792:	19db      	adds	r3, r3, r7
 8003794:	2210      	movs	r2, #16
 8003796:	701a      	strb	r2, [r3, #0]
 8003798:	e062      	b.n	8003860 <UART_SetConfig+0x390>
 800379a:	6a7b      	ldr	r3, [r7, #36]	; 0x24
 800379c:	681b      	ldr	r3, [r3, #0]
 800379e:	4a1d      	ldr	r2, [pc, #116]	; (8003814 <UART_SetConfig+0x344>)
 80037a0:	4293      	cmp	r3, r2
 80037a2:	d157      	bne.n	8003854 <UART_SetConfig+0x384>
 80037a4:	4b1e      	ldr	r3, [pc, #120]	; (8003820 <UART_SetConfig+0x350>)
 80037a6:	6d5a      	ldr	r2, [r3, #84]	; 0x54
 80037a8:	23c0      	movs	r3, #192	; 0xc0
 80037aa:	009b      	lsls	r3, r3, #2
 80037ac:	4013      	ands	r3, r2
 80037ae:	22c0      	movs	r2, #192	; 0xc0
 80037b0:	0092      	lsls	r2, r2, #2
 80037b2:	4293      	cmp	r3, r2
 80037b4:	d040      	beq.n	8003838 <UART_SetConfig+0x368>
 80037b6:	22c0      	movs	r2, #192	; 0xc0
 80037b8:	0092      	lsls	r2, r2, #2
 80037ba:	4293      	cmp	r3, r2
 80037bc:	d843      	bhi.n	8003846 <UART_SetConfig+0x376>
 80037be:	2280      	movs	r2, #128	; 0x80
 80037c0:	0092      	lsls	r2, r2, #2
 80037c2:	4293      	cmp	r3, r2
 80037c4:	d011      	beq.n	80037ea <UART_SetConfig+0x31a>
 80037c6:	2280      	movs	r2, #128	; 0x80
 80037c8:	0092      	lsls	r2, r2, #2
 80037ca:	4293      	cmp	r3, r2
 80037cc:	d83b      	bhi.n	8003846 <UART_SetConfig+0x376>
 80037ce:	2b00      	cmp	r3, #0
 80037d0:	d004      	beq.n	80037dc <UART_SetConfig+0x30c>
 80037d2:	2280      	movs	r2, #128	; 0x80
 80037d4:	0052      	lsls	r2, r2, #1
 80037d6:	4293      	cmp	r3, r2
 80037d8:	d00e      	beq.n	80037f8 <UART_SetConfig+0x328>
 80037da:	e034      	b.n	8003846 <UART_SetConfig+0x376>
 80037dc:	231b      	movs	r3, #27
 80037de:	2220      	movs	r2, #32
 80037e0:	189b      	adds	r3, r3, r2
 80037e2:	19db      	adds	r3, r3, r7
 80037e4:	2200      	movs	r2, #0
 80037e6:	701a      	strb	r2, [r3, #0]
 80037e8:	e03a      	b.n	8003860 <UART_SetConfig+0x390>
 80037ea:	231b      	movs	r3, #27
 80037ec:	2220      	movs	r2, #32
 80037ee:	189b      	adds	r3, r3, r2
 80037f0:	19db      	adds	r3, r3, r7
 80037f2:	2202      	movs	r2, #2
 80037f4:	701a      	strb	r2, [r3, #0]
 80037f6:	e033      	b.n	8003860 <UART_SetConfig+0x390>
 80037f8:	231b      	movs	r3, #27
 80037fa:	2220      	movs	r2, #32
 80037fc:	189b      	adds	r3, r3, r2
 80037fe:	19db      	adds	r3, r3, r7
 8003800:	2204      	movs	r2, #4
 8003802:	701a      	strb	r2, [r3, #0]
 8003804:	e02c      	b.n	8003860 <UART_SetConfig+0x390>
 8003806:	46c0      	nop			; (mov r8, r8)
 8003808:	cfff69f3 	.word	0xcfff69f3
 800380c:	ffffcfff 	.word	0xffffcfff
 8003810:	40008000 	.word	0x40008000
 8003814:	40008400 	.word	0x40008400
 8003818:	11fff4ff 	.word	0x11fff4ff
 800381c:	40013800 	.word	0x40013800
 8003820:	40021000 	.word	0x40021000
 8003824:	40004400 	.word	0x40004400
 8003828:	40004800 	.word	0x40004800
 800382c:	40004c00 	.word	0x40004c00
 8003830:	40005000 	.word	0x40005000
 8003834:	40013c00 	.word	0x40013c00
 8003838:	231b      	movs	r3, #27
 800383a:	2220      	movs	r2, #32
 800383c:	189b      	adds	r3, r3, r2
 800383e:	19db      	adds	r3, r3, r7
 8003840:	2208      	movs	r2, #8
 8003842:	701a      	strb	r2, [r3, #0]
 8003844:	e00c      	b.n	8003860 <UART_SetConfig+0x390>
 8003846:	231b      	movs	r3, #27
 8003848:	2220      	movs	r2, #32
 800384a:	189b      	adds	r3, r3, r2
 800384c:	19db      	adds	r3, r3, r7
 800384e:	2210      	movs	r2, #16
 8003850:	701a      	strb	r2, [r3, #0]
 8003852:	e005      	b.n	8003860 <UART_SetConfig+0x390>
 8003854:	231b      	movs	r3, #27
 8003856:	2220      	movs	r2, #32
 8003858:	189b      	adds	r3, r3, r2
 800385a:	19db      	adds	r3, r3, r7
 800385c:	2210      	movs	r2, #16
 800385e:	701a      	strb	r2, [r3, #0]

  /* Check LPUART instance */
  if (UART_INSTANCE_LOWPOWER(huart))
 8003860:	6a7b      	ldr	r3, [r7, #36]	; 0x24
 8003862:	681b      	ldr	r3, [r3, #0]
 8003864:	4ac1      	ldr	r2, [pc, #772]	; (8003b6c <UART_SetConfig+0x69c>)
 8003866:	4293      	cmp	r3, r2
 8003868:	d005      	beq.n	8003876 <UART_SetConfig+0x3a6>
 800386a:	6a7b      	ldr	r3, [r7, #36]	; 0x24
 800386c:	681b      	ldr	r3, [r3, #0]
 800386e:	4ac0      	ldr	r2, [pc, #768]	; (8003b70 <UART_SetConfig+0x6a0>)
 8003870:	4293      	cmp	r3, r2
 8003872:	d000      	beq.n	8003876 <UART_SetConfig+0x3a6>
 8003874:	e093      	b.n	800399e <UART_SetConfig+0x4ce>
  {
    /* Retrieve frequency clock */
    switch (clocksource)
 8003876:	231b      	movs	r3, #27
 8003878:	2220      	movs	r2, #32
 800387a:	189b      	adds	r3, r3, r2
 800387c:	19db      	adds	r3, r3, r7
 800387e:	781b      	ldrb	r3, [r3, #0]
 8003880:	2b08      	cmp	r3, #8
 8003882:	d015      	beq.n	80038b0 <UART_SetConfig+0x3e0>
 8003884:	dc18      	bgt.n	80038b8 <UART_SetConfig+0x3e8>
 8003886:	2b04      	cmp	r3, #4
 8003888:	d00d      	beq.n	80038a6 <UART_SetConfig+0x3d6>
 800388a:	dc15      	bgt.n	80038b8 <UART_SetConfig+0x3e8>
 800388c:	2b00      	cmp	r3, #0
 800388e:	d002      	beq.n	8003896 <UART_SetConfig+0x3c6>
 8003890:	2b02      	cmp	r3, #2
 8003892:	d005      	beq.n	80038a0 <UART_SetConfig+0x3d0>
 8003894:	e010      	b.n	80038b8 <UART_SetConfig+0x3e8>
    {
      case UART_CLOCKSOURCE_PCLK1:
        pclk = HAL_RCC_GetPCLK1Freq();
 8003896:	f7fe fbdb 	bl	8002050 <HAL_RCC_GetPCLK1Freq>
 800389a:	0003      	movs	r3, r0
 800389c:	637b      	str	r3, [r7, #52]	; 0x34
        break;
 800389e:	e014      	b.n	80038ca <UART_SetConfig+0x3fa>
      case UART_CLOCKSOURCE_HSI:
        pclk = (uint32_t) HSI_VALUE;
 80038a0:	4bb4      	ldr	r3, [pc, #720]	; (8003b74 <UART_SetConfig+0x6a4>)
 80038a2:	637b      	str	r3, [r7, #52]	; 0x34
        break;
 80038a4:	e011      	b.n	80038ca <UART_SetConfig+0x3fa>
      case UART_CLOCKSOURCE_SYSCLK:
        pclk = HAL_RCC_GetSysClockFreq();
 80038a6:	f7fe fb47 	bl	8001f38 <HAL_RCC_GetSysClockFreq>
 80038aa:	0003      	movs	r3, r0
 80038ac:	637b      	str	r3, [r7, #52]	; 0x34
        break;
 80038ae:	e00c      	b.n	80038ca <UART_SetConfig+0x3fa>
      case UART_CLOCKSOURCE_LSE:
        pclk = (uint32_t) LSE_VALUE;
 80038b0:	2380      	movs	r3, #128	; 0x80
 80038b2:	021b      	lsls	r3, r3, #8
 80038b4:	637b      	str	r3, [r7, #52]	; 0x34
        break;
 80038b6:	e008      	b.n	80038ca <UART_SetConfig+0x3fa>
      default:
        pclk = 0U;
 80038b8:	2300      	movs	r3, #0
 80038ba:	637b      	str	r3, [r7, #52]	; 0x34
        ret = HAL_ERROR;
 80038bc:	231a      	movs	r3, #26
 80038be:	2220      	movs	r2, #32
 80038c0:	189b      	adds	r3, r3, r2
 80038c2:	19db      	adds	r3, r3, r7
 80038c4:	2201      	movs	r2, #1
 80038c6:	701a      	strb	r2, [r3, #0]
        break;
 80038c8:	46c0      	nop			; (mov r8, r8)
    }

    /* If proper clock source reported */
    if (pclk != 0U)
 80038ca:	6b7b      	ldr	r3, [r7, #52]	; 0x34
 80038cc:	2b00      	cmp	r3, #0
 80038ce:	d100      	bne.n	80038d2 <UART_SetConfig+0x402>
 80038d0:	e135      	b.n	8003b3e <UART_SetConfig+0x66e>
    {
      /* Compute clock after Prescaler */
      lpuart_ker_ck_pres = (pclk / UARTPrescTable[huart->Init.ClockPrescaler]);
 80038d2:	6a7b      	ldr	r3, [r7, #36]	; 0x24
 80038d4:	6a5a      	ldr	r2, [r3, #36]	; 0x24
 80038d6:	4ba8      	ldr	r3, [pc, #672]	; (8003b78 <UART_SetConfig+0x6a8>)
 80038d8:	0052      	lsls	r2, r2, #1
 80038da:	5ad3      	ldrh	r3, [r2, r3]
 80038dc:	0019      	movs	r1, r3
 80038de:	6b78      	ldr	r0, [r7, #52]	; 0x34
 80038e0:	f7fc fc10 	bl	8000104 <__udivsi3>
 80038e4:	0003      	movs	r3, r0
 80038e6:	62bb      	str	r3, [r7, #40]	; 0x28

      /* Ensure that Frequency clock is in the range [3 * baudrate, 4096 * baudrate] */
      if ((lpuart_ker_ck_pres < (3U * huart->Init.BaudRate)) ||
 80038e8:	6a7b      	ldr	r3, [r7, #36]	; 0x24
 80038ea:	685a      	ldr	r2, [r3, #4]
 80038ec:	0013      	movs	r3, r2
 80038ee:	005b      	lsls	r3, r3, #1
 80038f0:	189b      	adds	r3, r3, r2
 80038f2:	6aba      	ldr	r2, [r7, #40]	; 0x28
 80038f4:	429a      	cmp	r2, r3
 80038f6:	d305      	bcc.n	8003904 <UART_SetConfig+0x434>
          (lpuart_ker_ck_pres > (4096U * huart->Init.BaudRate)))
 80038f8:	6a7b      	ldr	r3, [r7, #36]	; 0x24
 80038fa:	685b      	ldr	r3, [r3, #4]
 80038fc:	031b      	lsls	r3, r3, #12
      if ((lpuart_ker_ck_pres < (3U * huart->Init.BaudRate)) ||
 80038fe:	6aba      	ldr	r2, [r7, #40]	; 0x28
 8003900:	429a      	cmp	r2, r3
 8003902:	d906      	bls.n	8003912 <UART_SetConfig+0x442>
      {
        ret = HAL_ERROR;
 8003904:	231a      	movs	r3, #26
 8003906:	2220      	movs	r2, #32
 8003908:	189b      	adds	r3, r3, r2
 800390a:	19db      	adds	r3, r3, r7
 800390c:	2201      	movs	r2, #1
 800390e:	701a      	strb	r2, [r3, #0]
 8003910:	e044      	b.n	800399c <UART_SetConfig+0x4cc>
      }
      else
      {
        /* Check computed UsartDiv value is in allocated range
           (it is forbidden to write values lower than 0x300 in the LPUART_BRR register) */
        usartdiv = (uint32_t)(UART_DIV_LPUART(pclk, huart->Init.BaudRate, huart->Init.ClockPrescaler));
 8003912:	6b7b      	ldr	r3, [r7, #52]	; 0x34
 8003914:	61bb      	str	r3, [r7, #24]
 8003916:	2300      	movs	r3, #0
 8003918:	61fb      	str	r3, [r7, #28]
 800391a:	6a7b      	ldr	r3, [r7, #36]	; 0x24
 800391c:	6a5a      	ldr	r2, [r3, #36]	; 0x24
 800391e:	4b96      	ldr	r3, [pc, #600]	; (8003b78 <UART_SetConfig+0x6a8>)
 8003920:	0052      	lsls	r2, r2, #1
 8003922:	5ad3      	ldrh	r3, [r2, r3]
 8003924:	613b      	str	r3, [r7, #16]
 8003926:	2300      	movs	r3, #0
 8003928:	617b      	str	r3, [r7, #20]
 800392a:	693a      	ldr	r2, [r7, #16]
 800392c:	697b      	ldr	r3, [r7, #20]
 800392e:	69b8      	ldr	r0, [r7, #24]
 8003930:	69f9      	ldr	r1, [r7, #28]
 8003932:	f7fc fd5d 	bl	80003f0 <__aeabi_uldivmod>
 8003936:	0002      	movs	r2, r0
 8003938:	000b      	movs	r3, r1
 800393a:	0e11      	lsrs	r1, r2, #24
 800393c:	021d      	lsls	r5, r3, #8
 800393e:	430d      	orrs	r5, r1
 8003940:	0214      	lsls	r4, r2, #8
 8003942:	6a7b      	ldr	r3, [r7, #36]	; 0x24
 8003944:	685b      	ldr	r3, [r3, #4]
 8003946:	085b      	lsrs	r3, r3, #1
 8003948:	60bb      	str	r3, [r7, #8]
 800394a:	2300      	movs	r3, #0
 800394c:	60fb      	str	r3, [r7, #12]
 800394e:	68b8      	ldr	r0, [r7, #8]
 8003950:	68f9      	ldr	r1, [r7, #12]
 8003952:	1900      	adds	r0, r0, r4
 8003954:	4169      	adcs	r1, r5
 8003956:	6a7b      	ldr	r3, [r7, #36]	; 0x24
 8003958:	685b      	ldr	r3, [r3, #4]
 800395a:	603b      	str	r3, [r7, #0]
 800395c:	2300      	movs	r3, #0
 800395e:	607b      	str	r3, [r7, #4]
 8003960:	683a      	ldr	r2, [r7, #0]
 8003962:	687b      	ldr	r3, [r7, #4]
 8003964:	f7fc fd44 	bl	80003f0 <__aeabi_uldivmod>
 8003968:	0002      	movs	r2, r0
 800396a:	000b      	movs	r3, r1
 800396c:	0013      	movs	r3, r2
 800396e:	633b      	str	r3, [r7, #48]	; 0x30
        if ((usartdiv >= LPUART_BRR_MIN) && (usartdiv <= LPUART_BRR_MAX))
 8003970:	6b3a      	ldr	r2, [r7, #48]	; 0x30
 8003972:	23c0      	movs	r3, #192	; 0xc0
 8003974:	009b      	lsls	r3, r3, #2
 8003976:	429a      	cmp	r2, r3
 8003978:	d309      	bcc.n	800398e <UART_SetConfig+0x4be>
 800397a:	6b3a      	ldr	r2, [r7, #48]	; 0x30
 800397c:	2380      	movs	r3, #128	; 0x80
 800397e:	035b      	lsls	r3, r3, #13
 8003980:	429a      	cmp	r2, r3
 8003982:	d204      	bcs.n	800398e <UART_SetConfig+0x4be>
        {
          huart->Instance->BRR = usartdiv;
 8003984:	6a7b      	ldr	r3, [r7, #36]	; 0x24
 8003986:	681b      	ldr	r3, [r3, #0]
 8003988:	6b3a      	ldr	r2, [r7, #48]	; 0x30
 800398a:	60da      	str	r2, [r3, #12]
 800398c:	e006      	b.n	800399c <UART_SetConfig+0x4cc>
        }
        else
        {
          ret = HAL_ERROR;
 800398e:	231a      	movs	r3, #26
 8003990:	2220      	movs	r2, #32
 8003992:	189b      	adds	r3, r3, r2
 8003994:	19db      	adds	r3, r3, r7
 8003996:	2201      	movs	r2, #1
 8003998:	701a      	strb	r2, [r3, #0]
    if (pclk != 0U)
 800399a:	e0d0      	b.n	8003b3e <UART_SetConfig+0x66e>
 800399c:	e0cf      	b.n	8003b3e <UART_SetConfig+0x66e>
      } /* if ( (lpuart_ker_ck_pres < (3 * huart->Init.BaudRate) ) ||
                (lpuart_ker_ck_pres > (4096 * huart->Init.BaudRate) )) */
    } /* if (pclk != 0) */
  }
  /* Check UART Over Sampling to set Baud Rate Register */
  else if (huart->Init.OverSampling == UART_OVERSAMPLING_8)
 800399e:	6a7b      	ldr	r3, [r7, #36]	; 0x24
 80039a0:	69da      	ldr	r2, [r3, #28]
 80039a2:	2380      	movs	r3, #128	; 0x80
 80039a4:	021b      	lsls	r3, r3, #8
 80039a6:	429a      	cmp	r2, r3
 80039a8:	d000      	beq.n	80039ac <UART_SetConfig+0x4dc>
 80039aa:	e070      	b.n	8003a8e <UART_SetConfig+0x5be>
  {
    switch (clocksource)
 80039ac:	231b      	movs	r3, #27
 80039ae:	2220      	movs	r2, #32
 80039b0:	189b      	adds	r3, r3, r2
 80039b2:	19db      	adds	r3, r3, r7
 80039b4:	781b      	ldrb	r3, [r3, #0]
 80039b6:	2b08      	cmp	r3, #8
 80039b8:	d015      	beq.n	80039e6 <UART_SetConfig+0x516>
 80039ba:	dc18      	bgt.n	80039ee <UART_SetConfig+0x51e>
 80039bc:	2b04      	cmp	r3, #4
 80039be:	d00d      	beq.n	80039dc <UART_SetConfig+0x50c>
 80039c0:	dc15      	bgt.n	80039ee <UART_SetConfig+0x51e>
 80039c2:	2b00      	cmp	r3, #0
 80039c4:	d002      	beq.n	80039cc <UART_SetConfig+0x4fc>
 80039c6:	2b02      	cmp	r3, #2
 80039c8:	d005      	beq.n	80039d6 <UART_SetConfig+0x506>
 80039ca:	e010      	b.n	80039ee <UART_SetConfig+0x51e>
    {
      case UART_CLOCKSOURCE_PCLK1:
        pclk = HAL_RCC_GetPCLK1Freq();
 80039cc:	f7fe fb40 	bl	8002050 <HAL_RCC_GetPCLK1Freq>
 80039d0:	0003      	movs	r3, r0
 80039d2:	637b      	str	r3, [r7, #52]	; 0x34
        break;
 80039d4:	e014      	b.n	8003a00 <UART_SetConfig+0x530>
      case UART_CLOCKSOURCE_HSI:
        pclk = (uint32_t) HSI_VALUE;
 80039d6:	4b67      	ldr	r3, [pc, #412]	; (8003b74 <UART_SetConfig+0x6a4>)
 80039d8:	637b      	str	r3, [r7, #52]	; 0x34
        break;
 80039da:	e011      	b.n	8003a00 <UART_SetConfig+0x530>
      case UART_CLOCKSOURCE_SYSCLK:
        pclk = HAL_RCC_GetSysClockFreq();
 80039dc:	f7fe faac 	bl	8001f38 <HAL_RCC_GetSysClockFreq>
 80039e0:	0003      	movs	r3, r0
 80039e2:	637b      	str	r3, [r7, #52]	; 0x34
        break;
 80039e4:	e00c      	b.n	8003a00 <UART_SetConfig+0x530>
      case UART_CLOCKSOURCE_LSE:
        pclk = (uint32_t) LSE_VALUE;
 80039e6:	2380      	movs	r3, #128	; 0x80
 80039e8:	021b      	lsls	r3, r3, #8
 80039ea:	637b      	str	r3, [r7, #52]	; 0x34
        break;
 80039ec:	e008      	b.n	8003a00 <UART_SetConfig+0x530>
      default:
        pclk = 0U;
 80039ee:	2300      	movs	r3, #0
 80039f0:	637b      	str	r3, [r7, #52]	; 0x34
        ret = HAL_ERROR;
 80039f2:	231a      	movs	r3, #26
 80039f4:	2220      	movs	r2, #32
 80039f6:	189b      	adds	r3, r3, r2
 80039f8:	19db      	adds	r3, r3, r7
 80039fa:	2201      	movs	r2, #1
 80039fc:	701a      	strb	r2, [r3, #0]
        break;
 80039fe:	46c0      	nop			; (mov r8, r8)
    }

    /* USARTDIV must be greater than or equal to 0d16 */
    if (pclk != 0U)
 8003a00:	6b7b      	ldr	r3, [r7, #52]	; 0x34
 8003a02:	2b00      	cmp	r3, #0
 8003a04:	d100      	bne.n	8003a08 <UART_SetConfig+0x538>
 8003a06:	e09a      	b.n	8003b3e <UART_SetConfig+0x66e>
    {
      usartdiv = (uint32_t)(UART_DIV_SAMPLING8(pclk, huart->Init.BaudRate, huart->Init.ClockPrescaler));
 8003a08:	6a7b      	ldr	r3, [r7, #36]	; 0x24
 8003a0a:	6a5a      	ldr	r2, [r3, #36]	; 0x24
 8003a0c:	4b5a      	ldr	r3, [pc, #360]	; (8003b78 <UART_SetConfig+0x6a8>)
 8003a0e:	0052      	lsls	r2, r2, #1
 8003a10:	5ad3      	ldrh	r3, [r2, r3]
 8003a12:	0019      	movs	r1, r3
 8003a14:	6b78      	ldr	r0, [r7, #52]	; 0x34
 8003a16:	f7fc fb75 	bl	8000104 <__udivsi3>
 8003a1a:	0003      	movs	r3, r0
 8003a1c:	005a      	lsls	r2, r3, #1
 8003a1e:	6a7b      	ldr	r3, [r7, #36]	; 0x24
 8003a20:	685b      	ldr	r3, [r3, #4]
 8003a22:	085b      	lsrs	r3, r3, #1
 8003a24:	18d2      	adds	r2, r2, r3
 8003a26:	6a7b      	ldr	r3, [r7, #36]	; 0x24
 8003a28:	685b      	ldr	r3, [r3, #4]
 8003a2a:	0019      	movs	r1, r3
 8003a2c:	0010      	movs	r0, r2
 8003a2e:	f7fc fb69 	bl	8000104 <__udivsi3>
 8003a32:	0003      	movs	r3, r0
 8003a34:	633b      	str	r3, [r7, #48]	; 0x30
      if ((usartdiv >= UART_BRR_MIN) && (usartdiv <= UART_BRR_MAX))
 8003a36:	6b3b      	ldr	r3, [r7, #48]	; 0x30
 8003a38:	2b0f      	cmp	r3, #15
 8003a3a:	d921      	bls.n	8003a80 <UART_SetConfig+0x5b0>
 8003a3c:	6b3a      	ldr	r2, [r7, #48]	; 0x30
 8003a3e:	2380      	movs	r3, #128	; 0x80
 8003a40:	025b      	lsls	r3, r3, #9
 8003a42:	429a      	cmp	r2, r3
 8003a44:	d21c      	bcs.n	8003a80 <UART_SetConfig+0x5b0>
      {
        brrtemp = (uint16_t)(usartdiv & 0xFFF0U);
 8003a46:	6b3b      	ldr	r3, [r7, #48]	; 0x30
 8003a48:	b29a      	uxth	r2, r3
 8003a4a:	200e      	movs	r0, #14
 8003a4c:	2420      	movs	r4, #32
 8003a4e:	1903      	adds	r3, r0, r4
 8003a50:	19db      	adds	r3, r3, r7
 8003a52:	210f      	movs	r1, #15
 8003a54:	438a      	bics	r2, r1
 8003a56:	801a      	strh	r2, [r3, #0]
        brrtemp |= (uint16_t)((usartdiv & (uint16_t)0x000FU) >> 1U);
 8003a58:	6b3b      	ldr	r3, [r7, #48]	; 0x30
 8003a5a:	085b      	lsrs	r3, r3, #1
 8003a5c:	b29b      	uxth	r3, r3
 8003a5e:	2207      	movs	r2, #7
 8003a60:	4013      	ands	r3, r2
 8003a62:	b299      	uxth	r1, r3
 8003a64:	1903      	adds	r3, r0, r4
 8003a66:	19db      	adds	r3, r3, r7
 8003a68:	1902      	adds	r2, r0, r4
 8003a6a:	19d2      	adds	r2, r2, r7
 8003a6c:	8812      	ldrh	r2, [r2, #0]
 8003a6e:	430a      	orrs	r2, r1
 8003a70:	801a      	strh	r2, [r3, #0]
        huart->Instance->BRR = brrtemp;
 8003a72:	6a7b      	ldr	r3, [r7, #36]	; 0x24
 8003a74:	681b      	ldr	r3, [r3, #0]
 8003a76:	1902      	adds	r2, r0, r4
 8003a78:	19d2      	adds	r2, r2, r7
 8003a7a:	8812      	ldrh	r2, [r2, #0]
 8003a7c:	60da      	str	r2, [r3, #12]
 8003a7e:	e05e      	b.n	8003b3e <UART_SetConfig+0x66e>
      }
      else
      {
        ret = HAL_ERROR;
 8003a80:	231a      	movs	r3, #26
 8003a82:	2220      	movs	r2, #32
 8003a84:	189b      	adds	r3, r3, r2
 8003a86:	19db      	adds	r3, r3, r7
 8003a88:	2201      	movs	r2, #1
 8003a8a:	701a      	strb	r2, [r3, #0]
 8003a8c:	e057      	b.n	8003b3e <UART_SetConfig+0x66e>
      }
    }
  }
  else
  {
    switch (clocksource)
 8003a8e:	231b      	movs	r3, #27
 8003a90:	2220      	movs	r2, #32
 8003a92:	189b      	adds	r3, r3, r2
 8003a94:	19db      	adds	r3, r3, r7
 8003a96:	781b      	ldrb	r3, [r3, #0]
 8003a98:	2b08      	cmp	r3, #8
 8003a9a:	d015      	beq.n	8003ac8 <UART_SetConfig+0x5f8>
 8003a9c:	dc18      	bgt.n	8003ad0 <UART_SetConfig+0x600>
 8003a9e:	2b04      	cmp	r3, #4
 8003aa0:	d00d      	beq.n	8003abe <UART_SetConfig+0x5ee>
 8003aa2:	dc15      	bgt.n	8003ad0 <UART_SetConfig+0x600>
 8003aa4:	2b00      	cmp	r3, #0
 8003aa6:	d002      	beq.n	8003aae <UART_SetConfig+0x5de>
 8003aa8:	2b02      	cmp	r3, #2
 8003aaa:	d005      	beq.n	8003ab8 <UART_SetConfig+0x5e8>
 8003aac:	e010      	b.n	8003ad0 <UART_SetConfig+0x600>
    {
      case UART_CLOCKSOURCE_PCLK1:
        pclk = HAL_RCC_GetPCLK1Freq();
 8003aae:	f7fe facf 	bl	8002050 <HAL_RCC_GetPCLK1Freq>
 8003ab2:	0003      	movs	r3, r0
 8003ab4:	637b      	str	r3, [r7, #52]	; 0x34
        break;
 8003ab6:	e014      	b.n	8003ae2 <UART_SetConfig+0x612>
      case UART_CLOCKSOURCE_HSI:
        pclk = (uint32_t) HSI_VALUE;
 8003ab8:	4b2e      	ldr	r3, [pc, #184]	; (8003b74 <UART_SetConfig+0x6a4>)
 8003aba:	637b      	str	r3, [r7, #52]	; 0x34
        break;
 8003abc:	e011      	b.n	8003ae2 <UART_SetConfig+0x612>
      case UART_CLOCKSOURCE_SYSCLK:
        pclk = HAL_RCC_GetSysClockFreq();
 8003abe:	f7fe fa3b 	bl	8001f38 <HAL_RCC_GetSysClockFreq>
 8003ac2:	0003      	movs	r3, r0
 8003ac4:	637b      	str	r3, [r7, #52]	; 0x34
        break;
 8003ac6:	e00c      	b.n	8003ae2 <UART_SetConfig+0x612>
      case UART_CLOCKSOURCE_LSE:
        pclk = (uint32_t) LSE_VALUE;
 8003ac8:	2380      	movs	r3, #128	; 0x80
 8003aca:	021b      	lsls	r3, r3, #8
 8003acc:	637b      	str	r3, [r7, #52]	; 0x34
        break;
 8003ace:	e008      	b.n	8003ae2 <UART_SetConfig+0x612>
      default:
        pclk = 0U;
 8003ad0:	2300      	movs	r3, #0
 8003ad2:	637b      	str	r3, [r7, #52]	; 0x34
        ret = HAL_ERROR;
 8003ad4:	231a      	movs	r3, #26
 8003ad6:	2220      	movs	r2, #32
 8003ad8:	189b      	adds	r3, r3, r2
 8003ada:	19db      	adds	r3, r3, r7
 8003adc:	2201      	movs	r2, #1
 8003ade:	701a      	strb	r2, [r3, #0]
        break;
 8003ae0:	46c0      	nop			; (mov r8, r8)
    }

    if (pclk != 0U)
 8003ae2:	6b7b      	ldr	r3, [r7, #52]	; 0x34
 8003ae4:	2b00      	cmp	r3, #0
 8003ae6:	d02a      	beq.n	8003b3e <UART_SetConfig+0x66e>
    {
      /* USARTDIV must be greater than or equal to 0d16 */
      usartdiv = (uint32_t)(UART_DIV_SAMPLING16(pclk, huart->Init.BaudRate, huart->Init.ClockPrescaler));
 8003ae8:	6a7b      	ldr	r3, [r7, #36]	; 0x24
 8003aea:	6a5a      	ldr	r2, [r3, #36]	; 0x24
 8003aec:	4b22      	ldr	r3, [pc, #136]	; (8003b78 <UART_SetConfig+0x6a8>)
 8003aee:	0052      	lsls	r2, r2, #1
 8003af0:	5ad3      	ldrh	r3, [r2, r3]
 8003af2:	0019      	movs	r1, r3
 8003af4:	6b78      	ldr	r0, [r7, #52]	; 0x34
 8003af6:	f7fc fb05 	bl	8000104 <__udivsi3>
 8003afa:	0003      	movs	r3, r0
 8003afc:	001a      	movs	r2, r3
 8003afe:	6a7b      	ldr	r3, [r7, #36]	; 0x24
 8003b00:	685b      	ldr	r3, [r3, #4]
 8003b02:	085b      	lsrs	r3, r3, #1
 8003b04:	18d2      	adds	r2, r2, r3
 8003b06:	6a7b      	ldr	r3, [r7, #36]	; 0x24
 8003b08:	685b      	ldr	r3, [r3, #4]
 8003b0a:	0019      	movs	r1, r3
 8003b0c:	0010      	movs	r0, r2
 8003b0e:	f7fc faf9 	bl	8000104 <__udivsi3>
 8003b12:	0003      	movs	r3, r0
 8003b14:	633b      	str	r3, [r7, #48]	; 0x30
      if ((usartdiv >= UART_BRR_MIN) && (usartdiv <= UART_BRR_MAX))
 8003b16:	6b3b      	ldr	r3, [r7, #48]	; 0x30
 8003b18:	2b0f      	cmp	r3, #15
 8003b1a:	d90a      	bls.n	8003b32 <UART_SetConfig+0x662>
 8003b1c:	6b3a      	ldr	r2, [r7, #48]	; 0x30
 8003b1e:	2380      	movs	r3, #128	; 0x80
 8003b20:	025b      	lsls	r3, r3, #9
 8003b22:	429a      	cmp	r2, r3
 8003b24:	d205      	bcs.n	8003b32 <UART_SetConfig+0x662>
      {
        huart->Instance->BRR = (uint16_t)usartdiv;
 8003b26:	6b3b      	ldr	r3, [r7, #48]	; 0x30
 8003b28:	b29a      	uxth	r2, r3
 8003b2a:	6a7b      	ldr	r3, [r7, #36]	; 0x24
 8003b2c:	681b      	ldr	r3, [r3, #0]
 8003b2e:	60da      	str	r2, [r3, #12]
 8003b30:	e005      	b.n	8003b3e <UART_SetConfig+0x66e>
      }
      else
      {
        ret = HAL_ERROR;
 8003b32:	231a      	movs	r3, #26
 8003b34:	2220      	movs	r2, #32
 8003b36:	189b      	adds	r3, r3, r2
 8003b38:	19db      	adds	r3, r3, r7
 8003b3a:	2201      	movs	r2, #1
 8003b3c:	701a      	strb	r2, [r3, #0]
      }
    }
  }

  /* Initialize the number of data to process during RX/TX ISR execution */
  huart->NbTxDataToProcess = 1;
 8003b3e:	6a7b      	ldr	r3, [r7, #36]	; 0x24
 8003b40:	226a      	movs	r2, #106	; 0x6a
 8003b42:	2101      	movs	r1, #1
 8003b44:	5299      	strh	r1, [r3, r2]
  huart->NbRxDataToProcess = 1;
 8003b46:	6a7b      	ldr	r3, [r7, #36]	; 0x24
 8003b48:	2268      	movs	r2, #104	; 0x68
 8003b4a:	2101      	movs	r1, #1
 8003b4c:	5299      	strh	r1, [r3, r2]

  /* Clear ISR function pointers */
  huart->RxISR = NULL;
 8003b4e:	6a7b      	ldr	r3, [r7, #36]	; 0x24
 8003b50:	2200      	movs	r2, #0
 8003b52:	675a      	str	r2, [r3, #116]	; 0x74
  huart->TxISR = NULL;
 8003b54:	6a7b      	ldr	r3, [r7, #36]	; 0x24
 8003b56:	2200      	movs	r2, #0
 8003b58:	679a      	str	r2, [r3, #120]	; 0x78

  return ret;
 8003b5a:	231a      	movs	r3, #26
 8003b5c:	2220      	movs	r2, #32
 8003b5e:	189b      	adds	r3, r3, r2
 8003b60:	19db      	adds	r3, r3, r7
 8003b62:	781b      	ldrb	r3, [r3, #0]
}
 8003b64:	0018      	movs	r0, r3
 8003b66:	46bd      	mov	sp, r7
 8003b68:	b010      	add	sp, #64	; 0x40
 8003b6a:	bdb0      	pop	{r4, r5, r7, pc}
 8003b6c:	40008000 	.word	0x40008000
 8003b70:	40008400 	.word	0x40008400
 8003b74:	00f42400 	.word	0x00f42400
 8003b78:	08004514 	.word	0x08004514

08003b7c <UART_AdvFeatureConfig>:
  * @brief Configure the UART peripheral advanced features.
  * @param huart UART handle.
  * @retval None
  */
void UART_AdvFeatureConfig(UART_HandleTypeDef *huart)
{
 8003b7c:	b580      	push	{r7, lr}
 8003b7e:	b082      	sub	sp, #8
 8003b80:	af00      	add	r7, sp, #0
 8003b82:	6078      	str	r0, [r7, #4]
  /* Check whether the set of advanced features to configure is properly set */
  assert_param(IS_UART_ADVFEATURE_INIT(huart->AdvancedInit.AdvFeatureInit));

  /* if required, configure RX/TX pins swap */
  if (HAL_IS_BIT_SET(huart->AdvancedInit.AdvFeatureInit, UART_ADVFEATURE_SWAP_INIT))
 8003b84:	687b      	ldr	r3, [r7, #4]
 8003b86:	6a9b      	ldr	r3, [r3, #40]	; 0x28
 8003b88:	2208      	movs	r2, #8
 8003b8a:	4013      	ands	r3, r2
 8003b8c:	d00b      	beq.n	8003ba6 <UART_AdvFeatureConfig+0x2a>
  {
    assert_param(IS_UART_ADVFEATURE_SWAP(huart->AdvancedInit.Swap));
    MODIFY_REG(huart->Instance->CR2, USART_CR2_SWAP, huart->AdvancedInit.Swap);
 8003b8e:	687b      	ldr	r3, [r7, #4]
 8003b90:	681b      	ldr	r3, [r3, #0]
 8003b92:	685b      	ldr	r3, [r3, #4]
 8003b94:	4a4a      	ldr	r2, [pc, #296]	; (8003cc0 <UART_AdvFeatureConfig+0x144>)
 8003b96:	4013      	ands	r3, r2
 8003b98:	0019      	movs	r1, r3
 8003b9a:	687b      	ldr	r3, [r7, #4]
 8003b9c:	6b9a      	ldr	r2, [r3, #56]	; 0x38
 8003b9e:	687b      	ldr	r3, [r7, #4]
 8003ba0:	681b      	ldr	r3, [r3, #0]
 8003ba2:	430a      	orrs	r2, r1
 8003ba4:	605a      	str	r2, [r3, #4]
  }

  /* if required, configure TX pin active level inversion */
  if (HAL_IS_BIT_SET(huart->AdvancedInit.AdvFeatureInit, UART_ADVFEATURE_TXINVERT_INIT))
 8003ba6:	687b      	ldr	r3, [r7, #4]
 8003ba8:	6a9b      	ldr	r3, [r3, #40]	; 0x28
 8003baa:	2201      	movs	r2, #1
 8003bac:	4013      	ands	r3, r2
 8003bae:	d00b      	beq.n	8003bc8 <UART_AdvFeatureConfig+0x4c>
  {
    assert_param(IS_UART_ADVFEATURE_TXINV(huart->AdvancedInit.TxPinLevelInvert));
    MODIFY_REG(huart->Instance->CR2, USART_CR2_TXINV, huart->AdvancedInit.TxPinLevelInvert);
 8003bb0:	687b      	ldr	r3, [r7, #4]
 8003bb2:	681b      	ldr	r3, [r3, #0]
 8003bb4:	685b      	ldr	r3, [r3, #4]
 8003bb6:	4a43      	ldr	r2, [pc, #268]	; (8003cc4 <UART_AdvFeatureConfig+0x148>)
 8003bb8:	4013      	ands	r3, r2
 8003bba:	0019      	movs	r1, r3
 8003bbc:	687b      	ldr	r3, [r7, #4]
 8003bbe:	6ada      	ldr	r2, [r3, #44]	; 0x2c
 8003bc0:	687b      	ldr	r3, [r7, #4]
 8003bc2:	681b      	ldr	r3, [r3, #0]
 8003bc4:	430a      	orrs	r2, r1
 8003bc6:	605a      	str	r2, [r3, #4]
  }

  /* if required, configure RX pin active level inversion */
  if (HAL_IS_BIT_SET(huart->AdvancedInit.AdvFeatureInit, UART_ADVFEATURE_RXINVERT_INIT))
 8003bc8:	687b      	ldr	r3, [r7, #4]
 8003bca:	6a9b      	ldr	r3, [r3, #40]	; 0x28
 8003bcc:	2202      	movs	r2, #2
 8003bce:	4013      	ands	r3, r2
 8003bd0:	d00b      	beq.n	8003bea <UART_AdvFeatureConfig+0x6e>
  {
    assert_param(IS_UART_ADVFEATURE_RXINV(huart->AdvancedInit.RxPinLevelInvert));
    MODIFY_REG(huart->Instance->CR2, USART_CR2_RXINV, huart->AdvancedInit.RxPinLevelInvert);
 8003bd2:	687b      	ldr	r3, [r7, #4]
 8003bd4:	681b      	ldr	r3, [r3, #0]
 8003bd6:	685b      	ldr	r3, [r3, #4]
 8003bd8:	4a3b      	ldr	r2, [pc, #236]	; (8003cc8 <UART_AdvFeatureConfig+0x14c>)
 8003bda:	4013      	ands	r3, r2
 8003bdc:	0019      	movs	r1, r3
 8003bde:	687b      	ldr	r3, [r7, #4]
 8003be0:	6b1a      	ldr	r2, [r3, #48]	; 0x30
 8003be2:	687b      	ldr	r3, [r7, #4]
 8003be4:	681b      	ldr	r3, [r3, #0]
 8003be6:	430a      	orrs	r2, r1
 8003be8:	605a      	str	r2, [r3, #4]
  }

  /* if required, configure data inversion */
  if (HAL_IS_BIT_SET(huart->AdvancedInit.AdvFeatureInit, UART_ADVFEATURE_DATAINVERT_INIT))
 8003bea:	687b      	ldr	r3, [r7, #4]
 8003bec:	6a9b      	ldr	r3, [r3, #40]	; 0x28
 8003bee:	2204      	movs	r2, #4
 8003bf0:	4013      	ands	r3, r2
 8003bf2:	d00b      	beq.n	8003c0c <UART_AdvFeatureConfig+0x90>
  {
    assert_param(IS_UART_ADVFEATURE_DATAINV(huart->AdvancedInit.DataInvert));
    MODIFY_REG(huart->Instance->CR2, USART_CR2_DATAINV, huart->AdvancedInit.DataInvert);
 8003bf4:	687b      	ldr	r3, [r7, #4]
 8003bf6:	681b      	ldr	r3, [r3, #0]
 8003bf8:	685b      	ldr	r3, [r3, #4]
 8003bfa:	4a34      	ldr	r2, [pc, #208]	; (8003ccc <UART_AdvFeatureConfig+0x150>)
 8003bfc:	4013      	ands	r3, r2
 8003bfe:	0019      	movs	r1, r3
 8003c00:	687b      	ldr	r3, [r7, #4]
 8003c02:	6b5a      	ldr	r2, [r3, #52]	; 0x34
 8003c04:	687b      	ldr	r3, [r7, #4]
 8003c06:	681b      	ldr	r3, [r3, #0]
 8003c08:	430a      	orrs	r2, r1
 8003c0a:	605a      	str	r2, [r3, #4]
  }

  /* if required, configure RX overrun detection disabling */
  if (HAL_IS_BIT_SET(huart->AdvancedInit.AdvFeatureInit, UART_ADVFEATURE_RXOVERRUNDISABLE_INIT))
 8003c0c:	687b      	ldr	r3, [r7, #4]
 8003c0e:	6a9b      	ldr	r3, [r3, #40]	; 0x28
 8003c10:	2210      	movs	r2, #16
 8003c12:	4013      	ands	r3, r2
 8003c14:	d00b      	beq.n	8003c2e <UART_AdvFeatureConfig+0xb2>
  {
    assert_param(IS_UART_OVERRUN(huart->AdvancedInit.OverrunDisable));
    MODIFY_REG(huart->Instance->CR3, USART_CR3_OVRDIS, huart->AdvancedInit.OverrunDisable);
 8003c16:	687b      	ldr	r3, [r7, #4]
 8003c18:	681b      	ldr	r3, [r3, #0]
 8003c1a:	689b      	ldr	r3, [r3, #8]
 8003c1c:	4a2c      	ldr	r2, [pc, #176]	; (8003cd0 <UART_AdvFeatureConfig+0x154>)
 8003c1e:	4013      	ands	r3, r2
 8003c20:	0019      	movs	r1, r3
 8003c22:	687b      	ldr	r3, [r7, #4]
 8003c24:	6bda      	ldr	r2, [r3, #60]	; 0x3c
 8003c26:	687b      	ldr	r3, [r7, #4]
 8003c28:	681b      	ldr	r3, [r3, #0]
 8003c2a:	430a      	orrs	r2, r1
 8003c2c:	609a      	str	r2, [r3, #8]
  }

  /* if required, configure DMA disabling on reception error */
  if (HAL_IS_BIT_SET(huart->AdvancedInit.AdvFeatureInit, UART_ADVFEATURE_DMADISABLEONERROR_INIT))
 8003c2e:	687b      	ldr	r3, [r7, #4]
 8003c30:	6a9b      	ldr	r3, [r3, #40]	; 0x28
 8003c32:	2220      	movs	r2, #32
 8003c34:	4013      	ands	r3, r2
 8003c36:	d00b      	beq.n	8003c50 <UART_AdvFeatureConfig+0xd4>
  {
    assert_param(IS_UART_ADVFEATURE_DMAONRXERROR(huart->AdvancedInit.DMADisableonRxError));
    MODIFY_REG(huart->Instance->CR3, USART_CR3_DDRE, huart->AdvancedInit.DMADisableonRxError);
 8003c38:	687b      	ldr	r3, [r7, #4]
 8003c3a:	681b      	ldr	r3, [r3, #0]
 8003c3c:	689b      	ldr	r3, [r3, #8]
 8003c3e:	4a25      	ldr	r2, [pc, #148]	; (8003cd4 <UART_AdvFeatureConfig+0x158>)
 8003c40:	4013      	ands	r3, r2
 8003c42:	0019      	movs	r1, r3
 8003c44:	687b      	ldr	r3, [r7, #4]
 8003c46:	6c1a      	ldr	r2, [r3, #64]	; 0x40
 8003c48:	687b      	ldr	r3, [r7, #4]
 8003c4a:	681b      	ldr	r3, [r3, #0]
 8003c4c:	430a      	orrs	r2, r1
 8003c4e:	609a      	str	r2, [r3, #8]
  }

  /* if required, configure auto Baud rate detection scheme */
  if (HAL_IS_BIT_SET(huart->AdvancedInit.AdvFeatureInit, UART_ADVFEATURE_AUTOBAUDRATE_INIT))
 8003c50:	687b      	ldr	r3, [r7, #4]
 8003c52:	6a9b      	ldr	r3, [r3, #40]	; 0x28
 8003c54:	2240      	movs	r2, #64	; 0x40
 8003c56:	4013      	ands	r3, r2
 8003c58:	d01d      	beq.n	8003c96 <UART_AdvFeatureConfig+0x11a>
  {
    assert_param(IS_USART_AUTOBAUDRATE_DETECTION_INSTANCE(huart->Instance));
    assert_param(IS_UART_ADVFEATURE_AUTOBAUDRATE(huart->AdvancedInit.AutoBaudRateEnable));
    MODIFY_REG(huart->Instance->CR2, USART_CR2_ABREN, huart->AdvancedInit.AutoBaudRateEnable);
 8003c5a:	687b      	ldr	r3, [r7, #4]
 8003c5c:	681b      	ldr	r3, [r3, #0]
 8003c5e:	685b      	ldr	r3, [r3, #4]
 8003c60:	4a1d      	ldr	r2, [pc, #116]	; (8003cd8 <UART_AdvFeatureConfig+0x15c>)
 8003c62:	4013      	ands	r3, r2
 8003c64:	0019      	movs	r1, r3
 8003c66:	687b      	ldr	r3, [r7, #4]
 8003c68:	6c5a      	ldr	r2, [r3, #68]	; 0x44
 8003c6a:	687b      	ldr	r3, [r7, #4]
 8003c6c:	681b      	ldr	r3, [r3, #0]
 8003c6e:	430a      	orrs	r2, r1
 8003c70:	605a      	str	r2, [r3, #4]
    /* set auto Baudrate detection parameters if detection is enabled */
    if (huart->AdvancedInit.AutoBaudRateEnable == UART_ADVFEATURE_AUTOBAUDRATE_ENABLE)
 8003c72:	687b      	ldr	r3, [r7, #4]
 8003c74:	6c5a      	ldr	r2, [r3, #68]	; 0x44
 8003c76:	2380      	movs	r3, #128	; 0x80
 8003c78:	035b      	lsls	r3, r3, #13
 8003c7a:	429a      	cmp	r2, r3
 8003c7c:	d10b      	bne.n	8003c96 <UART_AdvFeatureConfig+0x11a>
    {
      assert_param(IS_UART_ADVFEATURE_AUTOBAUDRATEMODE(huart->AdvancedInit.AutoBaudRateMode));
      MODIFY_REG(huart->Instance->CR2, USART_CR2_ABRMODE, huart->AdvancedInit.AutoBaudRateMode);
 8003c7e:	687b      	ldr	r3, [r7, #4]
 8003c80:	681b      	ldr	r3, [r3, #0]
 8003c82:	685b      	ldr	r3, [r3, #4]
 8003c84:	4a15      	ldr	r2, [pc, #84]	; (8003cdc <UART_AdvFeatureConfig+0x160>)
 8003c86:	4013      	ands	r3, r2
 8003c88:	0019      	movs	r1, r3
 8003c8a:	687b      	ldr	r3, [r7, #4]
 8003c8c:	6c9a      	ldr	r2, [r3, #72]	; 0x48
 8003c8e:	687b      	ldr	r3, [r7, #4]
 8003c90:	681b      	ldr	r3, [r3, #0]
 8003c92:	430a      	orrs	r2, r1
 8003c94:	605a      	str	r2, [r3, #4]
    }
  }

  /* if required, configure MSB first on communication line */
  if (HAL_IS_BIT_SET(huart->AdvancedInit.AdvFeatureInit, UART_ADVFEATURE_MSBFIRST_INIT))
 8003c96:	687b      	ldr	r3, [r7, #4]
 8003c98:	6a9b      	ldr	r3, [r3, #40]	; 0x28
 8003c9a:	2280      	movs	r2, #128	; 0x80
 8003c9c:	4013      	ands	r3, r2
 8003c9e:	d00b      	beq.n	8003cb8 <UART_AdvFeatureConfig+0x13c>
  {
    assert_param(IS_UART_ADVFEATURE_MSBFIRST(huart->AdvancedInit.MSBFirst));
    MODIFY_REG(huart->Instance->CR2, USART_CR2_MSBFIRST, huart->AdvancedInit.MSBFirst);
 8003ca0:	687b      	ldr	r3, [r7, #4]
 8003ca2:	681b      	ldr	r3, [r3, #0]
 8003ca4:	685b      	ldr	r3, [r3, #4]
 8003ca6:	4a0e      	ldr	r2, [pc, #56]	; (8003ce0 <UART_AdvFeatureConfig+0x164>)
 8003ca8:	4013      	ands	r3, r2
 8003caa:	0019      	movs	r1, r3
 8003cac:	687b      	ldr	r3, [r7, #4]
 8003cae:	6cda      	ldr	r2, [r3, #76]	; 0x4c
 8003cb0:	687b      	ldr	r3, [r7, #4]
 8003cb2:	681b      	ldr	r3, [r3, #0]
 8003cb4:	430a      	orrs	r2, r1
 8003cb6:	605a      	str	r2, [r3, #4]
  }
}
 8003cb8:	46c0      	nop			; (mov r8, r8)
 8003cba:	46bd      	mov	sp, r7
 8003cbc:	b002      	add	sp, #8
 8003cbe:	bd80      	pop	{r7, pc}
 8003cc0:	ffff7fff 	.word	0xffff7fff
 8003cc4:	fffdffff 	.word	0xfffdffff
 8003cc8:	fffeffff 	.word	0xfffeffff
 8003ccc:	fffbffff 	.word	0xfffbffff
 8003cd0:	ffffefff 	.word	0xffffefff
 8003cd4:	ffffdfff 	.word	0xffffdfff
 8003cd8:	ffefffff 	.word	0xffefffff
 8003cdc:	ff9fffff 	.word	0xff9fffff
 8003ce0:	fff7ffff 	.word	0xfff7ffff

08003ce4 <UART_CheckIdleState>:
  * @brief Check the UART Idle State.
  * @param huart UART handle.
  * @retval HAL status
  */
HAL_StatusTypeDef UART_CheckIdleState(UART_HandleTypeDef *huart)
{
 8003ce4:	b580      	push	{r7, lr}
 8003ce6:	b092      	sub	sp, #72	; 0x48
 8003ce8:	af02      	add	r7, sp, #8
 8003cea:	6078      	str	r0, [r7, #4]
  uint32_t tickstart;

  /* Initialize the UART ErrorCode */
  huart->ErrorCode = HAL_UART_ERROR_NONE;
 8003cec:	687b      	ldr	r3, [r7, #4]
 8003cee:	2290      	movs	r2, #144	; 0x90
 8003cf0:	2100      	movs	r1, #0
 8003cf2:	5099      	str	r1, [r3, r2]

  /* Init tickstart for timeout management */
  tickstart = HAL_GetTick();
 8003cf4:	f7fd fa0a 	bl	800110c <HAL_GetTick>
 8003cf8:	0003      	movs	r3, r0
 8003cfa:	63fb      	str	r3, [r7, #60]	; 0x3c

  /* Check if the Transmitter is enabled */
  if ((huart->Instance->CR1 & USART_CR1_TE) == USART_CR1_TE)
 8003cfc:	687b      	ldr	r3, [r7, #4]
 8003cfe:	681b      	ldr	r3, [r3, #0]
 8003d00:	681b      	ldr	r3, [r3, #0]
 8003d02:	2208      	movs	r2, #8
 8003d04:	4013      	ands	r3, r2
 8003d06:	2b08      	cmp	r3, #8
 8003d08:	d12d      	bne.n	8003d66 <UART_CheckIdleState+0x82>
  {
    /* Wait until TEACK flag is set */
    if (UART_WaitOnFlagUntilTimeout(huart, USART_ISR_TEACK, RESET, tickstart, HAL_UART_TIMEOUT_VALUE) != HAL_OK)
 8003d0a:	6bfb      	ldr	r3, [r7, #60]	; 0x3c
 8003d0c:	2280      	movs	r2, #128	; 0x80
 8003d0e:	0391      	lsls	r1, r2, #14
 8003d10:	6878      	ldr	r0, [r7, #4]
 8003d12:	4a47      	ldr	r2, [pc, #284]	; (8003e30 <UART_CheckIdleState+0x14c>)
 8003d14:	9200      	str	r2, [sp, #0]
 8003d16:	2200      	movs	r2, #0
 8003d18:	f000 f88e 	bl	8003e38 <UART_WaitOnFlagUntilTimeout>
 8003d1c:	1e03      	subs	r3, r0, #0
 8003d1e:	d022      	beq.n	8003d66 <UART_CheckIdleState+0x82>
 */
__STATIC_FORCEINLINE uint32_t __get_PRIMASK(void)
{
  uint32_t result;

  __ASM volatile ("MRS %0, primask" : "=r" (result) :: "memory");
 8003d20:	f3ef 8310 	mrs	r3, PRIMASK
 8003d24:	627b      	str	r3, [r7, #36]	; 0x24
  return(result);
 8003d26:	6a7b      	ldr	r3, [r7, #36]	; 0x24
    {
      /* Disable TXE interrupt for the interrupt process */
      ATOMIC_CLEAR_BIT(huart->Instance->CR1, (USART_CR1_TXEIE_TXFNFIE));
 8003d28:	63bb      	str	r3, [r7, #56]	; 0x38
 8003d2a:	2301      	movs	r3, #1
 8003d2c:	62bb      	str	r3, [r7, #40]	; 0x28
  \details Assigns the given value to the Priority Mask Register.
  \param [in]    priMask  Priority Mask
 */
__STATIC_FORCEINLINE void __set_PRIMASK(uint32_t priMask)
{
  __ASM volatile ("MSR primask, %0" : : "r" (priMask) : "memory");
 8003d2e:	6abb      	ldr	r3, [r7, #40]	; 0x28
 8003d30:	f383 8810 	msr	PRIMASK, r3
}
 8003d34:	46c0      	nop			; (mov r8, r8)
 8003d36:	687b      	ldr	r3, [r7, #4]
 8003d38:	681b      	ldr	r3, [r3, #0]
 8003d3a:	681a      	ldr	r2, [r3, #0]
 8003d3c:	687b      	ldr	r3, [r7, #4]
 8003d3e:	681b      	ldr	r3, [r3, #0]
 8003d40:	2180      	movs	r1, #128	; 0x80
 8003d42:	438a      	bics	r2, r1
 8003d44:	601a      	str	r2, [r3, #0]
 8003d46:	6bbb      	ldr	r3, [r7, #56]	; 0x38
 8003d48:	62fb      	str	r3, [r7, #44]	; 0x2c
  __ASM volatile ("MSR primask, %0" : : "r" (priMask) : "memory");
 8003d4a:	6afb      	ldr	r3, [r7, #44]	; 0x2c
 8003d4c:	f383 8810 	msr	PRIMASK, r3
}
 8003d50:	46c0      	nop			; (mov r8, r8)

      huart->gState = HAL_UART_STATE_READY;
 8003d52:	687b      	ldr	r3, [r7, #4]
 8003d54:	2288      	movs	r2, #136	; 0x88
 8003d56:	2120      	movs	r1, #32
 8003d58:	5099      	str	r1, [r3, r2]

      __HAL_UNLOCK(huart);
 8003d5a:	687b      	ldr	r3, [r7, #4]
 8003d5c:	2284      	movs	r2, #132	; 0x84
 8003d5e:	2100      	movs	r1, #0
 8003d60:	5499      	strb	r1, [r3, r2]

      /* Timeout occurred */
      return HAL_TIMEOUT;
 8003d62:	2303      	movs	r3, #3
 8003d64:	e060      	b.n	8003e28 <UART_CheckIdleState+0x144>
    }
  }

  /* Check if the Receiver is enabled */
  if ((huart->Instance->CR1 & USART_CR1_RE) == USART_CR1_RE)
 8003d66:	687b      	ldr	r3, [r7, #4]
 8003d68:	681b      	ldr	r3, [r3, #0]
 8003d6a:	681b      	ldr	r3, [r3, #0]
 8003d6c:	2204      	movs	r2, #4
 8003d6e:	4013      	ands	r3, r2
 8003d70:	2b04      	cmp	r3, #4
 8003d72:	d146      	bne.n	8003e02 <UART_CheckIdleState+0x11e>
  {
    /* Wait until REACK flag is set */
    if (UART_WaitOnFlagUntilTimeout(huart, USART_ISR_REACK, RESET, tickstart, HAL_UART_TIMEOUT_VALUE) != HAL_OK)
 8003d74:	6bfb      	ldr	r3, [r7, #60]	; 0x3c
 8003d76:	2280      	movs	r2, #128	; 0x80
 8003d78:	03d1      	lsls	r1, r2, #15
 8003d7a:	6878      	ldr	r0, [r7, #4]
 8003d7c:	4a2c      	ldr	r2, [pc, #176]	; (8003e30 <UART_CheckIdleState+0x14c>)
 8003d7e:	9200      	str	r2, [sp, #0]
 8003d80:	2200      	movs	r2, #0
 8003d82:	f000 f859 	bl	8003e38 <UART_WaitOnFlagUntilTimeout>
 8003d86:	1e03      	subs	r3, r0, #0
 8003d88:	d03b      	beq.n	8003e02 <UART_CheckIdleState+0x11e>
  __ASM volatile ("MRS %0, primask" : "=r" (result) :: "memory");
 8003d8a:	f3ef 8310 	mrs	r3, PRIMASK
 8003d8e:	60fb      	str	r3, [r7, #12]
  return(result);
 8003d90:	68fb      	ldr	r3, [r7, #12]
    {
      /* Disable RXNE, PE and ERR (Frame error, noise error, overrun error)
      interrupts for the interrupt process */
      ATOMIC_CLEAR_BIT(huart->Instance->CR1, (USART_CR1_RXNEIE_RXFNEIE | USART_CR1_PEIE));
 8003d92:	637b      	str	r3, [r7, #52]	; 0x34
 8003d94:	2301      	movs	r3, #1
 8003d96:	613b      	str	r3, [r7, #16]
  __ASM volatile ("MSR primask, %0" : : "r" (priMask) : "memory");
 8003d98:	693b      	ldr	r3, [r7, #16]
 8003d9a:	f383 8810 	msr	PRIMASK, r3
}
 8003d9e:	46c0      	nop			; (mov r8, r8)
 8003da0:	687b      	ldr	r3, [r7, #4]
 8003da2:	681b      	ldr	r3, [r3, #0]
 8003da4:	681a      	ldr	r2, [r3, #0]
 8003da6:	687b      	ldr	r3, [r7, #4]
 8003da8:	681b      	ldr	r3, [r3, #0]
 8003daa:	4922      	ldr	r1, [pc, #136]	; (8003e34 <UART_CheckIdleState+0x150>)
 8003dac:	400a      	ands	r2, r1
 8003dae:	601a      	str	r2, [r3, #0]
 8003db0:	6b7b      	ldr	r3, [r7, #52]	; 0x34
 8003db2:	617b      	str	r3, [r7, #20]
  __ASM volatile ("MSR primask, %0" : : "r" (priMask) : "memory");
 8003db4:	697b      	ldr	r3, [r7, #20]
 8003db6:	f383 8810 	msr	PRIMASK, r3
}
 8003dba:	46c0      	nop			; (mov r8, r8)
  __ASM volatile ("MRS %0, primask" : "=r" (result) :: "memory");
 8003dbc:	f3ef 8310 	mrs	r3, PRIMASK
 8003dc0:	61bb      	str	r3, [r7, #24]
  return(result);
 8003dc2:	69bb      	ldr	r3, [r7, #24]
      ATOMIC_CLEAR_BIT(huart->Instance->CR3, USART_CR3_EIE);
 8003dc4:	633b      	str	r3, [r7, #48]	; 0x30
 8003dc6:	2301      	movs	r3, #1
 8003dc8:	61fb      	str	r3, [r7, #28]
  __ASM volatile ("MSR primask, %0" : : "r" (priMask) : "memory");
 8003dca:	69fb      	ldr	r3, [r7, #28]
 8003dcc:	f383 8810 	msr	PRIMASK, r3
}
 8003dd0:	46c0      	nop			; (mov r8, r8)
 8003dd2:	687b      	ldr	r3, [r7, #4]
 8003dd4:	681b      	ldr	r3, [r3, #0]
 8003dd6:	689a      	ldr	r2, [r3, #8]
 8003dd8:	687b      	ldr	r3, [r7, #4]
 8003dda:	681b      	ldr	r3, [r3, #0]
 8003ddc:	2101      	movs	r1, #1
 8003dde:	438a      	bics	r2, r1
 8003de0:	609a      	str	r2, [r3, #8]
 8003de2:	6b3b      	ldr	r3, [r7, #48]	; 0x30
 8003de4:	623b      	str	r3, [r7, #32]
  __ASM volatile ("MSR primask, %0" : : "r" (priMask) : "memory");
 8003de6:	6a3b      	ldr	r3, [r7, #32]
 8003de8:	f383 8810 	msr	PRIMASK, r3
}
 8003dec:	46c0      	nop			; (mov r8, r8)

      huart->RxState = HAL_UART_STATE_READY;
 8003dee:	687b      	ldr	r3, [r7, #4]
 8003df0:	228c      	movs	r2, #140	; 0x8c
 8003df2:	2120      	movs	r1, #32
 8003df4:	5099      	str	r1, [r3, r2]

      __HAL_UNLOCK(huart);
 8003df6:	687b      	ldr	r3, [r7, #4]
 8003df8:	2284      	movs	r2, #132	; 0x84
 8003dfa:	2100      	movs	r1, #0
 8003dfc:	5499      	strb	r1, [r3, r2]

      /* Timeout occurred */
      return HAL_TIMEOUT;
 8003dfe:	2303      	movs	r3, #3
 8003e00:	e012      	b.n	8003e28 <UART_CheckIdleState+0x144>
    }
  }

  /* Initialize the UART State */
  huart->gState = HAL_UART_STATE_READY;
 8003e02:	687b      	ldr	r3, [r7, #4]
 8003e04:	2288      	movs	r2, #136	; 0x88
 8003e06:	2120      	movs	r1, #32
 8003e08:	5099      	str	r1, [r3, r2]
  huart->RxState = HAL_UART_STATE_READY;
 8003e0a:	687b      	ldr	r3, [r7, #4]
 8003e0c:	228c      	movs	r2, #140	; 0x8c
 8003e0e:	2120      	movs	r1, #32
 8003e10:	5099      	str	r1, [r3, r2]
  huart->ReceptionType = HAL_UART_RECEPTION_STANDARD;
 8003e12:	687b      	ldr	r3, [r7, #4]
 8003e14:	2200      	movs	r2, #0
 8003e16:	66da      	str	r2, [r3, #108]	; 0x6c
  huart->RxEventType = HAL_UART_RXEVENT_TC;
 8003e18:	687b      	ldr	r3, [r7, #4]
 8003e1a:	2200      	movs	r2, #0
 8003e1c:	671a      	str	r2, [r3, #112]	; 0x70

  __HAL_UNLOCK(huart);
 8003e1e:	687b      	ldr	r3, [r7, #4]
 8003e20:	2284      	movs	r2, #132	; 0x84
 8003e22:	2100      	movs	r1, #0
 8003e24:	5499      	strb	r1, [r3, r2]

  return HAL_OK;
 8003e26:	2300      	movs	r3, #0
}
 8003e28:	0018      	movs	r0, r3
 8003e2a:	46bd      	mov	sp, r7
 8003e2c:	b010      	add	sp, #64	; 0x40
 8003e2e:	bd80      	pop	{r7, pc}
 8003e30:	01ffffff 	.word	0x01ffffff
 8003e34:	fffffedf 	.word	0xfffffedf

08003e38 <UART_WaitOnFlagUntilTimeout>:
  * @param Timeout   Timeout duration
  * @retval HAL status
  */
HAL_StatusTypeDef UART_WaitOnFlagUntilTimeout(UART_HandleTypeDef *huart, uint32_t Flag, FlagStatus Status,
                                              uint32_t Tickstart, uint32_t Timeout)
{
 8003e38:	b580      	push	{r7, lr}
 8003e3a:	b084      	sub	sp, #16
 8003e3c:	af00      	add	r7, sp, #0
 8003e3e:	60f8      	str	r0, [r7, #12]
 8003e40:	60b9      	str	r1, [r7, #8]
 8003e42:	603b      	str	r3, [r7, #0]
 8003e44:	1dfb      	adds	r3, r7, #7
 8003e46:	701a      	strb	r2, [r3, #0]
  /* Wait until flag is set */
  while ((__HAL_UART_GET_FLAG(huart, Flag) ? SET : RESET) == Status)
 8003e48:	e051      	b.n	8003eee <UART_WaitOnFlagUntilTimeout+0xb6>
  {
    /* Check for the Timeout */
    if (Timeout != HAL_MAX_DELAY)
 8003e4a:	69bb      	ldr	r3, [r7, #24]
 8003e4c:	3301      	adds	r3, #1
 8003e4e:	d04e      	beq.n	8003eee <UART_WaitOnFlagUntilTimeout+0xb6>
    {
      if (((HAL_GetTick() - Tickstart) > Timeout) || (Timeout == 0U))
 8003e50:	f7fd f95c 	bl	800110c <HAL_GetTick>
 8003e54:	0002      	movs	r2, r0
 8003e56:	683b      	ldr	r3, [r7, #0]
 8003e58:	1ad3      	subs	r3, r2, r3
 8003e5a:	69ba      	ldr	r2, [r7, #24]
 8003e5c:	429a      	cmp	r2, r3
 8003e5e:	d302      	bcc.n	8003e66 <UART_WaitOnFlagUntilTimeout+0x2e>
 8003e60:	69bb      	ldr	r3, [r7, #24]
 8003e62:	2b00      	cmp	r3, #0
 8003e64:	d101      	bne.n	8003e6a <UART_WaitOnFlagUntilTimeout+0x32>
      {

        return HAL_TIMEOUT;
 8003e66:	2303      	movs	r3, #3
 8003e68:	e051      	b.n	8003f0e <UART_WaitOnFlagUntilTimeout+0xd6>
      }

      if ((READ_BIT(huart->Instance->CR1, USART_CR1_RE) != 0U) && (Flag != UART_FLAG_TXE) && (Flag != UART_FLAG_TC))
 8003e6a:	68fb      	ldr	r3, [r7, #12]
 8003e6c:	681b      	ldr	r3, [r3, #0]
 8003e6e:	681b      	ldr	r3, [r3, #0]
 8003e70:	2204      	movs	r2, #4
 8003e72:	4013      	ands	r3, r2
 8003e74:	d03b      	beq.n	8003eee <UART_WaitOnFlagUntilTimeout+0xb6>
 8003e76:	68bb      	ldr	r3, [r7, #8]
 8003e78:	2b80      	cmp	r3, #128	; 0x80
 8003e7a:	d038      	beq.n	8003eee <UART_WaitOnFlagUntilTimeout+0xb6>
 8003e7c:	68bb      	ldr	r3, [r7, #8]
 8003e7e:	2b40      	cmp	r3, #64	; 0x40
 8003e80:	d035      	beq.n	8003eee <UART_WaitOnFlagUntilTimeout+0xb6>
      {
        if (__HAL_UART_GET_FLAG(huart, UART_FLAG_ORE) == SET)
 8003e82:	68fb      	ldr	r3, [r7, #12]
 8003e84:	681b      	ldr	r3, [r3, #0]
 8003e86:	69db      	ldr	r3, [r3, #28]
 8003e88:	2208      	movs	r2, #8
 8003e8a:	4013      	ands	r3, r2
 8003e8c:	2b08      	cmp	r3, #8
 8003e8e:	d111      	bne.n	8003eb4 <UART_WaitOnFlagUntilTimeout+0x7c>
        {
          /* Clear Overrun Error flag*/
          __HAL_UART_CLEAR_FLAG(huart, UART_CLEAR_OREF);
 8003e90:	68fb      	ldr	r3, [r7, #12]
 8003e92:	681b      	ldr	r3, [r3, #0]
 8003e94:	2208      	movs	r2, #8
 8003e96:	621a      	str	r2, [r3, #32]

          /* Blocking error : transfer is aborted
          Set the UART state ready to be able to start again the process,
          Disable Rx Interrupts if ongoing */
          UART_EndRxTransfer(huart);
 8003e98:	68fb      	ldr	r3, [r7, #12]
 8003e9a:	0018      	movs	r0, r3
 8003e9c:	f000 f83c 	bl	8003f18 <UART_EndRxTransfer>

          huart->ErrorCode = HAL_UART_ERROR_ORE;
 8003ea0:	68fb      	ldr	r3, [r7, #12]
 8003ea2:	2290      	movs	r2, #144	; 0x90
 8003ea4:	2108      	movs	r1, #8
 8003ea6:	5099      	str	r1, [r3, r2]

          /* Process Unlocked */
          __HAL_UNLOCK(huart);
 8003ea8:	68fb      	ldr	r3, [r7, #12]
 8003eaa:	2284      	movs	r2, #132	; 0x84
 8003eac:	2100      	movs	r1, #0
 8003eae:	5499      	strb	r1, [r3, r2]

          return HAL_ERROR;
 8003eb0:	2301      	movs	r3, #1
 8003eb2:	e02c      	b.n	8003f0e <UART_WaitOnFlagUntilTimeout+0xd6>
        }
        if (__HAL_UART_GET_FLAG(huart, UART_FLAG_RTOF) == SET)
 8003eb4:	68fb      	ldr	r3, [r7, #12]
 8003eb6:	681b      	ldr	r3, [r3, #0]
 8003eb8:	69da      	ldr	r2, [r3, #28]
 8003eba:	2380      	movs	r3, #128	; 0x80
 8003ebc:	011b      	lsls	r3, r3, #4
 8003ebe:	401a      	ands	r2, r3
 8003ec0:	2380      	movs	r3, #128	; 0x80
 8003ec2:	011b      	lsls	r3, r3, #4
 8003ec4:	429a      	cmp	r2, r3
 8003ec6:	d112      	bne.n	8003eee <UART_WaitOnFlagUntilTimeout+0xb6>
        {
          /* Clear Receiver Timeout flag*/
          __HAL_UART_CLEAR_FLAG(huart, UART_CLEAR_RTOF);
 8003ec8:	68fb      	ldr	r3, [r7, #12]
 8003eca:	681b      	ldr	r3, [r3, #0]
 8003ecc:	2280      	movs	r2, #128	; 0x80
 8003ece:	0112      	lsls	r2, r2, #4
 8003ed0:	621a      	str	r2, [r3, #32]

          /* Blocking error : transfer is aborted
          Set the UART state ready to be able to start again the process,
          Disable Rx Interrupts if ongoing */
          UART_EndRxTransfer(huart);
 8003ed2:	68fb      	ldr	r3, [r7, #12]
 8003ed4:	0018      	movs	r0, r3
 8003ed6:	f000 f81f 	bl	8003f18 <UART_EndRxTransfer>

          huart->ErrorCode = HAL_UART_ERROR_RTO;
 8003eda:	68fb      	ldr	r3, [r7, #12]
 8003edc:	2290      	movs	r2, #144	; 0x90
 8003ede:	2120      	movs	r1, #32
 8003ee0:	5099      	str	r1, [r3, r2]

          /* Process Unlocked */
          __HAL_UNLOCK(huart);
 8003ee2:	68fb      	ldr	r3, [r7, #12]
 8003ee4:	2284      	movs	r2, #132	; 0x84
 8003ee6:	2100      	movs	r1, #0
 8003ee8:	5499      	strb	r1, [r3, r2]

          return HAL_TIMEOUT;
 8003eea:	2303      	movs	r3, #3
 8003eec:	e00f      	b.n	8003f0e <UART_WaitOnFlagUntilTimeout+0xd6>
  while ((__HAL_UART_GET_FLAG(huart, Flag) ? SET : RESET) == Status)
 8003eee:	68fb      	ldr	r3, [r7, #12]
 8003ef0:	681b      	ldr	r3, [r3, #0]
 8003ef2:	69db      	ldr	r3, [r3, #28]
 8003ef4:	68ba      	ldr	r2, [r7, #8]
 8003ef6:	4013      	ands	r3, r2
 8003ef8:	68ba      	ldr	r2, [r7, #8]
 8003efa:	1ad3      	subs	r3, r2, r3
 8003efc:	425a      	negs	r2, r3
 8003efe:	4153      	adcs	r3, r2
 8003f00:	b2db      	uxtb	r3, r3
 8003f02:	001a      	movs	r2, r3
 8003f04:	1dfb      	adds	r3, r7, #7
 8003f06:	781b      	ldrb	r3, [r3, #0]
 8003f08:	429a      	cmp	r2, r3
 8003f0a:	d09e      	beq.n	8003e4a <UART_WaitOnFlagUntilTimeout+0x12>
        }
      }
    }
  }
  return HAL_OK;
 8003f0c:	2300      	movs	r3, #0
}
 8003f0e:	0018      	movs	r0, r3
 8003f10:	46bd      	mov	sp, r7
 8003f12:	b004      	add	sp, #16
 8003f14:	bd80      	pop	{r7, pc}
	...

08003f18 <UART_EndRxTransfer>:
  * @brief  End ongoing Rx transfer on UART peripheral (following error detection or Reception completion).
  * @param  huart UART handle.
  * @retval None
  */
static void UART_EndRxTransfer(UART_HandleTypeDef *huart)
{
 8003f18:	b580      	push	{r7, lr}
 8003f1a:	b08e      	sub	sp, #56	; 0x38
 8003f1c:	af00      	add	r7, sp, #0
 8003f1e:	6078      	str	r0, [r7, #4]
  __ASM volatile ("MRS %0, primask" : "=r" (result) :: "memory");
 8003f20:	f3ef 8310 	mrs	r3, PRIMASK
 8003f24:	617b      	str	r3, [r7, #20]
  return(result);
 8003f26:	697b      	ldr	r3, [r7, #20]
  /* Disable RXNE, PE and ERR (Frame error, noise error, overrun error) interrupts */
  ATOMIC_CLEAR_BIT(huart->Instance->CR1, (USART_CR1_RXNEIE_RXFNEIE | USART_CR1_PEIE));
 8003f28:	637b      	str	r3, [r7, #52]	; 0x34
 8003f2a:	2301      	movs	r3, #1
 8003f2c:	61bb      	str	r3, [r7, #24]
  __ASM volatile ("MSR primask, %0" : : "r" (priMask) : "memory");
 8003f2e:	69bb      	ldr	r3, [r7, #24]
 8003f30:	f383 8810 	msr	PRIMASK, r3
}
 8003f34:	46c0      	nop			; (mov r8, r8)
 8003f36:	687b      	ldr	r3, [r7, #4]
 8003f38:	681b      	ldr	r3, [r3, #0]
 8003f3a:	681a      	ldr	r2, [r3, #0]
 8003f3c:	687b      	ldr	r3, [r7, #4]
 8003f3e:	681b      	ldr	r3, [r3, #0]
 8003f40:	4926      	ldr	r1, [pc, #152]	; (8003fdc <UART_EndRxTransfer+0xc4>)
 8003f42:	400a      	ands	r2, r1
 8003f44:	601a      	str	r2, [r3, #0]
 8003f46:	6b7b      	ldr	r3, [r7, #52]	; 0x34
 8003f48:	61fb      	str	r3, [r7, #28]
  __ASM volatile ("MSR primask, %0" : : "r" (priMask) : "memory");
 8003f4a:	69fb      	ldr	r3, [r7, #28]
 8003f4c:	f383 8810 	msr	PRIMASK, r3
}
 8003f50:	46c0      	nop			; (mov r8, r8)
  __ASM volatile ("MRS %0, primask" : "=r" (result) :: "memory");
 8003f52:	f3ef 8310 	mrs	r3, PRIMASK
 8003f56:	623b      	str	r3, [r7, #32]
  return(result);
 8003f58:	6a3b      	ldr	r3, [r7, #32]
  ATOMIC_CLEAR_BIT(huart->Instance->CR3, (USART_CR3_EIE | USART_CR3_RXFTIE));
 8003f5a:	633b      	str	r3, [r7, #48]	; 0x30
 8003f5c:	2301      	movs	r3, #1
 8003f5e:	627b      	str	r3, [r7, #36]	; 0x24
  __ASM volatile ("MSR primask, %0" : : "r" (priMask) : "memory");
 8003f60:	6a7b      	ldr	r3, [r7, #36]	; 0x24
 8003f62:	f383 8810 	msr	PRIMASK, r3
}
 8003f66:	46c0      	nop			; (mov r8, r8)
 8003f68:	687b      	ldr	r3, [r7, #4]
 8003f6a:	681b      	ldr	r3, [r3, #0]
 8003f6c:	689a      	ldr	r2, [r3, #8]
 8003f6e:	687b      	ldr	r3, [r7, #4]
 8003f70:	681b      	ldr	r3, [r3, #0]
 8003f72:	491b      	ldr	r1, [pc, #108]	; (8003fe0 <UART_EndRxTransfer+0xc8>)
 8003f74:	400a      	ands	r2, r1
 8003f76:	609a      	str	r2, [r3, #8]
 8003f78:	6b3b      	ldr	r3, [r7, #48]	; 0x30
 8003f7a:	62bb      	str	r3, [r7, #40]	; 0x28
  __ASM volatile ("MSR primask, %0" : : "r" (priMask) : "memory");
 8003f7c:	6abb      	ldr	r3, [r7, #40]	; 0x28
 8003f7e:	f383 8810 	msr	PRIMASK, r3
}
 8003f82:	46c0      	nop			; (mov r8, r8)

  /* In case of reception waiting for IDLE event, disable also the IDLE IE interrupt source */
  if (huart->ReceptionType == HAL_UART_RECEPTION_TOIDLE)
 8003f84:	687b      	ldr	r3, [r7, #4]
 8003f86:	6edb      	ldr	r3, [r3, #108]	; 0x6c
 8003f88:	2b01      	cmp	r3, #1
 8003f8a:	d118      	bne.n	8003fbe <UART_EndRxTransfer+0xa6>
  __ASM volatile ("MRS %0, primask" : "=r" (result) :: "memory");
 8003f8c:	f3ef 8310 	mrs	r3, PRIMASK
 8003f90:	60bb      	str	r3, [r7, #8]
  return(result);
 8003f92:	68bb      	ldr	r3, [r7, #8]
  {
    ATOMIC_CLEAR_BIT(huart->Instance->CR1, USART_CR1_IDLEIE);
 8003f94:	62fb      	str	r3, [r7, #44]	; 0x2c
 8003f96:	2301      	movs	r3, #1
 8003f98:	60fb      	str	r3, [r7, #12]
  __ASM volatile ("MSR primask, %0" : : "r" (priMask) : "memory");
 8003f9a:	68fb      	ldr	r3, [r7, #12]
 8003f9c:	f383 8810 	msr	PRIMASK, r3
}
 8003fa0:	46c0      	nop			; (mov r8, r8)
 8003fa2:	687b      	ldr	r3, [r7, #4]
 8003fa4:	681b      	ldr	r3, [r3, #0]
 8003fa6:	681a      	ldr	r2, [r3, #0]
 8003fa8:	687b      	ldr	r3, [r7, #4]
 8003faa:	681b      	ldr	r3, [r3, #0]
 8003fac:	2110      	movs	r1, #16
 8003fae:	438a      	bics	r2, r1
 8003fb0:	601a      	str	r2, [r3, #0]
 8003fb2:	6afb      	ldr	r3, [r7, #44]	; 0x2c
 8003fb4:	613b      	str	r3, [r7, #16]
  __ASM volatile ("MSR primask, %0" : : "r" (priMask) : "memory");
 8003fb6:	693b      	ldr	r3, [r7, #16]
 8003fb8:	f383 8810 	msr	PRIMASK, r3
}
 8003fbc:	46c0      	nop			; (mov r8, r8)
  }

  /* At end of Rx process, restore huart->RxState to Ready */
  huart->RxState = HAL_UART_STATE_READY;
 8003fbe:	687b      	ldr	r3, [r7, #4]
 8003fc0:	228c      	movs	r2, #140	; 0x8c
 8003fc2:	2120      	movs	r1, #32
 8003fc4:	5099      	str	r1, [r3, r2]
  huart->ReceptionType = HAL_UART_RECEPTION_STANDARD;
 8003fc6:	687b      	ldr	r3, [r7, #4]
 8003fc8:	2200      	movs	r2, #0
 8003fca:	66da      	str	r2, [r3, #108]	; 0x6c

  /* Reset RxIsr function pointer */
  huart->RxISR = NULL;
 8003fcc:	687b      	ldr	r3, [r7, #4]
 8003fce:	2200      	movs	r2, #0
 8003fd0:	675a      	str	r2, [r3, #116]	; 0x74
}
 8003fd2:	46c0      	nop			; (mov r8, r8)
 8003fd4:	46bd      	mov	sp, r7
 8003fd6:	b00e      	add	sp, #56	; 0x38
 8003fd8:	bd80      	pop	{r7, pc}
 8003fda:	46c0      	nop			; (mov r8, r8)
 8003fdc:	fffffedf 	.word	0xfffffedf
 8003fe0:	effffffe 	.word	0xeffffffe

08003fe4 <HAL_UARTEx_DisableFifoMode>:
  * @brief  Disable the FIFO mode.
  * @param huart      UART handle.
  * @retval HAL status
  */
HAL_StatusTypeDef HAL_UARTEx_DisableFifoMode(UART_HandleTypeDef *huart)
{
 8003fe4:	b580      	push	{r7, lr}
 8003fe6:	b084      	sub	sp, #16
 8003fe8:	af00      	add	r7, sp, #0
 8003fea:	6078      	str	r0, [r7, #4]

  /* Check parameters */
  assert_param(IS_UART_FIFO_INSTANCE(huart->Instance));

  /* Process Locked */
  __HAL_LOCK(huart);
 8003fec:	687b      	ldr	r3, [r7, #4]
 8003fee:	2284      	movs	r2, #132	; 0x84
 8003ff0:	5c9b      	ldrb	r3, [r3, r2]
 8003ff2:	2b01      	cmp	r3, #1
 8003ff4:	d101      	bne.n	8003ffa <HAL_UARTEx_DisableFifoMode+0x16>
 8003ff6:	2302      	movs	r3, #2
 8003ff8:	e027      	b.n	800404a <HAL_UARTEx_DisableFifoMode+0x66>
 8003ffa:	687b      	ldr	r3, [r7, #4]
 8003ffc:	2284      	movs	r2, #132	; 0x84
 8003ffe:	2101      	movs	r1, #1
 8004000:	5499      	strb	r1, [r3, r2]

  huart->gState = HAL_UART_STATE_BUSY;
 8004002:	687b      	ldr	r3, [r7, #4]
 8004004:	2288      	movs	r2, #136	; 0x88
 8004006:	2124      	movs	r1, #36	; 0x24
 8004008:	5099      	str	r1, [r3, r2]

  /* Save actual UART configuration */
  tmpcr1 = READ_REG(huart->Instance->CR1);
 800400a:	687b      	ldr	r3, [r7, #4]
 800400c:	681b      	ldr	r3, [r3, #0]
 800400e:	681b      	ldr	r3, [r3, #0]
 8004010:	60fb      	str	r3, [r7, #12]

  /* Disable UART */
  __HAL_UART_DISABLE(huart);
 8004012:	687b      	ldr	r3, [r7, #4]
 8004014:	681b      	ldr	r3, [r3, #0]
 8004016:	681a      	ldr	r2, [r3, #0]
 8004018:	687b      	ldr	r3, [r7, #4]
 800401a:	681b      	ldr	r3, [r3, #0]
 800401c:	2101      	movs	r1, #1
 800401e:	438a      	bics	r2, r1
 8004020:	601a      	str	r2, [r3, #0]

  /* Enable FIFO mode */
  CLEAR_BIT(tmpcr1, USART_CR1_FIFOEN);
 8004022:	68fb      	ldr	r3, [r7, #12]
 8004024:	4a0b      	ldr	r2, [pc, #44]	; (8004054 <HAL_UARTEx_DisableFifoMode+0x70>)
 8004026:	4013      	ands	r3, r2
 8004028:	60fb      	str	r3, [r7, #12]
  huart->FifoMode = UART_FIFOMODE_DISABLE;
 800402a:	687b      	ldr	r3, [r7, #4]
 800402c:	2200      	movs	r2, #0
 800402e:	665a      	str	r2, [r3, #100]	; 0x64

  /* Restore UART configuration */
  WRITE_REG(huart->Instance->CR1, tmpcr1);
 8004030:	687b      	ldr	r3, [r7, #4]
 8004032:	681b      	ldr	r3, [r3, #0]
 8004034:	68fa      	ldr	r2, [r7, #12]
 8004036:	601a      	str	r2, [r3, #0]

  huart->gState = HAL_UART_STATE_READY;
 8004038:	687b      	ldr	r3, [r7, #4]
 800403a:	2288      	movs	r2, #136	; 0x88
 800403c:	2120      	movs	r1, #32
 800403e:	5099      	str	r1, [r3, r2]

  /* Process Unlocked */
  __HAL_UNLOCK(huart);
 8004040:	687b      	ldr	r3, [r7, #4]
 8004042:	2284      	movs	r2, #132	; 0x84
 8004044:	2100      	movs	r1, #0
 8004046:	5499      	strb	r1, [r3, r2]

  return HAL_OK;
 8004048:	2300      	movs	r3, #0
}
 800404a:	0018      	movs	r0, r3
 800404c:	46bd      	mov	sp, r7
 800404e:	b004      	add	sp, #16
 8004050:	bd80      	pop	{r7, pc}
 8004052:	46c0      	nop			; (mov r8, r8)
 8004054:	dfffffff 	.word	0xdfffffff

08004058 <HAL_UARTEx_SetTxFifoThreshold>:
  *            @arg @ref UART_TXFIFO_THRESHOLD_7_8
  *            @arg @ref UART_TXFIFO_THRESHOLD_8_8
  * @retval HAL status
  */
HAL_StatusTypeDef HAL_UARTEx_SetTxFifoThreshold(UART_HandleTypeDef *huart, uint32_t Threshold)
{
 8004058:	b580      	push	{r7, lr}
 800405a:	b084      	sub	sp, #16
 800405c:	af00      	add	r7, sp, #0
 800405e:	6078      	str	r0, [r7, #4]
 8004060:	6039      	str	r1, [r7, #0]
  /* Check parameters */
  assert_param(IS_UART_FIFO_INSTANCE(huart->Instance));
  assert_param(IS_UART_TXFIFO_THRESHOLD(Threshold));

  /* Process Locked */
  __HAL_LOCK(huart);
 8004062:	687b      	ldr	r3, [r7, #4]
 8004064:	2284      	movs	r2, #132	; 0x84
 8004066:	5c9b      	ldrb	r3, [r3, r2]
 8004068:	2b01      	cmp	r3, #1
 800406a:	d101      	bne.n	8004070 <HAL_UARTEx_SetTxFifoThreshold+0x18>
 800406c:	2302      	movs	r3, #2
 800406e:	e02e      	b.n	80040ce <HAL_UARTEx_SetTxFifoThreshold+0x76>
 8004070:	687b      	ldr	r3, [r7, #4]
 8004072:	2284      	movs	r2, #132	; 0x84
 8004074:	2101      	movs	r1, #1
 8004076:	5499      	strb	r1, [r3, r2]

  huart->gState = HAL_UART_STATE_BUSY;
 8004078:	687b      	ldr	r3, [r7, #4]
 800407a:	2288      	movs	r2, #136	; 0x88
 800407c:	2124      	movs	r1, #36	; 0x24
 800407e:	5099      	str	r1, [r3, r2]

  /* Save actual UART configuration */
  tmpcr1 = READ_REG(huart->Instance->CR1);
 8004080:	687b      	ldr	r3, [r7, #4]
 8004082:	681b      	ldr	r3, [r3, #0]
 8004084:	681b      	ldr	r3, [r3, #0]
 8004086:	60fb      	str	r3, [r7, #12]

  /* Disable UART */
  __HAL_UART_DISABLE(huart);
 8004088:	687b      	ldr	r3, [r7, #4]
 800408a:	681b      	ldr	r3, [r3, #0]
 800408c:	681a      	ldr	r2, [r3, #0]
 800408e:	687b      	ldr	r3, [r7, #4]
 8004090:	681b      	ldr	r3, [r3, #0]
 8004092:	2101      	movs	r1, #1
 8004094:	438a      	bics	r2, r1
 8004096:	601a      	str	r2, [r3, #0]

  /* Update TX threshold configuration */
  MODIFY_REG(huart->Instance->CR3, USART_CR3_TXFTCFG, Threshold);
 8004098:	687b      	ldr	r3, [r7, #4]
 800409a:	681b      	ldr	r3, [r3, #0]
 800409c:	689b      	ldr	r3, [r3, #8]
 800409e:	00db      	lsls	r3, r3, #3
 80040a0:	08d9      	lsrs	r1, r3, #3
 80040a2:	687b      	ldr	r3, [r7, #4]
 80040a4:	681b      	ldr	r3, [r3, #0]
 80040a6:	683a      	ldr	r2, [r7, #0]
 80040a8:	430a      	orrs	r2, r1
 80040aa:	609a      	str	r2, [r3, #8]

  /* Determine the number of data to process during RX/TX ISR execution */
  UARTEx_SetNbDataToProcess(huart);
 80040ac:	687b      	ldr	r3, [r7, #4]
 80040ae:	0018      	movs	r0, r3
 80040b0:	f000 f854 	bl	800415c <UARTEx_SetNbDataToProcess>

  /* Restore UART configuration */
  WRITE_REG(huart->Instance->CR1, tmpcr1);
 80040b4:	687b      	ldr	r3, [r7, #4]
 80040b6:	681b      	ldr	r3, [r3, #0]
 80040b8:	68fa      	ldr	r2, [r7, #12]
 80040ba:	601a      	str	r2, [r3, #0]

  huart->gState = HAL_UART_STATE_READY;
 80040bc:	687b      	ldr	r3, [r7, #4]
 80040be:	2288      	movs	r2, #136	; 0x88
 80040c0:	2120      	movs	r1, #32
 80040c2:	5099      	str	r1, [r3, r2]

  /* Process Unlocked */
  __HAL_UNLOCK(huart);
 80040c4:	687b      	ldr	r3, [r7, #4]
 80040c6:	2284      	movs	r2, #132	; 0x84
 80040c8:	2100      	movs	r1, #0
 80040ca:	5499      	strb	r1, [r3, r2]

  return HAL_OK;
 80040cc:	2300      	movs	r3, #0
}
 80040ce:	0018      	movs	r0, r3
 80040d0:	46bd      	mov	sp, r7
 80040d2:	b004      	add	sp, #16
 80040d4:	bd80      	pop	{r7, pc}
	...

080040d8 <HAL_UARTEx_SetRxFifoThreshold>:
  *            @arg @ref UART_RXFIFO_THRESHOLD_7_8
  *            @arg @ref UART_RXFIFO_THRESHOLD_8_8
  * @retval HAL status
  */
HAL_StatusTypeDef HAL_UARTEx_SetRxFifoThreshold(UART_HandleTypeDef *huart, uint32_t Threshold)
{
 80040d8:	b580      	push	{r7, lr}
 80040da:	b084      	sub	sp, #16
 80040dc:	af00      	add	r7, sp, #0
 80040de:	6078      	str	r0, [r7, #4]
 80040e0:	6039      	str	r1, [r7, #0]
  /* Check the parameters */
  assert_param(IS_UART_FIFO_INSTANCE(huart->Instance));
  assert_param(IS_UART_RXFIFO_THRESHOLD(Threshold));

  /* Process Locked */
  __HAL_LOCK(huart);
 80040e2:	687b      	ldr	r3, [r7, #4]
 80040e4:	2284      	movs	r2, #132	; 0x84
 80040e6:	5c9b      	ldrb	r3, [r3, r2]
 80040e8:	2b01      	cmp	r3, #1
 80040ea:	d101      	bne.n	80040f0 <HAL_UARTEx_SetRxFifoThreshold+0x18>
 80040ec:	2302      	movs	r3, #2
 80040ee:	e02f      	b.n	8004150 <HAL_UARTEx_SetRxFifoThreshold+0x78>
 80040f0:	687b      	ldr	r3, [r7, #4]
 80040f2:	2284      	movs	r2, #132	; 0x84
 80040f4:	2101      	movs	r1, #1
 80040f6:	5499      	strb	r1, [r3, r2]

  huart->gState = HAL_UART_STATE_BUSY;
 80040f8:	687b      	ldr	r3, [r7, #4]
 80040fa:	2288      	movs	r2, #136	; 0x88
 80040fc:	2124      	movs	r1, #36	; 0x24
 80040fe:	5099      	str	r1, [r3, r2]

  /* Save actual UART configuration */
  tmpcr1 = READ_REG(huart->Instance->CR1);
 8004100:	687b      	ldr	r3, [r7, #4]
 8004102:	681b      	ldr	r3, [r3, #0]
 8004104:	681b      	ldr	r3, [r3, #0]
 8004106:	60fb      	str	r3, [r7, #12]

  /* Disable UART */
  __HAL_UART_DISABLE(huart);
 8004108:	687b      	ldr	r3, [r7, #4]
 800410a:	681b      	ldr	r3, [r3, #0]
 800410c:	681a      	ldr	r2, [r3, #0]
 800410e:	687b      	ldr	r3, [r7, #4]
 8004110:	681b      	ldr	r3, [r3, #0]
 8004112:	2101      	movs	r1, #1
 8004114:	438a      	bics	r2, r1
 8004116:	601a      	str	r2, [r3, #0]

  /* Update RX threshold configuration */
  MODIFY_REG(huart->Instance->CR3, USART_CR3_RXFTCFG, Threshold);
 8004118:	687b      	ldr	r3, [r7, #4]
 800411a:	681b      	ldr	r3, [r3, #0]
 800411c:	689b      	ldr	r3, [r3, #8]
 800411e:	4a0e      	ldr	r2, [pc, #56]	; (8004158 <HAL_UARTEx_SetRxFifoThreshold+0x80>)
 8004120:	4013      	ands	r3, r2
 8004122:	0019      	movs	r1, r3
 8004124:	687b      	ldr	r3, [r7, #4]
 8004126:	681b      	ldr	r3, [r3, #0]
 8004128:	683a      	ldr	r2, [r7, #0]
 800412a:	430a      	orrs	r2, r1
 800412c:	609a      	str	r2, [r3, #8]

  /* Determine the number of data to process during RX/TX ISR execution */
  UARTEx_SetNbDataToProcess(huart);
 800412e:	687b      	ldr	r3, [r7, #4]
 8004130:	0018      	movs	r0, r3
 8004132:	f000 f813 	bl	800415c <UARTEx_SetNbDataToProcess>

  /* Restore UART configuration */
  WRITE_REG(huart->Instance->CR1, tmpcr1);
 8004136:	687b      	ldr	r3, [r7, #4]
 8004138:	681b      	ldr	r3, [r3, #0]
 800413a:	68fa      	ldr	r2, [r7, #12]
 800413c:	601a      	str	r2, [r3, #0]

  huart->gState = HAL_UART_STATE_READY;
 800413e:	687b      	ldr	r3, [r7, #4]
 8004140:	2288      	movs	r2, #136	; 0x88
 8004142:	2120      	movs	r1, #32
 8004144:	5099      	str	r1, [r3, r2]

  /* Process Unlocked */
  __HAL_UNLOCK(huart);
 8004146:	687b      	ldr	r3, [r7, #4]
 8004148:	2284      	movs	r2, #132	; 0x84
 800414a:	2100      	movs	r1, #0
 800414c:	5499      	strb	r1, [r3, r2]

  return HAL_OK;
 800414e:	2300      	movs	r3, #0
}
 8004150:	0018      	movs	r0, r3
 8004152:	46bd      	mov	sp, r7
 8004154:	b004      	add	sp, #16
 8004156:	bd80      	pop	{r7, pc}
 8004158:	f1ffffff 	.word	0xf1ffffff

0800415c <UARTEx_SetNbDataToProcess>:
  *       the UART configuration registers.
  * @param huart UART handle.
  * @retval None
  */
static void UARTEx_SetNbDataToProcess(UART_HandleTypeDef *huart)
{
 800415c:	b5f0      	push	{r4, r5, r6, r7, lr}
 800415e:	b085      	sub	sp, #20
 8004160:	af00      	add	r7, sp, #0
 8004162:	6078      	str	r0, [r7, #4]
  uint8_t rx_fifo_threshold;
  uint8_t tx_fifo_threshold;
  static const uint8_t numerator[] = {1U, 1U, 1U, 3U, 7U, 1U, 0U, 0U};
  static const uint8_t denominator[] = {8U, 4U, 2U, 4U, 8U, 1U, 1U, 1U};

  if (huart->FifoMode == UART_FIFOMODE_DISABLE)
 8004164:	687b      	ldr	r3, [r7, #4]
 8004166:	6e5b      	ldr	r3, [r3, #100]	; 0x64
 8004168:	2b00      	cmp	r3, #0
 800416a:	d108      	bne.n	800417e <UARTEx_SetNbDataToProcess+0x22>
  {
    huart->NbTxDataToProcess = 1U;
 800416c:	687b      	ldr	r3, [r7, #4]
 800416e:	226a      	movs	r2, #106	; 0x6a
 8004170:	2101      	movs	r1, #1
 8004172:	5299      	strh	r1, [r3, r2]
    huart->NbRxDataToProcess = 1U;
 8004174:	687b      	ldr	r3, [r7, #4]
 8004176:	2268      	movs	r2, #104	; 0x68
 8004178:	2101      	movs	r1, #1
 800417a:	5299      	strh	r1, [r3, r2]
    huart->NbTxDataToProcess = ((uint16_t)tx_fifo_depth * numerator[tx_fifo_threshold]) /
                               (uint16_t)denominator[tx_fifo_threshold];
    huart->NbRxDataToProcess = ((uint16_t)rx_fifo_depth * numerator[rx_fifo_threshold]) /
                               (uint16_t)denominator[rx_fifo_threshold];
  }
}
 800417c:	e043      	b.n	8004206 <UARTEx_SetNbDataToProcess+0xaa>
    rx_fifo_depth = RX_FIFO_DEPTH;
 800417e:	260f      	movs	r6, #15
 8004180:	19bb      	adds	r3, r7, r6
 8004182:	2208      	movs	r2, #8
 8004184:	701a      	strb	r2, [r3, #0]
    tx_fifo_depth = TX_FIFO_DEPTH;
 8004186:	200e      	movs	r0, #14
 8004188:	183b      	adds	r3, r7, r0
 800418a:	2208      	movs	r2, #8
 800418c:	701a      	strb	r2, [r3, #0]
    rx_fifo_threshold = (uint8_t)(READ_BIT(huart->Instance->CR3, USART_CR3_RXFTCFG) >> USART_CR3_RXFTCFG_Pos);
 800418e:	687b      	ldr	r3, [r7, #4]
 8004190:	681b      	ldr	r3, [r3, #0]
 8004192:	689b      	ldr	r3, [r3, #8]
 8004194:	0e5b      	lsrs	r3, r3, #25
 8004196:	b2da      	uxtb	r2, r3
 8004198:	240d      	movs	r4, #13
 800419a:	193b      	adds	r3, r7, r4
 800419c:	2107      	movs	r1, #7
 800419e:	400a      	ands	r2, r1
 80041a0:	701a      	strb	r2, [r3, #0]
    tx_fifo_threshold = (uint8_t)(READ_BIT(huart->Instance->CR3, USART_CR3_TXFTCFG) >> USART_CR3_TXFTCFG_Pos);
 80041a2:	687b      	ldr	r3, [r7, #4]
 80041a4:	681b      	ldr	r3, [r3, #0]
 80041a6:	689b      	ldr	r3, [r3, #8]
 80041a8:	0f5b      	lsrs	r3, r3, #29
 80041aa:	b2da      	uxtb	r2, r3
 80041ac:	250c      	movs	r5, #12
 80041ae:	197b      	adds	r3, r7, r5
 80041b0:	2107      	movs	r1, #7
 80041b2:	400a      	ands	r2, r1
 80041b4:	701a      	strb	r2, [r3, #0]
    huart->NbTxDataToProcess = ((uint16_t)tx_fifo_depth * numerator[tx_fifo_threshold]) /
 80041b6:	183b      	adds	r3, r7, r0
 80041b8:	781b      	ldrb	r3, [r3, #0]
 80041ba:	197a      	adds	r2, r7, r5
 80041bc:	7812      	ldrb	r2, [r2, #0]
 80041be:	4914      	ldr	r1, [pc, #80]	; (8004210 <UARTEx_SetNbDataToProcess+0xb4>)
 80041c0:	5c8a      	ldrb	r2, [r1, r2]
 80041c2:	435a      	muls	r2, r3
 80041c4:	0010      	movs	r0, r2
                               (uint16_t)denominator[tx_fifo_threshold];
 80041c6:	197b      	adds	r3, r7, r5
 80041c8:	781b      	ldrb	r3, [r3, #0]
 80041ca:	4a12      	ldr	r2, [pc, #72]	; (8004214 <UARTEx_SetNbDataToProcess+0xb8>)
 80041cc:	5cd3      	ldrb	r3, [r2, r3]
    huart->NbTxDataToProcess = ((uint16_t)tx_fifo_depth * numerator[tx_fifo_threshold]) /
 80041ce:	0019      	movs	r1, r3
 80041d0:	f7fc f822 	bl	8000218 <__divsi3>
 80041d4:	0003      	movs	r3, r0
 80041d6:	b299      	uxth	r1, r3
 80041d8:	687b      	ldr	r3, [r7, #4]
 80041da:	226a      	movs	r2, #106	; 0x6a
 80041dc:	5299      	strh	r1, [r3, r2]
    huart->NbRxDataToProcess = ((uint16_t)rx_fifo_depth * numerator[rx_fifo_threshold]) /
 80041de:	19bb      	adds	r3, r7, r6
 80041e0:	781b      	ldrb	r3, [r3, #0]
 80041e2:	193a      	adds	r2, r7, r4
 80041e4:	7812      	ldrb	r2, [r2, #0]
 80041e6:	490a      	ldr	r1, [pc, #40]	; (8004210 <UARTEx_SetNbDataToProcess+0xb4>)
 80041e8:	5c8a      	ldrb	r2, [r1, r2]
 80041ea:	435a      	muls	r2, r3
 80041ec:	0010      	movs	r0, r2
                               (uint16_t)denominator[rx_fifo_threshold];
 80041ee:	193b      	adds	r3, r7, r4
 80041f0:	781b      	ldrb	r3, [r3, #0]
 80041f2:	4a08      	ldr	r2, [pc, #32]	; (8004214 <UARTEx_SetNbDataToProcess+0xb8>)
 80041f4:	5cd3      	ldrb	r3, [r2, r3]
    huart->NbRxDataToProcess = ((uint16_t)rx_fifo_depth * numerator[rx_fifo_threshold]) /
 80041f6:	0019      	movs	r1, r3
 80041f8:	f7fc f80e 	bl	8000218 <__divsi3>
 80041fc:	0003      	movs	r3, r0
 80041fe:	b299      	uxth	r1, r3
 8004200:	687b      	ldr	r3, [r7, #4]
 8004202:	2268      	movs	r2, #104	; 0x68
 8004204:	5299      	strh	r1, [r3, r2]
}
 8004206:	46c0      	nop			; (mov r8, r8)
 8004208:	46bd      	mov	sp, r7
 800420a:	b005      	add	sp, #20
 800420c:	bdf0      	pop	{r4, r5, r6, r7, pc}
 800420e:	46c0      	nop			; (mov r8, r8)
 8004210:	0800452c 	.word	0x0800452c
 8004214:	08004534 	.word	0x08004534

08004218 <malloc>:
 8004218:	b510      	push	{r4, lr}
 800421a:	4b03      	ldr	r3, [pc, #12]	; (8004228 <malloc+0x10>)
 800421c:	0001      	movs	r1, r0
 800421e:	6818      	ldr	r0, [r3, #0]
 8004220:	f000 f826 	bl	8004270 <_malloc_r>
 8004224:	bd10      	pop	{r4, pc}
 8004226:	46c0      	nop			; (mov r8, r8)
 8004228:	20000058 	.word	0x20000058

0800422c <sbrk_aligned>:
 800422c:	b570      	push	{r4, r5, r6, lr}
 800422e:	4e0f      	ldr	r6, [pc, #60]	; (800426c <sbrk_aligned+0x40>)
 8004230:	000d      	movs	r5, r1
 8004232:	6831      	ldr	r1, [r6, #0]
 8004234:	0004      	movs	r4, r0
 8004236:	2900      	cmp	r1, #0
 8004238:	d102      	bne.n	8004240 <sbrk_aligned+0x14>
 800423a:	f000 f8b3 	bl	80043a4 <_sbrk_r>
 800423e:	6030      	str	r0, [r6, #0]
 8004240:	0029      	movs	r1, r5
 8004242:	0020      	movs	r0, r4
 8004244:	f000 f8ae 	bl	80043a4 <_sbrk_r>
 8004248:	1c43      	adds	r3, r0, #1
 800424a:	d00a      	beq.n	8004262 <sbrk_aligned+0x36>
 800424c:	2303      	movs	r3, #3
 800424e:	1cc5      	adds	r5, r0, #3
 8004250:	439d      	bics	r5, r3
 8004252:	42a8      	cmp	r0, r5
 8004254:	d007      	beq.n	8004266 <sbrk_aligned+0x3a>
 8004256:	1a29      	subs	r1, r5, r0
 8004258:	0020      	movs	r0, r4
 800425a:	f000 f8a3 	bl	80043a4 <_sbrk_r>
 800425e:	3001      	adds	r0, #1
 8004260:	d101      	bne.n	8004266 <sbrk_aligned+0x3a>
 8004262:	2501      	movs	r5, #1
 8004264:	426d      	negs	r5, r5
 8004266:	0028      	movs	r0, r5
 8004268:	bd70      	pop	{r4, r5, r6, pc}
 800426a:	46c0      	nop			; (mov r8, r8)
 800426c:	2000017c 	.word	0x2000017c

08004270 <_malloc_r>:
 8004270:	b5f7      	push	{r0, r1, r2, r4, r5, r6, r7, lr}
 8004272:	2203      	movs	r2, #3
 8004274:	1ccb      	adds	r3, r1, #3
 8004276:	4393      	bics	r3, r2
 8004278:	3308      	adds	r3, #8
 800427a:	0006      	movs	r6, r0
 800427c:	001f      	movs	r7, r3
 800427e:	2b0c      	cmp	r3, #12
 8004280:	d238      	bcs.n	80042f4 <_malloc_r+0x84>
 8004282:	270c      	movs	r7, #12
 8004284:	42b9      	cmp	r1, r7
 8004286:	d837      	bhi.n	80042f8 <_malloc_r+0x88>
 8004288:	0030      	movs	r0, r6
 800428a:	f000 f873 	bl	8004374 <__malloc_lock>
 800428e:	4b38      	ldr	r3, [pc, #224]	; (8004370 <_malloc_r+0x100>)
 8004290:	9300      	str	r3, [sp, #0]
 8004292:	681b      	ldr	r3, [r3, #0]
 8004294:	001c      	movs	r4, r3
 8004296:	2c00      	cmp	r4, #0
 8004298:	d133      	bne.n	8004302 <_malloc_r+0x92>
 800429a:	0039      	movs	r1, r7
 800429c:	0030      	movs	r0, r6
 800429e:	f7ff ffc5 	bl	800422c <sbrk_aligned>
 80042a2:	0004      	movs	r4, r0
 80042a4:	1c43      	adds	r3, r0, #1
 80042a6:	d15e      	bne.n	8004366 <_malloc_r+0xf6>
 80042a8:	9b00      	ldr	r3, [sp, #0]
 80042aa:	681c      	ldr	r4, [r3, #0]
 80042ac:	0025      	movs	r5, r4
 80042ae:	2d00      	cmp	r5, #0
 80042b0:	d14e      	bne.n	8004350 <_malloc_r+0xe0>
 80042b2:	2c00      	cmp	r4, #0
 80042b4:	d051      	beq.n	800435a <_malloc_r+0xea>
 80042b6:	6823      	ldr	r3, [r4, #0]
 80042b8:	0029      	movs	r1, r5
 80042ba:	18e3      	adds	r3, r4, r3
 80042bc:	0030      	movs	r0, r6
 80042be:	9301      	str	r3, [sp, #4]
 80042c0:	f000 f870 	bl	80043a4 <_sbrk_r>
 80042c4:	9b01      	ldr	r3, [sp, #4]
 80042c6:	4283      	cmp	r3, r0
 80042c8:	d147      	bne.n	800435a <_malloc_r+0xea>
 80042ca:	6823      	ldr	r3, [r4, #0]
 80042cc:	0030      	movs	r0, r6
 80042ce:	1aff      	subs	r7, r7, r3
 80042d0:	0039      	movs	r1, r7
 80042d2:	f7ff ffab 	bl	800422c <sbrk_aligned>
 80042d6:	3001      	adds	r0, #1
 80042d8:	d03f      	beq.n	800435a <_malloc_r+0xea>
 80042da:	6823      	ldr	r3, [r4, #0]
 80042dc:	19db      	adds	r3, r3, r7
 80042de:	6023      	str	r3, [r4, #0]
 80042e0:	9b00      	ldr	r3, [sp, #0]
 80042e2:	681b      	ldr	r3, [r3, #0]
 80042e4:	2b00      	cmp	r3, #0
 80042e6:	d040      	beq.n	800436a <_malloc_r+0xfa>
 80042e8:	685a      	ldr	r2, [r3, #4]
 80042ea:	42a2      	cmp	r2, r4
 80042ec:	d133      	bne.n	8004356 <_malloc_r+0xe6>
 80042ee:	2200      	movs	r2, #0
 80042f0:	605a      	str	r2, [r3, #4]
 80042f2:	e014      	b.n	800431e <_malloc_r+0xae>
 80042f4:	2b00      	cmp	r3, #0
 80042f6:	dac5      	bge.n	8004284 <_malloc_r+0x14>
 80042f8:	230c      	movs	r3, #12
 80042fa:	2500      	movs	r5, #0
 80042fc:	6033      	str	r3, [r6, #0]
 80042fe:	0028      	movs	r0, r5
 8004300:	bdfe      	pop	{r1, r2, r3, r4, r5, r6, r7, pc}
 8004302:	6821      	ldr	r1, [r4, #0]
 8004304:	1bc9      	subs	r1, r1, r7
 8004306:	d420      	bmi.n	800434a <_malloc_r+0xda>
 8004308:	290b      	cmp	r1, #11
 800430a:	d918      	bls.n	800433e <_malloc_r+0xce>
 800430c:	19e2      	adds	r2, r4, r7
 800430e:	6027      	str	r7, [r4, #0]
 8004310:	42a3      	cmp	r3, r4
 8004312:	d112      	bne.n	800433a <_malloc_r+0xca>
 8004314:	9b00      	ldr	r3, [sp, #0]
 8004316:	601a      	str	r2, [r3, #0]
 8004318:	6863      	ldr	r3, [r4, #4]
 800431a:	6011      	str	r1, [r2, #0]
 800431c:	6053      	str	r3, [r2, #4]
 800431e:	0030      	movs	r0, r6
 8004320:	0025      	movs	r5, r4
 8004322:	f000 f82f 	bl	8004384 <__malloc_unlock>
 8004326:	2207      	movs	r2, #7
 8004328:	350b      	adds	r5, #11
 800432a:	1d23      	adds	r3, r4, #4
 800432c:	4395      	bics	r5, r2
 800432e:	1aea      	subs	r2, r5, r3
 8004330:	429d      	cmp	r5, r3
 8004332:	d0e4      	beq.n	80042fe <_malloc_r+0x8e>
 8004334:	1b5b      	subs	r3, r3, r5
 8004336:	50a3      	str	r3, [r4, r2]
 8004338:	e7e1      	b.n	80042fe <_malloc_r+0x8e>
 800433a:	605a      	str	r2, [r3, #4]
 800433c:	e7ec      	b.n	8004318 <_malloc_r+0xa8>
 800433e:	6862      	ldr	r2, [r4, #4]
 8004340:	42a3      	cmp	r3, r4
 8004342:	d1d5      	bne.n	80042f0 <_malloc_r+0x80>
 8004344:	9b00      	ldr	r3, [sp, #0]
 8004346:	601a      	str	r2, [r3, #0]
 8004348:	e7e9      	b.n	800431e <_malloc_r+0xae>
 800434a:	0023      	movs	r3, r4
 800434c:	6864      	ldr	r4, [r4, #4]
 800434e:	e7a2      	b.n	8004296 <_malloc_r+0x26>
 8004350:	002c      	movs	r4, r5
 8004352:	686d      	ldr	r5, [r5, #4]
 8004354:	e7ab      	b.n	80042ae <_malloc_r+0x3e>
 8004356:	0013      	movs	r3, r2
 8004358:	e7c4      	b.n	80042e4 <_malloc_r+0x74>
 800435a:	230c      	movs	r3, #12
 800435c:	0030      	movs	r0, r6
 800435e:	6033      	str	r3, [r6, #0]
 8004360:	f000 f810 	bl	8004384 <__malloc_unlock>
 8004364:	e7cb      	b.n	80042fe <_malloc_r+0x8e>
 8004366:	6027      	str	r7, [r4, #0]
 8004368:	e7d9      	b.n	800431e <_malloc_r+0xae>
 800436a:	605b      	str	r3, [r3, #4]
 800436c:	deff      	udf	#255	; 0xff
 800436e:	46c0      	nop			; (mov r8, r8)
 8004370:	20000178 	.word	0x20000178

08004374 <__malloc_lock>:
 8004374:	b510      	push	{r4, lr}
 8004376:	4802      	ldr	r0, [pc, #8]	; (8004380 <__malloc_lock+0xc>)
 8004378:	f000 f850 	bl	800441c <__retarget_lock_acquire_recursive>
 800437c:	bd10      	pop	{r4, pc}
 800437e:	46c0      	nop			; (mov r8, r8)
 8004380:	200002bc 	.word	0x200002bc

08004384 <__malloc_unlock>:
 8004384:	b510      	push	{r4, lr}
 8004386:	4802      	ldr	r0, [pc, #8]	; (8004390 <__malloc_unlock+0xc>)
 8004388:	f000 f849 	bl	800441e <__retarget_lock_release_recursive>
 800438c:	bd10      	pop	{r4, pc}
 800438e:	46c0      	nop			; (mov r8, r8)
 8004390:	200002bc 	.word	0x200002bc

08004394 <memset>:
 8004394:	0003      	movs	r3, r0
 8004396:	1882      	adds	r2, r0, r2
 8004398:	4293      	cmp	r3, r2
 800439a:	d100      	bne.n	800439e <memset+0xa>
 800439c:	4770      	bx	lr
 800439e:	7019      	strb	r1, [r3, #0]
 80043a0:	3301      	adds	r3, #1
 80043a2:	e7f9      	b.n	8004398 <memset+0x4>

080043a4 <_sbrk_r>:
 80043a4:	2300      	movs	r3, #0
 80043a6:	b570      	push	{r4, r5, r6, lr}
 80043a8:	4d06      	ldr	r5, [pc, #24]	; (80043c4 <_sbrk_r+0x20>)
 80043aa:	0004      	movs	r4, r0
 80043ac:	0008      	movs	r0, r1
 80043ae:	602b      	str	r3, [r5, #0]
 80043b0:	f7fc fbdc 	bl	8000b6c <_sbrk>
 80043b4:	1c43      	adds	r3, r0, #1
 80043b6:	d103      	bne.n	80043c0 <_sbrk_r+0x1c>
 80043b8:	682b      	ldr	r3, [r5, #0]
 80043ba:	2b00      	cmp	r3, #0
 80043bc:	d000      	beq.n	80043c0 <_sbrk_r+0x1c>
 80043be:	6023      	str	r3, [r4, #0]
 80043c0:	bd70      	pop	{r4, r5, r6, pc}
 80043c2:	46c0      	nop			; (mov r8, r8)
 80043c4:	200002b8 	.word	0x200002b8

080043c8 <__errno>:
 80043c8:	4b01      	ldr	r3, [pc, #4]	; (80043d0 <__errno+0x8>)
 80043ca:	6818      	ldr	r0, [r3, #0]
 80043cc:	4770      	bx	lr
 80043ce:	46c0      	nop			; (mov r8, r8)
 80043d0:	20000058 	.word	0x20000058

080043d4 <__libc_init_array>:
 80043d4:	b570      	push	{r4, r5, r6, lr}
 80043d6:	2600      	movs	r6, #0
 80043d8:	4c0c      	ldr	r4, [pc, #48]	; (800440c <__libc_init_array+0x38>)
 80043da:	4d0d      	ldr	r5, [pc, #52]	; (8004410 <__libc_init_array+0x3c>)
 80043dc:	1b64      	subs	r4, r4, r5
 80043de:	10a4      	asrs	r4, r4, #2
 80043e0:	42a6      	cmp	r6, r4
 80043e2:	d109      	bne.n	80043f8 <__libc_init_array+0x24>
 80043e4:	2600      	movs	r6, #0
 80043e6:	f000 f81b 	bl	8004420 <_init>
 80043ea:	4c0a      	ldr	r4, [pc, #40]	; (8004414 <__libc_init_array+0x40>)
 80043ec:	4d0a      	ldr	r5, [pc, #40]	; (8004418 <__libc_init_array+0x44>)
 80043ee:	1b64      	subs	r4, r4, r5
 80043f0:	10a4      	asrs	r4, r4, #2
 80043f2:	42a6      	cmp	r6, r4
 80043f4:	d105      	bne.n	8004402 <__libc_init_array+0x2e>
 80043f6:	bd70      	pop	{r4, r5, r6, pc}
 80043f8:	00b3      	lsls	r3, r6, #2
 80043fa:	58eb      	ldr	r3, [r5, r3]
 80043fc:	4798      	blx	r3
 80043fe:	3601      	adds	r6, #1
 8004400:	e7ee      	b.n	80043e0 <__libc_init_array+0xc>
 8004402:	00b3      	lsls	r3, r6, #2
 8004404:	58eb      	ldr	r3, [r5, r3]
 8004406:	4798      	blx	r3
 8004408:	3601      	adds	r6, #1
 800440a:	e7f2      	b.n	80043f2 <__libc_init_array+0x1e>
 800440c:	08004544 	.word	0x08004544
 8004410:	08004544 	.word	0x08004544
 8004414:	08004548 	.word	0x08004548
 8004418:	08004544 	.word	0x08004544

0800441c <__retarget_lock_acquire_recursive>:
 800441c:	4770      	bx	lr

0800441e <__retarget_lock_release_recursive>:
 800441e:	4770      	bx	lr

08004420 <_init>:
 8004420:	b5f8      	push	{r3, r4, r5, r6, r7, lr}
 8004422:	46c0      	nop			; (mov r8, r8)
 8004424:	bcf8      	pop	{r3, r4, r5, r6, r7}
 8004426:	bc08      	pop	{r3}
 8004428:	469e      	mov	lr, r3
 800442a:	4770      	bx	lr

0800442c <_fini>:
 800442c:	b5f8      	push	{r3, r4, r5, r6, r7, lr}
 800442e:	46c0      	nop			; (mov r8, r8)
 8004430:	bcf8      	pop	{r3, r4, r5, r6, r7}
 8004432:	bc08      	pop	{r3}
 8004434:	469e      	mov	lr, r3
 8004436:	4770      	bx	lr
